
AVRASM ver. 2.1.30  C:\Users\presa\Desktop\Center_01.05.2018_phone_number_fixed\Debug\List\1.asm Fri May 04 00:51:03 2018

C:\Users\presa\Desktop\Center_01.05.2018_phone_number_fixed\Debug\List\1.asm(1090): warning: Register r5 already defined by the .DEF directive
C:\Users\presa\Desktop\Center_01.05.2018_phone_number_fixed\Debug\List\1.asm(1091): warning: Register r4 already defined by the .DEF directive
C:\Users\presa\Desktop\Center_01.05.2018_phone_number_fixed\Debug\List\1.asm(1092): warning: Register r7 already defined by the .DEF directive
C:\Users\presa\Desktop\Center_01.05.2018_phone_number_fixed\Debug\List\1.asm(1093): warning: Register r8 already defined by the .DEF directive
C:\Users\presa\Desktop\Center_01.05.2018_phone_number_fixed\Debug\List\1.asm(1094): warning: Register r9 already defined by the .DEF directive
C:\Users\presa\Desktop\Center_01.05.2018_phone_number_fixed\Debug\List\1.asm(1095): warning: Register r10 already defined by the .DEF directive
C:\Users\presa\Desktop\Center_01.05.2018_phone_number_fixed\Debug\List\1.asm(1096): warning: Register r11 already defined by the .DEF directive
C:\Users\presa\Desktop\Center_01.05.2018_phone_number_fixed\Debug\List\1.asm(1097): warning: Register r6 already defined by the .DEF directive
C:\Users\presa\Desktop\Center_01.05.2018_phone_number_fixed\Debug\List\1.asm(1098): warning: Register r13 already defined by the .DEF directive
C:\Users\presa\Desktop\Center_01.05.2018_phone_number_fixed\Debug\List\1.asm(1099): warning: Register r12 already defined by the .DEF directive
                 
                 
                 ;CodeVisionAVR C Compiler V3.12 Advanced
                 ;(C) Copyright 1998-2014 Pavel Haiduc, HP InfoTech s.r.l.
                 ;http://www.hpinfotech.com
                 
                 ;Build configuration    : Debug
                 ;Chip type              : ATmega128
                 ;Program type           : Application
                 ;Clock frequency        : 8,000000 MHz
                 ;Memory model           : Small
                 ;Optimize for           : Size
                 ;(s)printf features     : int, width
                 ;(s)scanf features      : int, width
                 ;External RAM size      : 0
                 ;Data Stack size        : 1024 byte(s)
                 ;Heap size              : 0 byte(s)
                 ;Promote 'char' to 'int': Yes
                 ;'char' is unsigned     : Yes
                 ;8 bit enums            : Yes
                 ;Global 'const' stored in FLASH: Yes
                 ;Enhanced function parameter passing: Yes
                 ;Enhanced core instructions: On
                 ;Automatic register allocation for global variables: On
                 ;Smart register allocation: On
                 
                 	#define _MODEL_SMALL_
                 
                 	#pragma AVRPART ADMIN PART_NAME ATmega128
                 	#pragma AVRPART MEMORY PROG_FLASH 131072
                 	#pragma AVRPART MEMORY EEPROM 4096
                 	#pragma AVRPART MEMORY INT_SRAM SIZE 4096
                 	#pragma AVRPART MEMORY INT_SRAM START_ADDR 0x100
                 
                 	#define CALL_SUPPORTED 1
                 
                 	.LISTMAC
                 	.EQU UDRE=0x5
                 	.EQU RXC=0x7
                 	.EQU USR=0xB
                 	.EQU UDR=0xC
                 	.EQU SPSR=0xE
                 	.EQU SPDR=0xF
                 	.EQU EERE=0x0
                 	.EQU EEWE=0x1
                 	.EQU EEMWE=0x2
                 	.EQU EECR=0x1C
                 	.EQU EEDR=0x1D
                 	.EQU EEARL=0x1E
                 	.EQU EEARH=0x1F
                 	.EQU WDTCR=0x21
                 	.EQU MCUCR=0x35
                 	.EQU RAMPZ=0x3B
                 	.EQU SPL=0x3D
                 	.EQU SPH=0x3E
                 	.EQU SREG=0x3F
                 	.EQU XMCRA=0x6D
                 	.EQU XMCRB=0x6C
                 
                 	.DEF R0X0=R0
                 	.DEF R0X1=R1
                 	.DEF R0X2=R2
                 	.DEF R0X3=R3
                 	.DEF R0X4=R4
                 	.DEF R0X5=R5
                 	.DEF R0X6=R6
                 	.DEF R0X7=R7
                 	.DEF R0X8=R8
                 	.DEF R0X9=R9
                 	.DEF R0XA=R10
                 	.DEF R0XB=R11
                 	.DEF R0XC=R12
                 	.DEF R0XD=R13
                 	.DEF R0XE=R14
                 	.DEF R0XF=R15
                 	.DEF R0X10=R16
                 	.DEF R0X11=R17
                 	.DEF R0X12=R18
                 	.DEF R0X13=R19
                 	.DEF R0X14=R20
                 	.DEF R0X15=R21
                 	.DEF R0X16=R22
                 	.DEF R0X17=R23
                 	.DEF R0X18=R24
                 	.DEF R0X19=R25
                 	.DEF R0X1A=R26
                 	.DEF R0X1B=R27
                 	.DEF R0X1C=R28
                 	.DEF R0X1D=R29
                 	.DEF R0X1E=R30
                 	.DEF R0X1F=R31
                 
                 	.EQU __SRAM_START=0x0100
                 	.EQU __SRAM_END=0x10FF
                 	.EQU __DSTACK_SIZE=0x0400
                 	.EQU __HEAP_SIZE=0x0000
                 	.EQU __CLEAR_SRAM_SIZE=__SRAM_END-__SRAM_START+1
                 
                 	.MACRO __CPD1N
                 	CPI  R30,LOW(@0)
                 	LDI  R26,HIGH(@0)
                 	CPC  R31,R26
                 	LDI  R26,BYTE3(@0)
                 	CPC  R22,R26
                 	LDI  R26,BYTE4(@0)
                 	CPC  R23,R26
                 	.ENDM
                 
                 	.MACRO __CPD2N
                 	CPI  R26,LOW(@0)
                 	LDI  R30,HIGH(@0)
                 	CPC  R27,R30
                 	LDI  R30,BYTE3(@0)
                 	CPC  R24,R30
                 	LDI  R30,BYTE4(@0)
                 	CPC  R25,R30
                 	.ENDM
                 
                 	.MACRO __CPWRR
                 	CP   R@0,R@2
                 	CPC  R@1,R@3
                 	.ENDM
                 
                 	.MACRO __CPWRN
                 	CPI  R@0,LOW(@2)
                 	LDI  R30,HIGH(@2)
                 	CPC  R@1,R30
                 	.ENDM
                 
                 	.MACRO __ADDB1MN
                 	SUBI R30,LOW(-@0-(@1))
                 	.ENDM
                 
                 	.MACRO __ADDB2MN
                 	SUBI R26,LOW(-@0-(@1))
                 	.ENDM
                 
                 	.MACRO __ADDW1MN
                 	SUBI R30,LOW(-@0-(@1))
                 	SBCI R31,HIGH(-@0-(@1))
                 	.ENDM
                 
                 	.MACRO __ADDW2MN
                 	SUBI R26,LOW(-@0-(@1))
                 	SBCI R27,HIGH(-@0-(@1))
                 	.ENDM
                 
                 	.MACRO __ADDW1FN
                 	SUBI R30,LOW(-2*@0-(@1))
                 	SBCI R31,HIGH(-2*@0-(@1))
                 	.ENDM
                 
                 	.MACRO __ADDD1FN
                 	SUBI R30,LOW(-2*@0-(@1))
                 	SBCI R31,HIGH(-2*@0-(@1))
                 	SBCI R22,BYTE3(-2*@0-(@1))
                 	.ENDM
                 
                 	.MACRO __ADDD1N
                 	SUBI R30,LOW(-@0)
                 	SBCI R31,HIGH(-@0)
                 	SBCI R22,BYTE3(-@0)
                 	SBCI R23,BYTE4(-@0)
                 	.ENDM
                 
                 	.MACRO __ADDD2N
                 	SUBI R26,LOW(-@0)
                 	SBCI R27,HIGH(-@0)
                 	SBCI R24,BYTE3(-@0)
                 	SBCI R25,BYTE4(-@0)
                 	.ENDM
                 
                 	.MACRO __SUBD1N
                 	SUBI R30,LOW(@0)
                 	SBCI R31,HIGH(@0)
                 	SBCI R22,BYTE3(@0)
                 	SBCI R23,BYTE4(@0)
                 	.ENDM
                 
                 	.MACRO __SUBD2N
                 	SUBI R26,LOW(@0)
                 	SBCI R27,HIGH(@0)
                 	SBCI R24,BYTE3(@0)
                 	SBCI R25,BYTE4(@0)
                 	.ENDM
                 
                 	.MACRO __ANDBMNN
                 	LDS  R30,@0+(@1)
                 	ANDI R30,LOW(@2)
                 	STS  @0+(@1),R30
                 	.ENDM
                 
                 	.MACRO __ANDWMNN
                 	LDS  R30,@0+(@1)
                 	ANDI R30,LOW(@2)
                 	STS  @0+(@1),R30
                 	LDS  R30,@0+(@1)+1
                 	ANDI R30,HIGH(@2)
                 	STS  @0+(@1)+1,R30
                 	.ENDM
                 
                 	.MACRO __ANDD1N
                 	ANDI R30,LOW(@0)
                 	ANDI R31,HIGH(@0)
                 	ANDI R22,BYTE3(@0)
                 	ANDI R23,BYTE4(@0)
                 	.ENDM
                 
                 	.MACRO __ANDD2N
                 	ANDI R26,LOW(@0)
                 	ANDI R27,HIGH(@0)
                 	ANDI R24,BYTE3(@0)
                 	ANDI R25,BYTE4(@0)
                 	.ENDM
                 
                 	.MACRO __ORBMNN
                 	LDS  R30,@0+(@1)
                 	ORI  R30,LOW(@2)
                 	STS  @0+(@1),R30
                 	.ENDM
                 
                 	.MACRO __ORWMNN
                 	LDS  R30,@0+(@1)
                 	ORI  R30,LOW(@2)
                 	STS  @0+(@1),R30
                 	LDS  R30,@0+(@1)+1
                 	ORI  R30,HIGH(@2)
                 	STS  @0+(@1)+1,R30
                 	.ENDM
                 
                 	.MACRO __ORD1N
                 	ORI  R30,LOW(@0)
                 	ORI  R31,HIGH(@0)
                 	ORI  R22,BYTE3(@0)
                 	ORI  R23,BYTE4(@0)
                 	.ENDM
                 
                 	.MACRO __ORD2N
                 	ORI  R26,LOW(@0)
                 	ORI  R27,HIGH(@0)
                 	ORI  R24,BYTE3(@0)
                 	ORI  R25,BYTE4(@0)
                 	.ENDM
                 
                 	.MACRO __DELAY_USB
                 	LDI  R24,LOW(@0)
                 __DELAY_USB_LOOP:
                 	DEC  R24
                 	BRNE __DELAY_USB_LOOP
                 	.ENDM
                 
                 	.MACRO __DELAY_USW
                 	LDI  R24,LOW(@0)
                 	LDI  R25,HIGH(@0)
                 __DELAY_USW_LOOP:
                 	SBIW R24,1
                 	BRNE __DELAY_USW_LOOP
                 	.ENDM
                 
                 	.MACRO __GETD1S
                 	LDD  R30,Y+@0
                 	LDD  R31,Y+@0+1
                 	LDD  R22,Y+@0+2
                 	LDD  R23,Y+@0+3
                 	.ENDM
                 
                 	.MACRO __GETD2S
                 	LDD  R26,Y+@0
                 	LDD  R27,Y+@0+1
                 	LDD  R24,Y+@0+2
                 	LDD  R25,Y+@0+3
                 	.ENDM
                 
                 	.MACRO __PUTD1S
                 	STD  Y+@0,R30
                 	STD  Y+@0+1,R31
                 	STD  Y+@0+2,R22
                 	STD  Y+@0+3,R23
                 	.ENDM
                 
                 	.MACRO __PUTD2S
                 	STD  Y+@0,R26
                 	STD  Y+@0+1,R27
                 	STD  Y+@0+2,R24
                 	STD  Y+@0+3,R25
                 	.ENDM
                 
                 	.MACRO __PUTDZ2
                 	STD  Z+@0,R26
                 	STD  Z+@0+1,R27
                 	STD  Z+@0+2,R24
                 	STD  Z+@0+3,R25
                 	.ENDM
                 
                 	.MACRO __CLRD1S
                 	STD  Y+@0,R30
                 	STD  Y+@0+1,R30
                 	STD  Y+@0+2,R30
                 	STD  Y+@0+3,R30
                 	.ENDM
                 
                 	.MACRO __POINTB1MN
                 	LDI  R30,LOW(@0+(@1))
                 	.ENDM
                 
                 	.MACRO __POINTW1MN
                 	LDI  R30,LOW(@0+(@1))
                 	LDI  R31,HIGH(@0+(@1))
                 	.ENDM
                 
                 	.MACRO __POINTD1M
                 	LDI  R30,LOW(@0)
                 	LDI  R31,HIGH(@0)
                 	LDI  R22,BYTE3(@0)
                 	LDI  R23,BYTE4(@0)
                 	.ENDM
                 
                 	.MACRO __POINTW1FN
                 	LDI  R30,LOW(2*@0+(@1))
                 	LDI  R31,HIGH(2*@0+(@1))
                 	.ENDM
                 
                 	.MACRO __POINTD1FN
                 	LDI  R30,LOW(2*@0+(@1))
                 	LDI  R31,HIGH(2*@0+(@1))
                 	LDI  R22,BYTE3(2*@0+(@1))
                 	LDI  R23,BYTE4(2*@0+(@1))
                 	.ENDM
                 
                 	.MACRO __POINTB2MN
                 	LDI  R26,LOW(@0+(@1))
                 	.ENDM
                 
                 	.MACRO __POINTW2MN
                 	LDI  R26,LOW(@0+(@1))
                 	LDI  R27,HIGH(@0+(@1))
                 	.ENDM
                 
                 	.MACRO __POINTW2FN
                 	LDI  R26,LOW(2*@0+(@1))
                 	LDI  R27,HIGH(2*@0+(@1))
                 	.ENDM
                 
                 	.MACRO __POINTD2FN
                 	LDI  R26,LOW(2*@0+(@1))
                 	LDI  R27,HIGH(2*@0+(@1))
                 	LDI  R24,BYTE3(2*@0+(@1))
                 	LDI  R25,BYTE4(2*@0+(@1))
                 	.ENDM
                 
                 	.MACRO __POINTBRM
                 	LDI  R@0,LOW(@1)
                 	.ENDM
                 
                 	.MACRO __POINTWRM
                 	LDI  R@0,LOW(@2)
                 	LDI  R@1,HIGH(@2)
                 	.ENDM
                 
                 	.MACRO __POINTBRMN
                 	LDI  R@0,LOW(@1+(@2))
                 	.ENDM
                 
                 	.MACRO __POINTWRMN
                 	LDI  R@0,LOW(@2+(@3))
                 	LDI  R@1,HIGH(@2+(@3))
                 	.ENDM
                 
                 	.MACRO __POINTWRFN
                 	LDI  R@0,LOW(@2*2+(@3))
                 	LDI  R@1,HIGH(@2*2+(@3))
                 	.ENDM
                 
                 	.MACRO __GETD1N
                 	LDI  R30,LOW(@0)
                 	LDI  R31,HIGH(@0)
                 	LDI  R22,BYTE3(@0)
                 	LDI  R23,BYTE4(@0)
                 	.ENDM
                 
                 	.MACRO __GETD2N
                 	LDI  R26,LOW(@0)
                 	LDI  R27,HIGH(@0)
                 	LDI  R24,BYTE3(@0)
                 	LDI  R25,BYTE4(@0)
                 	.ENDM
                 
                 	.MACRO __GETB1MN
                 	LDS  R30,@0+(@1)
                 	.ENDM
                 
                 	.MACRO __GETB1HMN
                 	LDS  R31,@0+(@1)
                 	.ENDM
                 
                 	.MACRO __GETW1MN
                 	LDS  R30,@0+(@1)
                 	LDS  R31,@0+(@1)+1
                 	.ENDM
                 
                 	.MACRO __GETD1MN
                 	LDS  R30,@0+(@1)
                 	LDS  R31,@0+(@1)+1
                 	LDS  R22,@0+(@1)+2
                 	LDS  R23,@0+(@1)+3
                 	.ENDM
                 
                 	.MACRO __GETBRMN
                 	LDS  R@0,@1+(@2)
                 	.ENDM
                 
                 	.MACRO __GETWRMN
                 	LDS  R@0,@2+(@3)
                 	LDS  R@1,@2+(@3)+1
                 	.ENDM
                 
                 	.MACRO __GETWRZ
                 	LDD  R@0,Z+@2
                 	LDD  R@1,Z+@2+1
                 	.ENDM
                 
                 	.MACRO __GETD2Z
                 	LDD  R26,Z+@0
                 	LDD  R27,Z+@0+1
                 	LDD  R24,Z+@0+2
                 	LDD  R25,Z+@0+3
                 	.ENDM
                 
                 	.MACRO __GETB2MN
                 	LDS  R26,@0+(@1)
                 	.ENDM
                 
                 	.MACRO __GETW2MN
                 	LDS  R26,@0+(@1)
                 	LDS  R27,@0+(@1)+1
                 	.ENDM
                 
                 	.MACRO __GETD2MN
                 	LDS  R26,@0+(@1)
                 	LDS  R27,@0+(@1)+1
                 	LDS  R24,@0+(@1)+2
                 	LDS  R25,@0+(@1)+3
                 	.ENDM
                 
                 	.MACRO __PUTB1MN
                 	STS  @0+(@1),R30
                 	.ENDM
                 
                 	.MACRO __PUTW1MN
                 	STS  @0+(@1),R30
                 	STS  @0+(@1)+1,R31
                 	.ENDM
                 
                 	.MACRO __PUTD1MN
                 	STS  @0+(@1),R30
                 	STS  @0+(@1)+1,R31
                 	STS  @0+(@1)+2,R22
                 	STS  @0+(@1)+3,R23
                 	.ENDM
                 
                 	.MACRO __PUTB1EN
                 	LDI  R26,LOW(@0+(@1))
                 	LDI  R27,HIGH(@0+(@1))
                 	CALL __EEPROMWRB
                 	.ENDM
                 
                 	.MACRO __PUTW1EN
                 	LDI  R26,LOW(@0+(@1))
                 	LDI  R27,HIGH(@0+(@1))
                 	CALL __EEPROMWRW
                 	.ENDM
                 
                 	.MACRO __PUTD1EN
                 	LDI  R26,LOW(@0+(@1))
                 	LDI  R27,HIGH(@0+(@1))
                 	CALL __EEPROMWRD
                 	.ENDM
                 
                 	.MACRO __PUTBR0MN
                 	STS  @0+(@1),R0
                 	.ENDM
                 
                 	.MACRO __PUTBMRN
                 	STS  @0+(@1),R@2
                 	.ENDM
                 
                 	.MACRO __PUTWMRN
                 	STS  @0+(@1),R@2
                 	STS  @0+(@1)+1,R@3
                 	.ENDM
                 
                 	.MACRO __PUTBZR
                 	STD  Z+@1,R@0
                 	.ENDM
                 
                 	.MACRO __PUTWZR
                 	STD  Z+@2,R@0
                 	STD  Z+@2+1,R@1
                 	.ENDM
                 
                 	.MACRO __GETW1R
                 	MOV  R30,R@0
                 	MOV  R31,R@1
                 	.ENDM
                 
                 	.MACRO __GETW2R
                 	MOV  R26,R@0
                 	MOV  R27,R@1
                 	.ENDM
                 
                 	.MACRO __GETWRN
                 	LDI  R@0,LOW(@2)
                 	LDI  R@1,HIGH(@2)
                 	.ENDM
                 
                 	.MACRO __PUTW1R
                 	MOV  R@0,R30
                 	MOV  R@1,R31
                 	.ENDM
                 
                 	.MACRO __PUTW2R
                 	MOV  R@0,R26
                 	MOV  R@1,R27
                 	.ENDM
                 
                 	.MACRO __ADDWRN
                 	SUBI R@0,LOW(-@2)
                 	SBCI R@1,HIGH(-@2)
                 	.ENDM
                 
                 	.MACRO __ADDWRR
                 	ADD  R@0,R@2
                 	ADC  R@1,R@3
                 	.ENDM
                 
                 	.MACRO __SUBWRN
                 	SUBI R@0,LOW(@2)
                 	SBCI R@1,HIGH(@2)
                 	.ENDM
                 
                 	.MACRO __SUBWRR
                 	SUB  R@0,R@2
                 	SBC  R@1,R@3
                 	.ENDM
                 
                 	.MACRO __ANDWRN
                 	ANDI R@0,LOW(@2)
                 	ANDI R@1,HIGH(@2)
                 	.ENDM
                 
                 	.MACRO __ANDWRR
                 	AND  R@0,R@2
                 	AND  R@1,R@3
                 	.ENDM
                 
                 	.MACRO __ORWRN
                 	ORI  R@0,LOW(@2)
                 	ORI  R@1,HIGH(@2)
                 	.ENDM
                 
                 	.MACRO __ORWRR
                 	OR   R@0,R@2
                 	OR   R@1,R@3
                 	.ENDM
                 
                 	.MACRO __EORWRR
                 	EOR  R@0,R@2
                 	EOR  R@1,R@3
                 	.ENDM
                 
                 	.MACRO __GETWRS
                 	LDD  R@0,Y+@2
                 	LDD  R@1,Y+@2+1
                 	.ENDM
                 
                 	.MACRO __PUTBSR
                 	STD  Y+@1,R@0
                 	.ENDM
                 
                 	.MACRO __PUTWSR
                 	STD  Y+@2,R@0
                 	STD  Y+@2+1,R@1
                 	.ENDM
                 
                 	.MACRO __MOVEWRR
                 	MOV  R@0,R@2
                 	MOV  R@1,R@3
                 	.ENDM
                 
                 	.MACRO __INWR
                 	IN   R@0,@2
                 	IN   R@1,@2+1
                 	.ENDM
                 
                 	.MACRO __OUTWR
                 	OUT  @2+1,R@1
                 	OUT  @2,R@0
                 	.ENDM
                 
                 	.MACRO __CALL1MN
                 	LDS  R30,@0+(@1)
                 	LDS  R31,@0+(@1)+1
                 	ICALL
                 	.ENDM
                 
                 	.MACRO __CALL1FN
                 	LDI  R30,LOW(2*@0+(@1))
                 	LDI  R31,HIGH(2*@0+(@1))
                 	CALL __GETW1PF
                 	ICALL
                 	.ENDM
                 
                 	.MACRO __CALL2EN
                 	PUSH R26
                 	PUSH R27
                 	LDI  R26,LOW(@0+(@1))
                 	LDI  R27,HIGH(@0+(@1))
                 	CALL __EEPROMRDW
                 	POP  R27
                 	POP  R26
                 	ICALL
                 	.ENDM
                 
                 	.MACRO __CALL2EX
                 	SUBI R26,LOW(-@0)
                 	SBCI R27,HIGH(-@0)
                 	CALL __EEPROMRDD
                 	ICALL
                 	.ENDM
                 
                 	.MACRO __GETW1STACK
                 	IN   R30,SPL
                 	IN   R31,SPH
                 	ADIW R30,@0+1
                 	LD   R0,Z+
                 	LD   R31,Z
                 	MOV  R30,R0
                 	.ENDM
                 
                 	.MACRO __GETD1STACK
                 	IN   R30,SPL
                 	IN   R31,SPH
                 	ADIW R30,@0+1
                 	LD   R0,Z+
                 	LD   R1,Z+
                 	LD   R22,Z
                 	MOVW R30,R0
                 	.ENDM
                 
                 	.MACRO __NBST
                 	BST  R@0,@1
                 	IN   R30,SREG
                 	LDI  R31,0x40
                 	EOR  R30,R31
                 	OUT  SREG,R30
                 	.ENDM
                 
                 
                 	.MACRO __PUTB1SN
                 	LDD  R26,Y+@0
                 	LDD  R27,Y+@0+1
                 	SUBI R26,LOW(-@1)
                 	SBCI R27,HIGH(-@1)
                 	ST   X,R30
                 	.ENDM
                 
                 	.MACRO __PUTW1SN
                 	LDD  R26,Y+@0
                 	LDD  R27,Y+@0+1
                 	SUBI R26,LOW(-@1)
                 	SBCI R27,HIGH(-@1)
                 	ST   X+,R30
                 	ST   X,R31
                 	.ENDM
                 
                 	.MACRO __PUTD1SN
                 	LDD  R26,Y+@0
                 	LDD  R27,Y+@0+1
                 	SUBI R26,LOW(-@1)
                 	SBCI R27,HIGH(-@1)
                 	CALL __PUTDP1
                 	.ENDM
                 
                 	.MACRO __PUTB1SNS
                 	LDD  R26,Y+@0
                 	LDD  R27,Y+@0+1
                 	ADIW R26,@1
                 	ST   X,R30
                 	.ENDM
                 
                 	.MACRO __PUTW1SNS
                 	LDD  R26,Y+@0
                 	LDD  R27,Y+@0+1
                 	ADIW R26,@1
                 	ST   X+,R30
                 	ST   X,R31
                 	.ENDM
                 
                 	.MACRO __PUTD1SNS
                 	LDD  R26,Y+@0
                 	LDD  R27,Y+@0+1
                 	ADIW R26,@1
                 	CALL __PUTDP1
                 	.ENDM
                 
                 	.MACRO __PUTB1PMN
                 	LDS  R26,@0
                 	LDS  R27,@0+1
                 	SUBI R26,LOW(-@1)
                 	SBCI R27,HIGH(-@1)
                 	ST   X,R30
                 	.ENDM
                 
                 	.MACRO __PUTW1PMN
                 	LDS  R26,@0
                 	LDS  R27,@0+1
                 	SUBI R26,LOW(-@1)
                 	SBCI R27,HIGH(-@1)
                 	ST   X+,R30
                 	ST   X,R31
                 	.ENDM
                 
                 	.MACRO __PUTD1PMN
                 	LDS  R26,@0
                 	LDS  R27,@0+1
                 	SUBI R26,LOW(-@1)
                 	SBCI R27,HIGH(-@1)
                 	CALL __PUTDP1
                 	.ENDM
                 
                 	.MACRO __PUTB1PMNS
                 	LDS  R26,@0
                 	LDS  R27,@0+1
                 	ADIW R26,@1
                 	ST   X,R30
                 	.ENDM
                 
                 	.MACRO __PUTW1PMNS
                 	LDS  R26,@0
                 	LDS  R27,@0+1
                 	ADIW R26,@1
                 	ST   X+,R30
                 	ST   X,R31
                 	.ENDM
                 
                 	.MACRO __PUTD1PMNS
                 	LDS  R26,@0
                 	LDS  R27,@0+1
                 	ADIW R26,@1
                 	CALL __PUTDP1
                 	.ENDM
                 
                 	.MACRO __PUTB1RN
                 	MOVW R26,R@0
                 	SUBI R26,LOW(-@1)
                 	SBCI R27,HIGH(-@1)
                 	ST   X,R30
                 	.ENDM
                 
                 	.MACRO __PUTW1RN
                 	MOVW R26,R@0
                 	SUBI R26,LOW(-@1)
                 	SBCI R27,HIGH(-@1)
                 	ST   X+,R30
                 	ST   X,R31
                 	.ENDM
                 
                 	.MACRO __PUTD1RN
                 	MOVW R26,R@0
                 	SUBI R26,LOW(-@1)
                 	SBCI R27,HIGH(-@1)
                 	CALL __PUTDP1
                 	.ENDM
                 
                 	.MACRO __PUTB1RNS
                 	MOVW R26,R@0
                 	ADIW R26,@1
                 	ST   X,R30
                 	.ENDM
                 
                 	.MACRO __PUTW1RNS
                 	MOVW R26,R@0
                 	ADIW R26,@1
                 	ST   X+,R30
                 	ST   X,R31
                 	.ENDM
                 
                 	.MACRO __PUTD1RNS
                 	MOVW R26,R@0
                 	ADIW R26,@1
                 	CALL __PUTDP1
                 	.ENDM
                 
                 	.MACRO __PUTB1RON
                 	MOV  R26,R@0
                 	MOV  R27,R@1
                 	SUBI R26,LOW(-@2)
                 	SBCI R27,HIGH(-@2)
                 	ST   X,R30
                 	.ENDM
                 
                 	.MACRO __PUTW1RON
                 	MOV  R26,R@0
                 	MOV  R27,R@1
                 	SUBI R26,LOW(-@2)
                 	SBCI R27,HIGH(-@2)
                 	ST   X+,R30
                 	ST   X,R31
                 	.ENDM
                 
                 	.MACRO __PUTD1RON
                 	MOV  R26,R@0
                 	MOV  R27,R@1
                 	SUBI R26,LOW(-@2)
                 	SBCI R27,HIGH(-@2)
                 	CALL __PUTDP1
                 	.ENDM
                 
                 	.MACRO __PUTB1RONS
                 	MOV  R26,R@0
                 	MOV  R27,R@1
                 	ADIW R26,@2
                 	ST   X,R30
                 	.ENDM
                 
                 	.MACRO __PUTW1RONS
                 	MOV  R26,R@0
                 	MOV  R27,R@1
                 	ADIW R26,@2
                 	ST   X+,R30
                 	ST   X,R31
                 	.ENDM
                 
                 	.MACRO __PUTD1RONS
                 	MOV  R26,R@0
                 	MOV  R27,R@1
                 	ADIW R26,@2
                 	CALL __PUTDP1
                 	.ENDM
                 
                 
                 	.MACRO __GETB1SX
                 	MOVW R30,R28
                 	SUBI R30,LOW(-@0)
                 	SBCI R31,HIGH(-@0)
                 	LD   R30,Z
                 	.ENDM
                 
                 	.MACRO __GETB1HSX
                 	MOVW R30,R28
                 	SUBI R30,LOW(-@0)
                 	SBCI R31,HIGH(-@0)
                 	LD   R31,Z
                 	.ENDM
                 
                 	.MACRO __GETW1SX
                 	MOVW R30,R28
                 	SUBI R30,LOW(-@0)
                 	SBCI R31,HIGH(-@0)
                 	LD   R0,Z+
                 	LD   R31,Z
                 	MOV  R30,R0
                 	.ENDM
                 
                 	.MACRO __GETD1SX
                 	MOVW R30,R28
                 	SUBI R30,LOW(-@0)
                 	SBCI R31,HIGH(-@0)
                 	LD   R0,Z+
                 	LD   R1,Z+
                 	LD   R22,Z+
                 	LD   R23,Z
                 	MOVW R30,R0
                 	.ENDM
                 
                 	.MACRO __GETB2SX
                 	MOVW R26,R28
                 	SUBI R26,LOW(-@0)
                 	SBCI R27,HIGH(-@0)
                 	LD   R26,X
                 	.ENDM
                 
                 	.MACRO __GETW2SX
                 	MOVW R26,R28
                 	SUBI R26,LOW(-@0)
                 	SBCI R27,HIGH(-@0)
                 	LD   R0,X+
                 	LD   R27,X
                 	MOV  R26,R0
                 	.ENDM
                 
                 	.MACRO __GETD2SX
                 	MOVW R26,R28
                 	SUBI R26,LOW(-@0)
                 	SBCI R27,HIGH(-@0)
                 	LD   R0,X+
                 	LD   R1,X+
                 	LD   R24,X+
                 	LD   R25,X
                 	MOVW R26,R0
                 	.ENDM
                 
                 	.MACRO __GETBRSX
                 	MOVW R30,R28
                 	SUBI R30,LOW(-@1)
                 	SBCI R31,HIGH(-@1)
                 	LD   R@0,Z
                 	.ENDM
                 
                 	.MACRO __GETWRSX
                 	MOVW R30,R28
                 	SUBI R30,LOW(-@2)
                 	SBCI R31,HIGH(-@2)
                 	LD   R@0,Z+
                 	LD   R@1,Z
                 	.ENDM
                 
                 	.MACRO __GETBRSX2
                 	MOVW R26,R28
                 	SUBI R26,LOW(-@1)
                 	SBCI R27,HIGH(-@1)
                 	LD   R@0,X
                 	.ENDM
                 
                 	.MACRO __GETWRSX2
                 	MOVW R26,R28
                 	SUBI R26,LOW(-@2)
                 	SBCI R27,HIGH(-@2)
                 	LD   R@0,X+
                 	LD   R@1,X
                 	.ENDM
                 
                 	.MACRO __LSLW8SX
                 	MOVW R30,R28
                 	SUBI R30,LOW(-@0)
                 	SBCI R31,HIGH(-@0)
                 	LD   R31,Z
                 	CLR  R30
                 	.ENDM
                 
                 	.MACRO __PUTB1SX
                 	MOVW R26,R28
                 	SUBI R26,LOW(-@0)
                 	SBCI R27,HIGH(-@0)
                 	ST   X,R30
                 	.ENDM
                 
                 	.MACRO __PUTW1SX
                 	MOVW R26,R28
                 	SUBI R26,LOW(-@0)
                 	SBCI R27,HIGH(-@0)
                 	ST   X+,R30
                 	ST   X,R31
                 	.ENDM
                 
                 	.MACRO __PUTD1SX
                 	MOVW R26,R28
                 	SUBI R26,LOW(-@0)
                 	SBCI R27,HIGH(-@0)
                 	ST   X+,R30
                 	ST   X+,R31
                 	ST   X+,R22
                 	ST   X,R23
                 	.ENDM
                 
                 	.MACRO __CLRW1SX
                 	MOVW R26,R28
                 	SUBI R26,LOW(-@0)
                 	SBCI R27,HIGH(-@0)
                 	ST   X+,R30
                 	ST   X,R30
                 	.ENDM
                 
                 	.MACRO __CLRD1SX
                 	MOVW R26,R28
                 	SUBI R26,LOW(-@0)
                 	SBCI R27,HIGH(-@0)
                 	ST   X+,R30
                 	ST   X+,R30
                 	ST   X+,R30
                 	ST   X,R30
                 	.ENDM
                 
                 	.MACRO __PUTB2SX
                 	MOVW R30,R28
                 	SUBI R30,LOW(-@0)
                 	SBCI R31,HIGH(-@0)
                 	ST   Z,R26
                 	.ENDM
                 
                 	.MACRO __PUTW2SX
                 	MOVW R30,R28
                 	SUBI R30,LOW(-@0)
                 	SBCI R31,HIGH(-@0)
                 	ST   Z+,R26
                 	ST   Z,R27
                 	.ENDM
                 
                 	.MACRO __PUTD2SX
                 	MOVW R30,R28
                 	SUBI R30,LOW(-@0)
                 	SBCI R31,HIGH(-@0)
                 	ST   Z+,R26
                 	ST   Z+,R27
                 	ST   Z+,R24
                 	ST   Z,R25
                 	.ENDM
                 
                 	.MACRO __PUTBSRX
                 	MOVW R30,R28
                 	SUBI R30,LOW(-@1)
                 	SBCI R31,HIGH(-@1)
                 	ST   Z,R@0
                 	.ENDM
                 
                 	.MACRO __PUTWSRX
                 	MOVW R30,R28
                 	SUBI R30,LOW(-@2)
                 	SBCI R31,HIGH(-@2)
                 	ST   Z+,R@0
                 	ST   Z,R@1
                 	.ENDM
                 
                 	.MACRO __PUTB1SNX
                 	MOVW R26,R28
                 	SUBI R26,LOW(-@0)
                 	SBCI R27,HIGH(-@0)
                 	LD   R0,X+
                 	LD   R27,X
                 	MOV  R26,R0
                 	SUBI R26,LOW(-@1)
                 	SBCI R27,HIGH(-@1)
                 	ST   X,R30
                 	.ENDM
                 
                 	.MACRO __PUTW1SNX
                 	MOVW R26,R28
                 	SUBI R26,LOW(-@0)
                 	SBCI R27,HIGH(-@0)
                 	LD   R0,X+
                 	LD   R27,X
                 	MOV  R26,R0
                 	SUBI R26,LOW(-@1)
                 	SBCI R27,HIGH(-@1)
                 	ST   X+,R30
                 	ST   X,R31
                 	.ENDM
                 
                 	.MACRO __PUTD1SNX
                 	MOVW R26,R28
                 	SUBI R26,LOW(-@0)
                 	SBCI R27,HIGH(-@0)
                 	LD   R0,X+
                 	LD   R27,X
                 	MOV  R26,R0
                 	SUBI R26,LOW(-@1)
                 	SBCI R27,HIGH(-@1)
                 	ST   X+,R30
                 	ST   X+,R31
                 	ST   X+,R22
                 	ST   X,R23
                 	.ENDM
                 
                 	.MACRO __MULBRR
                 	MULS R@0,R@1
                 	MOVW R30,R0
                 	.ENDM
                 
                 	.MACRO __MULBRRU
                 	MUL  R@0,R@1
                 	MOVW R30,R0
                 	.ENDM
                 
                 	.MACRO __MULBRR0
                 	MULS R@0,R@1
                 	.ENDM
                 
                 	.MACRO __MULBRRU0
                 	MUL  R@0,R@1
                 	.ENDM
                 
                 	.MACRO __MULBNWRU
                 	LDI  R26,@2
                 	MUL  R26,R@0
                 	MOVW R30,R0
                 	MUL  R26,R@1
                 	ADD  R31,R0
                 	.ENDM
                 
                 ;NAME DEFINITIONS FOR GLOBAL VARIABLES ALLOCATED TO REGISTERS
                 	.DEF _blink=R5
                 	.DEF _is_show_clock=R4
                 	.DEF _is_sim_init_ok=R7
                 	.DEF _x=R8
                 	.DEF _x_msb=R9
                 	.DEF _y=R10
                 	.DEF _y_msb=R11
                 	.DEF _week_day=R6
                 	.DEF _day=R13
                 	.DEF _month=R12
                 
                 	.CSEG
                 	.ORG 0x00
                 
                 ;START OF CODE MARKER
                 __START_OF_CODE:
                 
                 ;INTERRUPT VECTORS
000000 940c 091d 	JMP  __RESET
000002 940c 0000 	JMP  0x00
000004 940c 0000 	JMP  0x00
000006 940c 0000 	JMP  0x00
000008 940c 0000 	JMP  0x00
00000a 940c 0000 	JMP  0x00
00000c 940c 0000 	JMP  0x00
00000e 940c 0000 	JMP  0x00
000010 940c 0000 	JMP  0x00
000012 940c 0000 	JMP  0x00
000014 940c 0000 	JMP  0x00
000016 940c 0000 	JMP  0x00
000018 940c 0000 	JMP  0x00
00001a 940c 0000 	JMP  0x00
00001c 940c 0000 	JMP  0x00
00001e 940c 0000 	JMP  0x00
000020 940c 14f2 	JMP  _timer0_ovf_isr
000022 940c 0000 	JMP  0x00
000024 940c 0000 	JMP  0x00
000026 940c 0000 	JMP  0x00
000028 940c 0000 	JMP  0x00
00002a 940c 0000 	JMP  0x00
00002c 940c 0000 	JMP  0x00
00002e 940c 0000 	JMP  0x00
000030 940c 0000 	JMP  0x00
000032 940c 0000 	JMP  0x00
000034 940c 0000 	JMP  0x00
000036 940c 0000 	JMP  0x00
000038 940c 0000 	JMP  0x00
00003a 940c 0000 	JMP  0x00
00003c 940c 0c27 	JMP  _usart1_rx_isr
00003e 940c 0000 	JMP  0x00
000040 940c 0c72 	JMP  _usart1_tx_isr
000042 940c 0000 	JMP  0x00
000044 940c 0000 	JMP  0x00
                 
                 _font5x7:
000046 0705
000047 6020
000048 0000
000049 0000      	.DB  0x5,0x7,0x20,0x60,0x0,0x0,0x0,0x0
00004a 0000
00004b 5f00
00004c 0000
00004d 0700      	.DB  0x0,0x0,0x0,0x5F,0x0,0x0,0x0,0x7
00004e 0700
00004f 1400
000050 147f
000051 147f      	.DB  0x0,0x7,0x0,0x14,0x7F,0x14,0x7F,0x14
000052 2a24
000053 2a7f
000054 2312
000055 0813      	.DB  0x24,0x2A,0x7F,0x2A,0x12,0x23,0x13,0x8
000056 6264
000057 4936
000058 2255
000059 0050      	.DB  0x64,0x62,0x36,0x49,0x55,0x22,0x50,0x0
00005a 0305
00005b 0000
00005c 1c00
00005d 4122      	.DB  0x5,0x3,0x0,0x0,0x0,0x1C,0x22,0x41
00005e 0000
00005f 2241
000060 001c
000061 2a08      	.DB  0x0,0x0,0x41,0x22,0x1C,0x0,0x8,0x2A
000062 2a1c
000063 0808
000064 3e08
000065 0808      	.DB  0x1C,0x2A,0x8,0x8,0x8,0x3E,0x8,0x8
000066 5000
000067 0030
000068 0800
000069 0808      	.DB  0x0,0x50,0x30,0x0,0x0,0x8,0x8,0x8
00006a 0808
00006b 3000
00006c 0030
00006d 2000      	.DB  0x8,0x8,0x0,0x30,0x30,0x0,0x0,0x20
00006e 0810
00006f 0204
000070 513e
000071 4549      	.DB  0x10,0x8,0x4,0x2,0x3E,0x51,0x49,0x45
000072 003e
000073 7f42
000074 0040
000075 6142      	.DB  0x3E,0x0,0x42,0x7F,0x40,0x0,0x42,0x61
000076 4951
000077 2146
000078 4541
000079 314b      	.DB  0x51,0x49,0x46,0x21,0x41,0x45,0x4B,0x31
00007a 1418
00007b 7f12
00007c 2710
00007d 4545      	.DB  0x18,0x14,0x12,0x7F,0x10,0x27,0x45,0x45
00007e 3945
00007f 4a3c
000080 4949
000081 0130      	.DB  0x45,0x39,0x3C,0x4A,0x49,0x49,0x30,0x1
000082 0971
000083 0305
000084 4936
000085 4949      	.DB  0x71,0x9,0x5,0x3,0x36,0x49,0x49,0x49
000086 0636
000087 4949
000088 1e29
000089 3600      	.DB  0x36,0x6,0x49,0x49,0x29,0x1E,0x0,0x36
00008a 0036
00008b 0000
00008c 3656
00008d 0000      	.DB  0x36,0x0,0x0,0x0,0x56,0x36,0x0,0x0
00008e 0800
00008f 2214
000090 1441
000091 1414      	.DB  0x0,0x8,0x14,0x22,0x41,0x14,0x14,0x14
000092 1414
000093 2241
000094 0814
000095 0200      	.DB  0x14,0x14,0x41,0x22,0x14,0x8,0x0,0x2
000096 5101
000097 0609
000098 4932
000099 4179      	.DB  0x1,0x51,0x9,0x6,0x32,0x49,0x79,0x41
00009a 7e3e
00009b 1111
00009c 7e11
00009d 497f      	.DB  0x3E,0x7E,0x11,0x11,0x11,0x7E,0x7F,0x49
00009e 4949
00009f 3e36
0000a0 4141
0000a1 2241      	.DB  0x49,0x49,0x36,0x3E,0x41,0x41,0x41,0x22
0000a2 417f
0000a3 2241
0000a4 7f1c
0000a5 4949      	.DB  0x7F,0x41,0x41,0x22,0x1C,0x7F,0x49,0x49
0000a6 4149
0000a7 097f
0000a8 0109
0000a9 3e01      	.DB  0x49,0x41,0x7F,0x9,0x9,0x1,0x1,0x3E
0000aa 4141
0000ab 3251
0000ac 087f
0000ad 0808      	.DB  0x41,0x41,0x51,0x32,0x7F,0x8,0x8,0x8
0000ae 007f
0000af 7f41
0000b0 0041
0000b1 4020      	.DB  0x7F,0x0,0x41,0x7F,0x41,0x0,0x20,0x40
0000b2 3f41
0000b3 7f01
0000b4 1408
0000b5 4122      	.DB  0x41,0x3F,0x1,0x7F,0x8,0x14,0x22,0x41
0000b6 407f
0000b7 4040
0000b8 7f40
0000b9 0402      	.DB  0x7F,0x40,0x40,0x40,0x40,0x7F,0x2,0x4
0000ba 7f02
0000bb 047f
0000bc 1008
0000bd 3e7f      	.DB  0x2,0x7F,0x7F,0x4,0x8,0x10,0x7F,0x3E
0000be 4141
0000bf 3e41
0000c0 097f
0000c1 0909      	.DB  0x41,0x41,0x41,0x3E,0x7F,0x9,0x9,0x9
0000c2 3e06
0000c3 5141
0000c4 5e21
0000c5 097f      	.DB  0x6,0x3E,0x41,0x51,0x21,0x5E,0x7F,0x9
0000c6 2919
0000c7 4646
0000c8 4949
0000c9 3149      	.DB  0x19,0x29,0x46,0x46,0x49,0x49,0x49,0x31
0000ca 0101
0000cb 017f
0000cc 3f01
0000cd 4040      	.DB  0x1,0x1,0x7F,0x1,0x1,0x3F,0x40,0x40
0000ce 3f40
0000cf 201f
0000d0 2040
0000d1 7f1f      	.DB  0x40,0x3F,0x1F,0x20,0x40,0x20,0x1F,0x7F
0000d2 1820
0000d3 7f20
0000d4 1463
0000d5 1408      	.DB  0x20,0x18,0x20,0x7F,0x63,0x14,0x8,0x14
0000d6 0363
0000d7 7804
0000d8 0304
0000d9 5161      	.DB  0x63,0x3,0x4,0x78,0x4,0x3,0x61,0x51
0000da 4549
0000db 0043
0000dc 7f00
0000dd 4141      	.DB  0x49,0x45,0x43,0x0,0x0,0x7F,0x41,0x41
0000de 0402
0000df 1008
0000e0 4120
0000e1 7f41      	.DB  0x2,0x4,0x8,0x10,0x20,0x41,0x41,0x7F
0000e2 0000
0000e3 0204
0000e4 0201
0000e5 4004      	.DB  0x0,0x0,0x4,0x2,0x1,0x2,0x4,0x40
0000e6 4040
0000e7 4040
0000e8 0100
0000e9 0402      	.DB  0x40,0x40,0x40,0x40,0x0,0x1,0x2,0x4
0000ea 2000
0000eb 5454
0000ec 7854
0000ed 487f      	.DB  0x0,0x20,0x54,0x54,0x54,0x78,0x7F,0x48
0000ee 4444
0000ef 3838
0000f0 4444
0000f1 2044      	.DB  0x44,0x44,0x38,0x38,0x44,0x44,0x44,0x20
0000f2 4438
0000f3 4844
0000f4 387f
0000f5 5454      	.DB  0x38,0x44,0x44,0x48,0x7F,0x38,0x54,0x54
0000f6 1854
0000f7 7e08
0000f8 0109
0000f9 0802      	.DB  0x54,0x18,0x8,0x7E,0x9,0x1,0x2,0x8
0000fa 5414
0000fb 3c54
0000fc 087f
0000fd 0404      	.DB  0x14,0x54,0x54,0x3C,0x7F,0x8,0x4,0x4
0000fe 0078
0000ff 7d44
000100 0040
000101 4020      	.DB  0x78,0x0,0x44,0x7D,0x40,0x0,0x20,0x40
000102 3d44
000103 0000
000104 107f
000105 4428      	.DB  0x44,0x3D,0x0,0x0,0x7F,0x10,0x28,0x44
000106 4100
000107 407f
000108 7c00
000109 1804      	.DB  0x0,0x41,0x7F,0x40,0x0,0x7C,0x4,0x18
00010a 7804
00010b 087c
00010c 0404
00010d 3878      	.DB  0x4,0x78,0x7C,0x8,0x4,0x4,0x78,0x38
00010e 4444
00010f 3844
000110 147c
000111 1414      	.DB  0x44,0x44,0x44,0x38,0x7C,0x14,0x14,0x14
000112 0808
000113 1414
000114 7c18
000115 087c      	.DB  0x8,0x8,0x14,0x14,0x18,0x7C,0x7C,0x8
000116 0404
000117 4808
000118 5454
000119 2054      	.DB  0x4,0x4,0x8,0x48,0x54,0x54,0x54,0x20
00011a 3f04
00011b 4044
00011c 3c20
00011d 4040      	.DB  0x4,0x3F,0x44,0x40,0x20,0x3C,0x40,0x40
00011e 7c20
00011f 201c
000120 2040
000121 3c1c      	.DB  0x20,0x7C,0x1C,0x20,0x40,0x20,0x1C,0x3C
000122 3040
000123 3c40
000124 2844
000125 2810      	.DB  0x40,0x30,0x40,0x3C,0x44,0x28,0x10,0x28
000126 0c44
000127 5050
000128 3c50
000129 6444      	.DB  0x44,0xC,0x50,0x50,0x50,0x3C,0x44,0x64
00012a 4c54
00012b 0044
00012c 3608
00012d 0041      	.DB  0x54,0x4C,0x44,0x0,0x8,0x36,0x41,0x0
00012e 0000
00012f 007f
000130 0000
000131 3641      	.DB  0x0,0x0,0x7F,0x0,0x0,0x0,0x41,0x36
000132 0008
000133 0102
000134 0402
000135 7f02      	.DB  0x8,0x0,0x2,0x1,0x2,0x4,0x2,0x7F
000136 4141
000137 7f41      	.DB  0x41,0x41,0x41,0x7F
                 _big_letter_10x14:
000138 0e00
000139 2b30
00013a 0a0a
00013b 0a0a      	.DB  0x0,0xE,0x30,0x2B,0xA,0xA,0xA,0xA
00013c 0a0a
00013d 0a0a
00013e 0a0a
00013f 0a0a      	.DB  0xA,0xA,0xA,0xA,0xA,0xA,0xA,0xA
000140 0a0a
000141 0a0a
000142 0a09
000143 0a0a      	.DB  0xA,0xA,0xA,0xA,0x9,0xA,0xA,0xA
000144 0a0a
000145 0a0a
000146 0a0a
000147 0a0a      	.DB  0xA,0xA,0xA,0xA,0xA,0xA,0xA,0xA
000148 0a0a
000149 0a0a
00014a 0a0a
00014b 0a0a      	.DB  0xA,0xA,0xA,0xA,0xA,0xA,0xA,0xA
00014c 0a0a
00014d 0a0a
00014e 0a0a
00014f 000a      	.DB  0xA,0xA,0xA,0xA,0xA,0xA,0xA,0x0
000150 fefc
000151 0303
000152 0303
000153 fcfe      	.DB  0xFC,0xFE,0x3,0x3,0x3,0x3,0xFE,0xFC
000154 0000
000155 1f0f
000156 3030
000157 3030      	.DB  0x0,0x0,0xF,0x1F,0x30,0x30,0x30,0x30
000158 0f1f
000159 0000
00015a 0c18
00015b ff06      	.DB  0x1F,0xF,0x0,0x0,0x18,0xC,0x6,0xFF
00015c 00ff
00015d 0000
00015e 0000
00015f 3030      	.DB  0xFF,0x0,0x0,0x0,0x0,0x0,0x30,0x30
000160 3f30
000161 303f
000162 3030
000163 0000      	.DB  0x30,0x3F,0x3F,0x30,0x30,0x30,0x0,0x0
000164 0e0c
000165 0303
000166 c383
000167 3c7e      	.DB  0xC,0xE,0x3,0x3,0x83,0xC3,0x7E,0x3C
000168 0000
000169 3c38
00016a 3336
00016b 3031      	.DB  0x0,0x0,0x38,0x3C,0x36,0x33,0x31,0x30
00016c 3030
00016d 0000
00016e 0e0c
00016f c3c3      	.DB  0x30,0x30,0x0,0x0,0xC,0xE,0xC3,0xC3
000170 c3c3
000171 3cfe
000172 0000
000173 1c0c      	.DB  0xC3,0xC3,0xFE,0x3C,0x0,0x0,0xC,0x1C
000174 3030
000175 3030
000176 0f1f
000177 0000      	.DB  0x30,0x30,0x30,0x30,0x1F,0xF,0x0,0x0
000178 e0c0
000179 98b0
00017a 868c
00017b ffff      	.DB  0xC0,0xE0,0xB0,0x98,0x8C,0x86,0xFF,0xFF
00017c 0080
00017d 0101
00017e 0101
00017f 0101      	.DB  0x80,0x0,0x1,0x1,0x1,0x1,0x1,0x1
000180 3f3f
000181 0001
000182 7f7f
000183 6363      	.DB  0x3F,0x3F,0x1,0x0,0x7F,0x7F,0x63,0x63
000184 6363
000185 83c3
000186 0000
000187 1c0c      	.DB  0x63,0x63,0xC3,0x83,0x0,0x0,0xC,0x1C
000188 3030
000189 3030
00018a 0f1f
00018b 0000      	.DB  0x30,0x30,0x30,0x30,0x1F,0xF,0x0,0x0
00018c fefc
00018d c3c3
00018e c3c3
00018f 0c8e      	.DB  0xFC,0xFE,0xC3,0xC3,0xC3,0xC3,0x8E,0xC
000190 0000
000191 1f0f
000192 3030
000193 3030      	.DB  0x0,0x0,0xF,0x1F,0x30,0x30,0x30,0x30
000194 0f1f
000195 0000
000196 0303
000197 0303      	.DB  0x1F,0xF,0x0,0x0,0x3,0x3,0x3,0x3
000198 f3c3
000199 0f3f
00019a 0000
00019b 0000      	.DB  0xC3,0xF3,0x3F,0xF,0x0,0x0,0x0,0x0
00019c 3e00
00019d 033f
00019e 0000
00019f 0000      	.DB  0x0,0x3E,0x3F,0x3,0x0,0x0,0x0,0x0
0001a0 fe3c
0001a1 c3c3
0001a2 c3c3
0001a3 3cfe      	.DB  0x3C,0xFE,0xC3,0xC3,0xC3,0xC3,0xFE,0x3C
0001a4 0000
0001a5 1f0f
0001a6 3030
0001a7 3030      	.DB  0x0,0x0,0xF,0x1F,0x30,0x30,0x30,0x30
0001a8 0f1f
0001a9 0000
0001aa 7e3c
0001ab c3c3      	.DB  0x1F,0xF,0x0,0x0,0x3C,0x7E,0xC3,0xC3
0001ac c3c3
0001ad fcfe
0001ae 0000
0001af 1c0c      	.DB  0xC3,0xC3,0xFE,0xFC,0x0,0x0,0xC,0x1C
0001b0 3030
0001b1 3030
0001b2 0f1f
0001b3 0000      	.DB  0x30,0x30,0x30,0x30,0x1F,0xF,0x0,0x0
0001b4 0000
0001b5 3c18
0001b6 183c
0001b7 0000      	.DB  0x0,0x0,0x18,0x3C,0x3C,0x18,0x0,0x0
0001b8 0000
0001b9 0000
0001ba 1e0c
0001bb 0c1e      	.DB  0x0,0x0,0x0,0x0,0xC,0x1E,0x1E,0xC
0001bc 0000
0001bd 0000
0001be 0000
0001bf 0000      	.DB  0x0,0x0,0x0,0x0,0x0,0x0,0x0,0x0
0001c0 0000
0001c1 0000
0001c2 0000
0001c3 0000      	.DB  0x0,0x0,0x0,0x0,0x0,0x0,0x0,0x0
0001c4 0000
0001c5 0000
0001c6 0000
0001c7 0000      	.DB  0x0,0x0,0x0,0x0,0x0,0x0,0x0,0x0
0001c8 0000
0001c9 0000
0001ca 0000
0001cb 0000      	.DB  0x0,0x0,0x0,0x0,0x0,0x0,0x0,0x0
0001cc 0000
0001cd 0000
0001ce 0000
0001cf 0000      	.DB  0x0,0x0,0x0,0x0,0x0,0x0,0x0,0x0
0001d0 0000
0001d1 0000
0001d2 0000
0001d3 0000      	.DB  0x0,0x0,0x0,0x0,0x0,0x0,0x0,0x0
0001d4 0000
0001d5 0000
0001d6 0000
0001d7 0000      	.DB  0x0,0x0,0x0,0x0,0x0,0x0,0x0,0x0
0001d8 0000
0001d9 0000
0001da 0000
0001db 0000      	.DB  0x0,0x0,0x0,0x0,0x0,0x0,0x0,0x0
0001dc 0000
0001dd 0000
0001de 0000
0001df 0000      	.DB  0x0,0x0,0x0,0x0,0x0,0x0,0x0,0x0
0001e0 0000
0001e1 0000
0001e2 0000
0001e3 0000      	.DB  0x0,0x0,0x0,0x0,0x0,0x0,0x0,0x0
0001e4 0000
0001e5 0000
0001e6 0000
0001e7 0000      	.DB  0x0,0x0,0x0,0x0,0x0,0x0,0x0,0x0
0001e8 0000
0001e9 0000
0001ea 0000
0001eb 0000      	.DB  0x0,0x0,0x0,0x0,0x0,0x0,0x0,0x0
0001ec 0000
0001ed 0000
0001ee 0000
0001ef 2000      	.DB  0x0,0x0,0x0,0x0,0x0,0x0,0x0,0x20
0001f0 e060
0001f1 e0e0
0001f2 e0e0
0001f3 2060      	.DB  0x60,0xE0,0xE0,0xE0,0xE0,0xE0,0x60,0x20
0001f4 0000
0001f5 0100
0001f6 0103
0001f7 0000      	.DB  0x0,0x0,0x0,0x1,0x3,0x1,0x0,0x0
0001f8 fc00
0001f9 83fe
0001fa 8383
0001fb 8383      	.DB  0x0,0xFC,0xFE,0x83,0x83,0x83,0x83,0x83
0001fc fe83
0001fd 3ffc
0001fe 013f
0001ff 0101      	.DB  0x83,0xFE,0xFC,0x3F,0x3F,0x1,0x1,0x1
000200 0101
000201 3f01
000202 ff3f
000203 c3ff      	.DB  0x1,0x1,0x1,0x3F,0x3F,0xFF,0xFF,0xC3
000204 c3c3
000205 c3c3
000206 fec3
000207 3f3c      	.DB  0xC3,0xC3,0xC3,0xC3,0xC3,0xFE,0x3C,0x3F
000208 303f
000209 3030
00020a 3030
00020b 1f30      	.DB  0x3F,0x30,0x30,0x30,0x30,0x30,0x30,0x1F
00020c f80f
00020d 06fc
00020e 0303
00020f 0303      	.DB  0xF,0xF8,0xFC,0x6,0x3,0x3,0x3,0x3
000210 0e03
000211 070c
000212 180f
000213 3030      	.DB  0x3,0xE,0xC,0x7,0xF,0x18,0x30,0x30
000214 3030
000215 1c30
000216 ff0c
000217 03ff      	.DB  0x30,0x30,0x30,0x1C,0xC,0xFF,0xFF,0x3
000218 0303
000219 0303
00021a fc06
00021b 3ff8      	.DB  0x3,0x3,0x3,0x3,0x6,0xFC,0xF8,0x3F
00021c 303f
00021d 3030
00021e 3030
00021f 0f18      	.DB  0x3F,0x30,0x30,0x30,0x30,0x30,0x18,0xF
000220 ff07
000221 c3ff
000222 c3c3
000223 c3c3      	.DB  0x7,0xFF,0xFF,0xC3,0xC3,0xC3,0xC3,0xC3
000224 c3c3
000225 3f03
000226 303f
000227 3030      	.DB  0xC3,0xC3,0x3,0x3F,0x3F,0x30,0x30,0x30
000228 3030
000229 3030
00022a ff30
00022b c3ff      	.DB  0x30,0x30,0x30,0x30,0x30,0xFF,0xFF,0xC3
00022c c3c3
00022d c3c3
00022e 0303
00022f 3f03      	.DB  0xC3,0xC3,0xC3,0xC3,0x3,0x3,0x3,0x3F
000230 003f
000231 0000
000232 0000
000233 0000      	.DB  0x3F,0x0,0x0,0x0,0x0,0x0,0x0,0x0
000234 f800
000235 06fc
000236 0303
000237 8303      	.DB  0x0,0xF8,0xFC,0x6,0x3,0x3,0x3,0x83
000238 8c8e
000239 0780
00023a 180f
00023b 3030      	.DB  0x8E,0x8C,0x80,0x7,0xF,0x18,0x30,0x30
00023c 3130
00023d 1f3f
00023e ff01
00023f c0ff      	.DB  0x30,0x31,0x3F,0x1F,0x1,0xFF,0xFF,0xC0
000240 c0c0
000241 c0c0
000242 ffc0
000243 3fff      	.DB  0xC0,0xC0,0xC0,0xC0,0xC0,0xFF,0xFF,0x3F
000244 003f
000245 0000
000246 0000
000247 3f00      	.DB  0x3F,0x0,0x0,0x0,0x0,0x0,0x0,0x3F
000248 003f
000249 0300
00024a ff03
00024b 03ff      	.DB  0x3F,0x0,0x0,0x3,0x3,0xFF,0xFF,0x3
00024c 0003
00024d 0000
00024e 3000
00024f 3f30      	.DB  0x3,0x0,0x0,0x0,0x0,0x30,0x30,0x3F
000250 303f
000251 0030
000252 0000
000253 0000      	.DB  0x3F,0x30,0x30,0x0,0x0,0x0,0x0,0x0
000254 0303
000255 ffff
000256 0303
000257 0c00      	.DB  0x3,0x3,0xFF,0xFF,0x3,0x3,0x0,0xC
000258 301c
000259 3030
00025a 0f1f
00025b 0000      	.DB  0x1C,0x30,0x30,0x30,0x1F,0xF,0x0,0x0
00025c ff00
00025d c0ff
00025e 30e0
00025f 0c18      	.DB  0x0,0xFF,0xFF,0xC0,0xE0,0x30,0x18,0xC
000260 0306
000261 3f01
000262 003f
000263 0301      	.DB  0x6,0x3,0x1,0x3F,0x3F,0x0,0x1,0x3
000264 0c06
000265 3018
000266 ff20
000267 00ff      	.DB  0x6,0xC,0x18,0x30,0x20,0xFF,0xFF,0x0
000268 0000
000269 0000
00026a 0000
00026b 3f00      	.DB  0x0,0x0,0x0,0x0,0x0,0x0,0x0,0x3F
00026c 303f
00026d 3030
00026e 3030
00026f 3030      	.DB  0x3F,0x30,0x30,0x30,0x30,0x30,0x30,0x30
000270 ff30
000271 1cff
000272 c070
000273 70c0      	.DB  0x30,0xFF,0xFF,0x1C,0x70,0xC0,0xC0,0x70
000274 ff1c
000275 3fff
000276 003f
000277 0100      	.DB  0x1C,0xFF,0xFF,0x3F,0x3F,0x0,0x0,0x1
000278 0001
000279 3f00
00027a ff3f
00027b 0eff      	.DB  0x1,0x0,0x0,0x3F,0x3F,0xFF,0xFF,0xE
00027c e038
00027d 0080
00027e ff00
00027f 3fff      	.DB  0x38,0xE0,0x80,0x0,0x0,0xFF,0xFF,0x3F
000280 003f
000281 0000
000282 0e03
000283 3f18      	.DB  0x3F,0x0,0x0,0x0,0x3,0xE,0x18,0x3F
000284 f83f
000285 06fc
000286 0303
000287 0303      	.DB  0x3F,0xF8,0xFC,0x6,0x3,0x3,0x3,0x3
000288 fc06
000289 07f8
00028a 180f
00028b 3030      	.DB  0x6,0xFC,0xF8,0x7,0xF,0x18,0x30,0x30
00028c 3030
00028d 0f18
00028e ff07
00028f c3ff      	.DB  0x30,0x30,0x18,0xF,0x7,0xFF,0xFF,0xC3
000290 c3c3
000291 c3c3
000292 7ee7
000293 3f3c      	.DB  0xC3,0xC3,0xC3,0xC3,0xE7,0x7E,0x3C,0x3F
000294 003f
000295 0000
000296 0000
000297 0000      	.DB  0x3F,0x0,0x0,0x0,0x0,0x0,0x0,0x0
000298 f800
000299 06fc
00029a 0303
00029b 0303      	.DB  0x0,0xF8,0xFC,0x6,0x3,0x3,0x3,0x3
00029c fc06
00029d 07f8
00029e 180f
00029f 3030      	.DB  0x6,0xFC,0xF8,0x7,0xF,0x18,0x30,0x30
0002a0 3c34
0002a1 3f18
0002a2 ff27
0002a3 c3ff      	.DB  0x34,0x3C,0x18,0x3F,0x27,0xFF,0xFF,0xC3
0002a4 c3c3
0002a5 e7c3
0002a6 3c7e
0002a7 3f00      	.DB  0xC3,0xC3,0xC3,0xE7,0x7E,0x3C,0x0,0x3F
0002a8 013f
0002a9 0703
0002aa 1c0e
0002ab 3038      	.DB  0x3F,0x1,0x3,0x7,0xE,0x1C,0x38,0x30
0002ac 3c20
0002ad c37e
0002ae c3c3
0002af c3c3      	.DB  0x20,0x3C,0x7E,0xC3,0xC3,0xC3,0xC3,0xC3
0002b0 8ec3
0002b1 0c0c
0002b2 301c
0002b3 3030      	.DB  0xC3,0x8E,0xC,0xC,0x1C,0x30,0x30,0x30
0002b4 3030
0002b5 1f30
0002b6 030f
0002b7 0303      	.DB  0x30,0x30,0x30,0x1F,0xF,0x3,0x3,0x3
0002b8 ff03
0002b9 03ff
0002ba 0303
0002bb 0003      	.DB  0x3,0xFF,0xFF,0x3,0x3,0x3,0x3,0x0
0002bc 0000
0002bd 3f00
0002be 003f
0002bf 0000      	.DB  0x0,0x0,0x0,0x3F,0x3F,0x0,0x0,0x0
0002c0 ff00
0002c1 00ff
0002c2 0000
0002c3 0000      	.DB  0x0,0xFF,0xFF,0x0,0x0,0x0,0x0,0x0
0002c4 ff00
0002c5 0fff
0002c6 301f
0002c7 3030      	.DB  0x0,0xFF,0xFF,0xF,0x1F,0x30,0x30,0x30
0002c8 3030
0002c9 1f30
0002ca ff0f
0002cb 00ff      	.DB  0x30,0x30,0x30,0x1F,0xF,0xFF,0xFF,0x0
0002cc 0000
0002cd 0000
0002ce ff00
0002cf 03ff      	.DB  0x0,0x0,0x0,0x0,0x0,0xFF,0xFF,0x3
0002d0 0c07
0002d1 3018
0002d2 1830
0002d3 070c      	.DB  0x7,0xC,0x18,0x30,0x30,0x18,0xC,0x7
0002d4 ff03
0002d5 00ff
0002d6 e080
0002d7 80e0      	.DB  0x3,0xFF,0xFF,0x0,0x80,0xE0,0xE0,0x80
0002d8 ff00
0002d9 3fff
0002da 0e3f
0002db 0003      	.DB  0x0,0xFF,0xFF,0x3F,0x3F,0xE,0x3,0x0
0002dc 0300
0002dd 3f0e
0002de 0f3f
0002df b01f      	.DB  0x0,0x3,0xE,0x3F,0x3F,0xF,0x1F,0xB0
0002e0 c0e0
0002e1 e0c0
0002e2 1fb0
0002e3 3e0f      	.DB  0xE0,0xC0,0xC0,0xE0,0xB0,0x1F,0xF,0x3E
0002e4 033f
0002e5 0001
0002e6 0100
0002e7 3f03      	.DB  0x3F,0x3,0x1,0x0,0x0,0x1,0x3,0x3F
0002e8 1f3e
0002e9 603f
0002ea 80c0
0002eb c080      	.DB  0x3E,0x1F,0x3F,0x60,0xC0,0x80,0x80,0xC0
0002ec 3f60
0002ed 001f
0002ee 0000
0002ef 3f00      	.DB  0x60,0x3F,0x1F,0x0,0x0,0x0,0x0,0x3F
0002f0 003f
0002f1 0000
0002f2 0300
0002f3 0303      	.DB  0x3F,0x0,0x0,0x0,0x0,0x3,0x3,0x3
0002f4 c383
0002f5 3363
0002f6 0f1b
0002f7 3c07      	.DB  0x83,0xC3,0x63,0x33,0x1B,0xF,0x7,0x3C
0002f8 333e
0002f9 3031
0002fa 3030
0002fb 3030      	.DB  0x3E,0x33,0x31,0x30,0x30,0x30,0x30,0x30
C:\Users\presa\Desktop\Center_01.05.2018_phone_number_fixed\Debug\List\1.asm(1320): warning: .cseg .db misalignment - padding zero byte
0002fc 0030      	.DB  0x30
                 _tiny_letter:
0002fd 0500
0002fe 3b20
0002ff 0401
000300 0403      	.DB  0x0,0x5,0x20,0x3B,0x1,0x4,0x3,0x4
000301 0404
000302 0404
000303 0404
000304 0404      	.DB  0x4,0x4,0x4,0x4,0x4,0x4,0x4,0x4
000305 0404
000306 0404
000307 0304
000308 0404      	.DB  0x4,0x4,0x4,0x4,0x4,0x3,0x4,0x4
000309 0404
00030a 0404
00030b 0404
00030c 0403      	.DB  0x4,0x4,0x4,0x4,0x4,0x4,0x3,0x4
00030d 0404
00030e 0404
00030f 0404
000310 0404      	.DB  0x4,0x4,0x4,0x4,0x4,0x4,0x4,0x4
000311 0404
000312 0404
000313 0104
000314 0404      	.DB  0x4,0x4,0x4,0x4,0x4,0x1,0x4,0x4
000315 0503
000316 0404
000317 0404
000318 0404      	.DB  0x3,0x5,0x4,0x4,0x4,0x4,0x4,0x4
000319 0403
00031a 0504
00031b 0304
00031c 0003      	.DB  0x3,0x4,0x4,0x5,0x4,0x3,0x3,0x0
00031d 0000
00031e 0000
00031f 0000
000320 0000      	.DB  0x0,0x0,0x0,0x0,0x0,0x0,0x0,0x0
000321 0000
000322 0000
000323 0000
000324 0000      	.DB  0x0,0x0,0x0,0x0,0x0,0x0,0x0,0x0
000325 0000
000326 0000
000327 0000
000328 0000      	.DB  0x0,0x0,0x0,0x0,0x0,0x0,0x0,0x0
000329 0000
00032a 0000
00032b 0000
00032c 0000      	.DB  0x0,0x0,0x0,0x0,0x0,0x0,0x0,0x0
00032d 0000
00032e 0000
00032f 0000
000330 0000      	.DB  0x0,0x0,0x0,0x0,0x0,0x0,0x0,0x0
000331 0000
000332 0000
000333 0000
000334 0000      	.DB  0x0,0x0,0x0,0x0,0x0,0x0,0x0,0x0
000335 0000
000336 0000
000337 0000
000338 1800      	.DB  0x0,0x0,0x0,0x0,0x0,0x0,0x0,0x18
000339 0106
00033a 0e00
00033b 1111
00033c 120e      	.DB  0x6,0x1,0x0,0xE,0x11,0x11,0xE,0x12
00033d 101f
00033e 1519
00033f 1215
000340 1511      	.DB  0x1F,0x10,0x19,0x15,0x15,0x12,0x11,0x15
000341 0a15
000342 0a0c
000343 081f
000344 1517      	.DB  0x15,0xA,0xC,0xA,0x1F,0x8,0x17,0x15
000345 0915
000346 150e
000347 0815
000348 1901      	.DB  0x15,0x9,0xE,0x15,0x15,0x8,0x1,0x19
000349 0305
00034a 150a
00034b 0a15
00034c 1502      	.DB  0x5,0x3,0xA,0x15,0x15,0xA,0x2,0x15
00034d 0e15
00034e 0a00
00034f 0000
000350 0a10      	.DB  0x15,0xE,0x0,0xA,0x0,0x0,0x10,0xA
000351 0400
000352 110a
000353 0a00
000354 0a0a      	.DB  0x0,0x4,0xA,0x11,0x0,0xA,0xA,0xA
000355 000a
000356 0a11
000357 0004
000358 1501      	.DB  0xA,0x0,0x11,0xA,0x4,0x0,0x1,0x15
000359 0002
00035a 0000
00035b 1e00
00035c 0505      	.DB  0x2,0x0,0x0,0x0,0x0,0x1E,0x5,0x5
00035d 1f1e
00035e 1515
00035f 0e0a
000360 1111      	.DB  0x1E,0x1F,0x15,0x15,0xA,0xE,0x11,0x11
000361 1f0a
000362 1111
000363 1f0e
000364 1515      	.DB  0xA,0x1F,0x11,0x11,0xE,0x1F,0x15,0x15
000365 1f11
000366 0505
000367 0e01
000368 1911      	.DB  0x11,0x1F,0x5,0x5,0x1,0xE,0x11,0x19
000369 1f0a
00036a 0404
00036b 1f1f
00036c 1108      	.DB  0xA,0x1F,0x4,0x4,0x1F,0x1F,0x8,0x11
00036d 010f
00036e 041f
00036f 110a
000370 101f      	.DB  0xF,0x1,0x1F,0x4,0xA,0x11,0x1F,0x10
000371 1f10
000372 0402
000373 1f02
000374 021f      	.DB  0x10,0x1F,0x2,0x4,0x2,0x1F,0x1F,0x2
000375 1f04
000376 110e
000377 0e11
000378 051f      	.DB  0x4,0x1F,0xE,0x11,0x11,0xE,0x1F,0x5
000379 0205
00037a 110e
00037b 1e19
00037c 051f      	.DB  0x5,0x2,0xE,0x11,0x19,0x1E,0x1F,0x5
00037d 120d
00037e 1512
00037f 0915
000380 1f01      	.DB  0xD,0x12,0x12,0x15,0x15,0x9,0x1,0x1F
000381 0f01
000382 1010
000383 070f
000384 1818      	.DB  0x1,0xF,0x10,0x10,0xF,0x7,0x18,0x18
000385 1f07
000386 0408
000387 1f08
000388 041b      	.DB  0x7,0x1F,0x8,0x4,0x8,0x1F,0x1B,0x4
000389 1b04
00038a 1c03
00038b 1903
00038c 1315      	.DB  0x4,0x1B,0x3,0x1C,0x3,0x19,0x15,0x13
                 _relay_icon_7x7:
00038d 0707
00038e 0230
00038f 221c
000390 4141      	.DB  0x7,0x7,0x30,0x2,0x1C,0x22,0x41,0x41
000391 2241
000392 1c1c
000393 7f3e
000394 7f7f      	.DB  0x41,0x22,0x1C,0x1C,0x3E,0x7F,0x7F,0x7F
000395 1c3e      	.DB  0x3E,0x1C
                 _relay_icon_10x14:
000396 0e0a
000397 0230
000398 f0e0
000399 0c18      	.DB  0xA,0xE,0x30,0x2,0xE0,0xF0,0x18,0xC
00039a 0c0c
00039b 180c
00039c e0f0
00039d 0703      	.DB  0xC,0xC,0xC,0x18,0xF0,0xE0,0x3,0x7
00039e 180c
00039f 1818
0003a0 0c18
0003a1 0307      	.DB  0xC,0x18,0x18,0x18,0x18,0xC,0x7,0x3
0003a2 f0e0
0003a3 fcf8
0003a4 fcfc
0003a5 f8fc      	.DB  0xE0,0xF0,0xF8,0xFC,0xFC,0xFC,0xFC,0xF8
0003a6 e0f0
0003a7 0703
0003a8 1f0f
0003a9 1f1f      	.DB  0xF0,0xE0,0x3,0x7,0xF,0x1F,0x1F,0x1F
0003aa 0f1f
0003ab 0307      	.DB  0x1F,0xF,0x7,0x3
                 _phone_signal_10x5:
0003ac 0500
0003ad 0730
0003ae 090a
0003af 0909      	.DB  0x0,0x5,0x30,0x7,0xA,0x9,0x9,0x9
0003b0 0909
0003b1 050a
0003b2 0512
0003b3 0018      	.DB  0x9,0x9,0xA,0x5,0x12,0x5,0x18,0x0
0003b4 001c
0003b5 001e
0003b6 101f
0003b7 0000      	.DB  0x1C,0x0,0x1E,0x0,0x1F,0x10,0x0,0x0
0003b8 0000
0003b9 0000
0003ba 0000
0003bb 0010      	.DB  0x0,0x0,0x0,0x0,0x0,0x0,0x10,0x0
0003bc 0018
0003bd 0000
0003be 0000
0003bf 1000      	.DB  0x18,0x0,0x0,0x0,0x0,0x0,0x0,0x10
0003c0 1800
0003c1 1c00
0003c2 0000
0003c3 0000      	.DB  0x0,0x18,0x0,0x1C,0x0,0x0,0x0,0x0
0003c4 0010
0003c5 0018
0003c6 001c
0003c7 001e      	.DB  0x10,0x0,0x18,0x0,0x1C,0x0,0x1E,0x0
0003c8 1000
0003c9 1800
0003ca 1c00
0003cb 1e00      	.DB  0x0,0x10,0x0,0x18,0x0,0x1C,0x0,0x1E
0003cc 1f00
0003cd 0000
0003ce 0000
0003cf 0000      	.DB  0x0,0x1F,0x0,0x0,0x0,0x0,0x0,0x0
0003d0 0000
0003d1 0000      	.DB  0x0,0x0,0x0,0x0
                 __glcd_mask:
0003d2 0100
0003d3 0703
0003d4 1f0f
0003d5 7f3f      	.DB  0x0,0x1,0x3,0x7,0xF,0x1F,0x3F,0x7F
C:\Users\presa\Desktop\Center_01.05.2018_phone_number_fixed\Debug\List\1.asm(1382): warning: .cseg .db misalignment - padding zero byte
0003d6 00ff      	.DB  0xFF
                 
                 ;REGISTER BIT VARIABLES INITIALIZATION
                 __REG_BIT_VARS:
0003d7 0000      	.DW  0x0000
                 
                 ;GLOBAL REGISTER VARIABLES INITIALIZATION
                 __REG_VARS:
0003d8 0100
0003d9 0101      	.DB  0x0,0x1,0x1,0x1
0003da 000a
0003db 000f      	.DB  0xA,0x0,0xF,0x0
0003dc 0101      	.DB  0x1,0x1
                 
                 _0x3:
0003dd 098c
0003de 098e
0003df 0992
0003e0 0996      	.DB  LOW(_0x0*2),HIGH(_0x0*2),LOW(_0x0*2+2),HIGH(_0x0*2+2),LOW(_0x0*2+6),HIGH(_0x0*2+6),LOW(_0x0*2+10),HIGH(_0x0*2+10)
0003e1 099a
0003e2 099e
0003e3 09a2
0003e4 09a6      	.DB  LOW(_0x0*2+14),HIGH(_0x0*2+14),LOW(_0x0*2+18),HIGH(_0x0*2+18),LOW(_0x0*2+22),HIGH(_0x0*2+22),LOW(_0x0*2+26),HIGH(_0x0*2+26)
                 _0x4:
0003e5 09aa
0003e6 09ac
0003e7 09af
0003e8 09b2      	.DB  LOW(_0x0*2+30),HIGH(_0x0*2+30),LOW(_0x0*2+32),HIGH(_0x0*2+32),LOW(_0x0*2+35),HIGH(_0x0*2+35),LOW(_0x0*2+38),HIGH(_0x0*2+38)
0003e9 09b5
0003ea 09b8
0003eb 09bb
0003ec 09be      	.DB  LOW(_0x0*2+41),HIGH(_0x0*2+41),LOW(_0x0*2+44),HIGH(_0x0*2+44),LOW(_0x0*2+47),HIGH(_0x0*2+47),LOW(_0x0*2+50),HIGH(_0x0*2+50)
0003ed 09c1
0003ee 09c4
0003ef 09c7
0003f0 09ca      	.DB  LOW(_0x0*2+53),HIGH(_0x0*2+53),LOW(_0x0*2+56),HIGH(_0x0*2+56),LOW(_0x0*2+59),HIGH(_0x0*2+59),LOW(_0x0*2+62),HIGH(_0x0*2+62)
0003f1 09cd
0003f2 09d0
0003f3 09d3
0003f4 09d6      	.DB  LOW(_0x0*2+65),HIGH(_0x0*2+65),LOW(_0x0*2+68),HIGH(_0x0*2+68),LOW(_0x0*2+71),HIGH(_0x0*2+71),LOW(_0x0*2+74),HIGH(_0x0*2+74)
0003f5 09d9
0003f6 09dc
0003f7 09df
0003f8 09e2      	.DB  LOW(_0x0*2+77),HIGH(_0x0*2+77),LOW(_0x0*2+80),HIGH(_0x0*2+80),LOW(_0x0*2+83),HIGH(_0x0*2+83),LOW(_0x0*2+86),HIGH(_0x0*2+86)
0003f9 09e5
0003fa 09e8
0003fb 09eb
0003fc 09ee      	.DB  LOW(_0x0*2+89),HIGH(_0x0*2+89),LOW(_0x0*2+92),HIGH(_0x0*2+92),LOW(_0x0*2+95),HIGH(_0x0*2+95),LOW(_0x0*2+98),HIGH(_0x0*2+98)
0003fd 09f1
0003fe 09f4
0003ff 09f7
000400 09fa      	.DB  LOW(_0x0*2+101),HIGH(_0x0*2+101),LOW(_0x0*2+104),HIGH(_0x0*2+104),LOW(_0x0*2+107),HIGH(_0x0*2+107),LOW(_0x0*2+110),HIGH(_0x0*2+110)
000401 09fd
000402 0a00
000403 0a03
000404 0a06      	.DB  LOW(_0x0*2+113),HIGH(_0x0*2+113),LOW(_0x0*2+116),HIGH(_0x0*2+116),LOW(_0x0*2+119),HIGH(_0x0*2+119),LOW(_0x0*2+122),HIGH(_0x0*2+122)
                 _0x5:
000405 0a09
000406 0a0b
000407 0a0f
000408 0a13      	.DB  LOW(_0x0*2+125),HIGH(_0x0*2+125),LOW(_0x0*2+127),HIGH(_0x0*2+127),LOW(_0x0*2+131),HIGH(_0x0*2+131),LOW(_0x0*2+135),HIGH(_0x0*2+135)
000409 0a17
00040a 0a1b
00040b 0a1f
00040c 0a23      	.DB  LOW(_0x0*2+139),HIGH(_0x0*2+139),LOW(_0x0*2+143),HIGH(_0x0*2+143),LOW(_0x0*2+147),HIGH(_0x0*2+147),LOW(_0x0*2+151),HIGH(_0x0*2+151)
00040d 0a27
00040e 0a2b
00040f 0a2f
000410 0a33      	.DB  LOW(_0x0*2+155),HIGH(_0x0*2+155),LOW(_0x0*2+159),HIGH(_0x0*2+159),LOW(_0x0*2+163),HIGH(_0x0*2+163),LOW(_0x0*2+167),HIGH(_0x0*2+167)
000411 0a37      	.DB  LOW(_0x0*2+171),HIGH(_0x0*2+171)
                 _0x6:
000412 0a3b
000413 0a40
000414 0a45
000415 0a4a      	.DB  LOW(_0x0*2+175),HIGH(_0x0*2+175),LOW(_0x0*2+180),HIGH(_0x0*2+180),LOW(_0x0*2+185),HIGH(_0x0*2+185),LOW(_0x0*2+190),HIGH(_0x0*2+190)
000416 0a4f
000417 0a54
000418 0a59
000419 0a5e      	.DB  LOW(_0x0*2+195),HIGH(_0x0*2+195),LOW(_0x0*2+200),HIGH(_0x0*2+200),LOW(_0x0*2+205),HIGH(_0x0*2+205),LOW(_0x0*2+210),HIGH(_0x0*2+210)
00041a 0a63
00041b 0a68
00041c 0a6d
00041d 0a72      	.DB  LOW(_0x0*2+215),HIGH(_0x0*2+215),LOW(_0x0*2+220),HIGH(_0x0*2+220),LOW(_0x0*2+225),HIGH(_0x0*2+225),LOW(_0x0*2+230),HIGH(_0x0*2+230)
00041e 0a77
00041f 0a7c
000420 0a81
000421 0a86      	.DB  LOW(_0x0*2+235),HIGH(_0x0*2+235),LOW(_0x0*2+240),HIGH(_0x0*2+240),LOW(_0x0*2+245),HIGH(_0x0*2+245),LOW(_0x0*2+250),HIGH(_0x0*2+250)
                 _0x7:
000422 0a8b
000423 09ac
000424 09af
000425 09b2      	.DB  LOW(_0x0*2+255),HIGH(_0x0*2+255),LOW(_0x0*2+32),HIGH(_0x0*2+32),LOW(_0x0*2+35),HIGH(_0x0*2+35),LOW(_0x0*2+38),HIGH(_0x0*2+38)
000426 09b5
000427 09b8
000428 09bb
000429 09be      	.DB  LOW(_0x0*2+41),HIGH(_0x0*2+41),LOW(_0x0*2+44),HIGH(_0x0*2+44),LOW(_0x0*2+47),HIGH(_0x0*2+47),LOW(_0x0*2+50),HIGH(_0x0*2+50)
00042a 09c1
00042b 09c4
00042c 09c7
00042d 09ca      	.DB  LOW(_0x0*2+53),HIGH(_0x0*2+53),LOW(_0x0*2+56),HIGH(_0x0*2+56),LOW(_0x0*2+59),HIGH(_0x0*2+59),LOW(_0x0*2+62),HIGH(_0x0*2+62)
00042e 09cd
00042f 09d0
000430 09d3
000431 09d6      	.DB  LOW(_0x0*2+65),HIGH(_0x0*2+65),LOW(_0x0*2+68),HIGH(_0x0*2+68),LOW(_0x0*2+71),HIGH(_0x0*2+71),LOW(_0x0*2+74),HIGH(_0x0*2+74)
000432 09d9
000433 09dc
000434 09df
000435 09e2      	.DB  LOW(_0x0*2+77),HIGH(_0x0*2+77),LOW(_0x0*2+80),HIGH(_0x0*2+80),LOW(_0x0*2+83),HIGH(_0x0*2+83),LOW(_0x0*2+86),HIGH(_0x0*2+86)
000436 09e5
000437 09e8
000438 09eb
000439 09ee      	.DB  LOW(_0x0*2+89),HIGH(_0x0*2+89),LOW(_0x0*2+92),HIGH(_0x0*2+92),LOW(_0x0*2+95),HIGH(_0x0*2+95),LOW(_0x0*2+98),HIGH(_0x0*2+98)
00043a 09f1
00043b 09f4
00043c 09f7
00043d 09fa      	.DB  LOW(_0x0*2+101),HIGH(_0x0*2+101),LOW(_0x0*2+104),HIGH(_0x0*2+104),LOW(_0x0*2+107),HIGH(_0x0*2+107),LOW(_0x0*2+110),HIGH(_0x0*2+110)
00043e 09fd
00043f 0a00
000440 0a03
000441 0a06      	.DB  LOW(_0x0*2+113),HIGH(_0x0*2+113),LOW(_0x0*2+116),HIGH(_0x0*2+116),LOW(_0x0*2+119),HIGH(_0x0*2+119),LOW(_0x0*2+122),HIGH(_0x0*2+122)
000442 0a88
000443 0a8e
000444 0a91
000445 0a94      	.DB  LOW(_0x0*2+252),HIGH(_0x0*2+252),LOW(_0x0*2+258),HIGH(_0x0*2+258),LOW(_0x0*2+261),HIGH(_0x0*2+261),LOW(_0x0*2+264),HIGH(_0x0*2+264)
000446 0a97
000447 0a9a
000448 0a9d
000449 0aa0      	.DB  LOW(_0x0*2+267),HIGH(_0x0*2+267),LOW(_0x0*2+270),HIGH(_0x0*2+270),LOW(_0x0*2+273),HIGH(_0x0*2+273),LOW(_0x0*2+276),HIGH(_0x0*2+276)
00044a 0aa3
00044b 0aa6
00044c 0aa9
00044d 0aac      	.DB  LOW(_0x0*2+279),HIGH(_0x0*2+279),LOW(_0x0*2+282),HIGH(_0x0*2+282),LOW(_0x0*2+285),HIGH(_0x0*2+285),LOW(_0x0*2+288),HIGH(_0x0*2+288)
00044e 0aaf
00044f 0ab2
000450 0ab5
000451 0ab8      	.DB  LOW(_0x0*2+291),HIGH(_0x0*2+291),LOW(_0x0*2+294),HIGH(_0x0*2+294),LOW(_0x0*2+297),HIGH(_0x0*2+297),LOW(_0x0*2+300),HIGH(_0x0*2+300)
000452 0abb
000453 0abe
000454 0ac1
000455 0ac4      	.DB  LOW(_0x0*2+303),HIGH(_0x0*2+303),LOW(_0x0*2+306),HIGH(_0x0*2+306),LOW(_0x0*2+309),HIGH(_0x0*2+309),LOW(_0x0*2+312),HIGH(_0x0*2+312)
000456 0ac7
000457 0aca
000458 0acd
000459 0ad0      	.DB  LOW(_0x0*2+315),HIGH(_0x0*2+315),LOW(_0x0*2+318),HIGH(_0x0*2+318),LOW(_0x0*2+321),HIGH(_0x0*2+321),LOW(_0x0*2+324),HIGH(_0x0*2+324)
00045a 0ad3
00045b 0ad6
00045c 0ad9
00045d 0adc      	.DB  LOW(_0x0*2+327),HIGH(_0x0*2+327),LOW(_0x0*2+330),HIGH(_0x0*2+330),LOW(_0x0*2+333),HIGH(_0x0*2+333),LOW(_0x0*2+336),HIGH(_0x0*2+336)
                 _0x8:
00045e 0a8b
00045f 09ac
000460 09af
000461 09b2      	.DB  LOW(_0x0*2+255),HIGH(_0x0*2+255),LOW(_0x0*2+32),HIGH(_0x0*2+32),LOW(_0x0*2+35),HIGH(_0x0*2+35),LOW(_0x0*2+38),HIGH(_0x0*2+38)
000462 09b5
000463 09b8
000464 09bb
000465 09be      	.DB  LOW(_0x0*2+41),HIGH(_0x0*2+41),LOW(_0x0*2+44),HIGH(_0x0*2+44),LOW(_0x0*2+47),HIGH(_0x0*2+47),LOW(_0x0*2+50),HIGH(_0x0*2+50)
000466 09c1
000467 09c4
000468 09c7
000469 09ca      	.DB  LOW(_0x0*2+53),HIGH(_0x0*2+53),LOW(_0x0*2+56),HIGH(_0x0*2+56),LOW(_0x0*2+59),HIGH(_0x0*2+59),LOW(_0x0*2+62),HIGH(_0x0*2+62)
00046a 09cd
00046b 09d0
00046c 09d3
00046d 09d6      	.DB  LOW(_0x0*2+65),HIGH(_0x0*2+65),LOW(_0x0*2+68),HIGH(_0x0*2+68),LOW(_0x0*2+71),HIGH(_0x0*2+71),LOW(_0x0*2+74),HIGH(_0x0*2+74)
00046e 09d9
00046f 09dc
000470 09df
000471 09e2      	.DB  LOW(_0x0*2+77),HIGH(_0x0*2+77),LOW(_0x0*2+80),HIGH(_0x0*2+80),LOW(_0x0*2+83),HIGH(_0x0*2+83),LOW(_0x0*2+86),HIGH(_0x0*2+86)
000472 09e5
000473 09e8
000474 09eb
000475 09ee      	.DB  LOW(_0x0*2+89),HIGH(_0x0*2+89),LOW(_0x0*2+92),HIGH(_0x0*2+92),LOW(_0x0*2+95),HIGH(_0x0*2+95),LOW(_0x0*2+98),HIGH(_0x0*2+98)
000476 09f1
000477 09f4
000478 09f7
000479 09fa      	.DB  LOW(_0x0*2+101),HIGH(_0x0*2+101),LOW(_0x0*2+104),HIGH(_0x0*2+104),LOW(_0x0*2+107),HIGH(_0x0*2+107),LOW(_0x0*2+110),HIGH(_0x0*2+110)
00047a 09fd
00047b 0a00
00047c 0a03
00047d 0a06      	.DB  LOW(_0x0*2+113),HIGH(_0x0*2+113),LOW(_0x0*2+116),HIGH(_0x0*2+116),LOW(_0x0*2+119),HIGH(_0x0*2+119),LOW(_0x0*2+122),HIGH(_0x0*2+122)
00047e 0a88
00047f 0a8e
000480 0a91
000481 0a94      	.DB  LOW(_0x0*2+252),HIGH(_0x0*2+252),LOW(_0x0*2+258),HIGH(_0x0*2+258),LOW(_0x0*2+261),HIGH(_0x0*2+261),LOW(_0x0*2+264),HIGH(_0x0*2+264)
000482 0a97
000483 0a9a
000484 0a9d
000485 0aa0      	.DB  LOW(_0x0*2+267),HIGH(_0x0*2+267),LOW(_0x0*2+270),HIGH(_0x0*2+270),LOW(_0x0*2+273),HIGH(_0x0*2+273),LOW(_0x0*2+276),HIGH(_0x0*2+276)
000486 0aa3
000487 0aa6
000488 0aa9
000489 0aac      	.DB  LOW(_0x0*2+279),HIGH(_0x0*2+279),LOW(_0x0*2+282),HIGH(_0x0*2+282),LOW(_0x0*2+285),HIGH(_0x0*2+285),LOW(_0x0*2+288),HIGH(_0x0*2+288)
00048a 0aaf
00048b 0ab2
00048c 0ab5
00048d 0ab8      	.DB  LOW(_0x0*2+291),HIGH(_0x0*2+291),LOW(_0x0*2+294),HIGH(_0x0*2+294),LOW(_0x0*2+297),HIGH(_0x0*2+297),LOW(_0x0*2+300),HIGH(_0x0*2+300)
00048e 0abb
00048f 0abe
000490 0ac1
000491 0ac4      	.DB  LOW(_0x0*2+303),HIGH(_0x0*2+303),LOW(_0x0*2+306),HIGH(_0x0*2+306),LOW(_0x0*2+309),HIGH(_0x0*2+309),LOW(_0x0*2+312),HIGH(_0x0*2+312)
000492 0ac7
000493 0aca
000494 0acd
000495 0ad0      	.DB  LOW(_0x0*2+315),HIGH(_0x0*2+315),LOW(_0x0*2+318),HIGH(_0x0*2+318),LOW(_0x0*2+321),HIGH(_0x0*2+321),LOW(_0x0*2+324),HIGH(_0x0*2+324)
000496 0ad3
000497 0ad6
000498 0ad9
000499 0adc      	.DB  LOW(_0x0*2+327),HIGH(_0x0*2+327),LOW(_0x0*2+330),HIGH(_0x0*2+330),LOW(_0x0*2+333),HIGH(_0x0*2+333),LOW(_0x0*2+336),HIGH(_0x0*2+336)
                 _0x9:
00049a 0a8b
00049b 09ac
00049c 09af
00049d 09b2      	.DB  LOW(_0x0*2+255),HIGH(_0x0*2+255),LOW(_0x0*2+32),HIGH(_0x0*2+32),LOW(_0x0*2+35),HIGH(_0x0*2+35),LOW(_0x0*2+38),HIGH(_0x0*2+38)
00049e 09b5
00049f 09b8
0004a0 09bb
0004a1 09be      	.DB  LOW(_0x0*2+41),HIGH(_0x0*2+41),LOW(_0x0*2+44),HIGH(_0x0*2+44),LOW(_0x0*2+47),HIGH(_0x0*2+47),LOW(_0x0*2+50),HIGH(_0x0*2+50)
0004a2 09c1
0004a3 09c4
0004a4 09c7
0004a5 09ca      	.DB  LOW(_0x0*2+53),HIGH(_0x0*2+53),LOW(_0x0*2+56),HIGH(_0x0*2+56),LOW(_0x0*2+59),HIGH(_0x0*2+59),LOW(_0x0*2+62),HIGH(_0x0*2+62)
0004a6 09cd
0004a7 09d0
0004a8 09d3
0004a9 09d6      	.DB  LOW(_0x0*2+65),HIGH(_0x0*2+65),LOW(_0x0*2+68),HIGH(_0x0*2+68),LOW(_0x0*2+71),HIGH(_0x0*2+71),LOW(_0x0*2+74),HIGH(_0x0*2+74)
0004aa 09d9
0004ab 09dc
0004ac 09df
0004ad 09e2      	.DB  LOW(_0x0*2+77),HIGH(_0x0*2+77),LOW(_0x0*2+80),HIGH(_0x0*2+80),LOW(_0x0*2+83),HIGH(_0x0*2+83),LOW(_0x0*2+86),HIGH(_0x0*2+86)
0004ae 09e5
0004af 09e8
0004b0 09eb
0004b1 09ee      	.DB  LOW(_0x0*2+89),HIGH(_0x0*2+89),LOW(_0x0*2+92),HIGH(_0x0*2+92),LOW(_0x0*2+95),HIGH(_0x0*2+95),LOW(_0x0*2+98),HIGH(_0x0*2+98)
                 _0xA:
0004b2 0adf
0004b3 09ac
0004b4 09af
0004b5 09b2      	.DB  LOW(_0x0*2+339),HIGH(_0x0*2+339),LOW(_0x0*2+32),HIGH(_0x0*2+32),LOW(_0x0*2+35),HIGH(_0x0*2+35),LOW(_0x0*2+38),HIGH(_0x0*2+38)
0004b6 09b5
0004b7 09b8
0004b8 0ae1      	.DB  LOW(_0x0*2+41),HIGH(_0x0*2+41),LOW(_0x0*2+44),HIGH(_0x0*2+44),LOW(_0x0*2+341),HIGH(_0x0*2+341)
                 _0xB:
C:\Users\presa\Desktop\Center_01.05.2018_phone_number_fixed\Debug\List\1.asm(1459): warning: .cseg .db misalignment - padding zero byte
0004b9 0001      	.DB  0x1
                 _0x99:
0004ba 382b
0004bb 3934
0004bc 3338
0004bd 3137      	.DB  0x2B,0x38,0x34,0x39,0x38,0x33,0x37,0x31
0004be 3932
0004bf 3134      	.DB  0x32,0x39,0x34,0x31
                 _0x118:
0004c0 3837
0004c1 3400
0004c2 0035
0004c3 3534      	.DB  0x37,0x38,0x0,0x34,0x35,0x0,0x34,0x35
0004c4 3100
0004c5 0035      	.DB  0x0,0x31,0x35,0x0
                 _0x0:
0004c6 0000
0004c7 5553
0004c8 004e
0004c9 4f4d      	.DB  0x0,0x0,0x53,0x55,0x4E,0x0,0x4D,0x4F
0004ca 004e
0004cb 5554
0004cc 0045
0004cd 4557      	.DB  0x4E,0x0,0x54,0x55,0x45,0x0,0x57,0x45
0004ce 0044
0004cf 4854
0004d0 0055
0004d1 5246      	.DB  0x44,0x0,0x54,0x48,0x55,0x0,0x46,0x52
0004d2 0049
0004d3 4153
0004d4 0054
0004d5 0000      	.DB  0x49,0x0,0x53,0x41,0x54,0x0,0x0,0x0
0004d6 3130
0004d7 3000
0004d8 0032
0004d9 3330      	.DB  0x30,0x31,0x0,0x30,0x32,0x0,0x30,0x33
0004da 3000
0004db 0034
0004dc 3530
0004dd 3000      	.DB  0x0,0x30,0x34,0x0,0x30,0x35,0x0,0x30
0004de 0036
0004df 3730
0004e0 3000
0004e1 0038      	.DB  0x36,0x0,0x30,0x37,0x0,0x30,0x38,0x0
0004e2 3930
0004e3 3100
0004e4 0030
0004e5 3131      	.DB  0x30,0x39,0x0,0x31,0x30,0x0,0x31,0x31
0004e6 3100
0004e7 0032
0004e8 3331
0004e9 3100      	.DB  0x0,0x31,0x32,0x0,0x31,0x33,0x0,0x31
0004ea 0034
0004eb 3531
0004ec 3100
0004ed 0036      	.DB  0x34,0x0,0x31,0x35,0x0,0x31,0x36,0x0
0004ee 3731
0004ef 3100
0004f0 0038
0004f1 3931      	.DB  0x31,0x37,0x0,0x31,0x38,0x0,0x31,0x39
0004f2 3200
0004f3 0030
0004f4 3132
0004f5 3200      	.DB  0x0,0x32,0x30,0x0,0x32,0x31,0x0,0x32
0004f6 0032
0004f7 3332
0004f8 3200
0004f9 0034      	.DB  0x32,0x0,0x32,0x33,0x0,0x32,0x34,0x0
0004fa 3532
0004fb 3200
0004fc 0036
0004fd 3732      	.DB  0x32,0x35,0x0,0x32,0x36,0x0,0x32,0x37
0004fe 3200
0004ff 0038
000500 3932
000501 3300      	.DB  0x0,0x32,0x38,0x0,0x32,0x39,0x0,0x33
000502 0030
000503 3133
000504 0000
000505 4a00      	.DB  0x30,0x0,0x33,0x31,0x0,0x0,0x0,0x4A
000506 4e41
000507 4600
000508 4245
000509 4d00      	.DB  0x41,0x4E,0x0,0x46,0x45,0x42,0x0,0x4D
00050a 5241
00050b 4100
00050c 5250
00050d 4d00      	.DB  0x41,0x52,0x0,0x41,0x50,0x52,0x0,0x4D
00050e 5941
00050f 4a00
000510 4e55
000511 4a00      	.DB  0x41,0x59,0x0,0x4A,0x55,0x4E,0x0,0x4A
000512 4c55
000513 4100
000514 4755
000515 5300      	.DB  0x55,0x4C,0x0,0x41,0x55,0x47,0x0,0x53
000516 5045
000517 4f00
000518 5443
000519 4e00      	.DB  0x45,0x50,0x0,0x4F,0x43,0x54,0x0,0x4E
00051a 564f
00051b 4400
00051c 4345
00051d 3200      	.DB  0x4F,0x56,0x0,0x44,0x45,0x43,0x0,0x32
00051e 3130
00051f 0037
000520 3032
000521 3831      	.DB  0x30,0x31,0x37,0x0,0x32,0x30,0x31,0x38
000522 3200
000523 3130
000524 0039
000525 3032      	.DB  0x0,0x32,0x30,0x31,0x39,0x0,0x32,0x30
000526 3032
000527 3200
000528 3230
000529 0031      	.DB  0x32,0x30,0x0,0x32,0x30,0x32,0x31,0x0
00052a 3032
00052b 3232
00052c 3200
00052d 3230      	.DB  0x32,0x30,0x32,0x32,0x0,0x32,0x30,0x32
00052e 0033
00052f 3032
000530 3432
000531 3200      	.DB  0x33,0x0,0x32,0x30,0x32,0x34,0x0,0x32
000532 3230
000533 0035
000534 3032
000535 3632      	.DB  0x30,0x32,0x35,0x0,0x32,0x30,0x32,0x36
000536 3200
000537 3230
000538 0037
000539 3032      	.DB  0x0,0x32,0x30,0x32,0x37,0x0,0x32,0x30
00053a 3832
00053b 3200
00053c 3230
00053d 0039      	.DB  0x32,0x38,0x0,0x32,0x30,0x32,0x39,0x0
00053e 3032
00053f 3033
000540 3200
000541 3330      	.DB  0x32,0x30,0x33,0x30,0x0,0x32,0x30,0x33
000542 0031
000543 3032
000544 3233
000545 3000      	.DB  0x31,0x0,0x32,0x30,0x33,0x32,0x0,0x30
000546 0030
000547 3333
000548 3300
000549 0034      	.DB  0x30,0x0,0x33,0x33,0x0,0x33,0x34,0x0
00054a 3533
00054b 3300
00054c 0036
00054d 3733      	.DB  0x33,0x35,0x0,0x33,0x36,0x0,0x33,0x37
00054e 3300
00054f 0038
000550 3933
000551 3400      	.DB  0x0,0x33,0x38,0x0,0x33,0x39,0x0,0x34
000552 0030
000553 3134
000554 3400
000555 0032      	.DB  0x30,0x0,0x34,0x31,0x0,0x34,0x32,0x0
000556 3334
000557 3400
000558 0034
000559 3534      	.DB  0x34,0x33,0x0,0x34,0x34,0x0,0x34,0x35
00055a 3400
00055b 0036
00055c 3734
00055d 3400      	.DB  0x0,0x34,0x36,0x0,0x34,0x37,0x0,0x34
00055e 0038
00055f 3934
000560 3500
000561 0030      	.DB  0x38,0x0,0x34,0x39,0x0,0x35,0x30,0x0
000562 3135
000563 3500
000564 0032
000565 3335      	.DB  0x35,0x31,0x0,0x35,0x32,0x0,0x35,0x33
000566 3500
000567 0034
000568 3535
000569 3500      	.DB  0x0,0x35,0x34,0x0,0x35,0x35,0x0,0x35
00056a 0036
00056b 3735
00056c 3500
00056d 0038      	.DB  0x36,0x0,0x35,0x37,0x0,0x35,0x38,0x0
00056e 3935
00056f 0000
000570 4100
000571 4c4c      	.DB  0x35,0x39,0x0,0x0,0x0,0x41,0x4C,0x4C
000572 5300
000573 5250
000574 4e49
000575 4c4b      	.DB  0x0,0x53,0x50,0x52,0x49,0x4E,0x4B,0x4C
000576 0045
000577 654d
000578 756e
000579 2000      	.DB  0x45,0x0,0x4D,0x65,0x6E,0x75,0x0,0x20
00057a 3a00
00057b 3d00
00057c 4d00
00057d 4e45      	.DB  0x0,0x3A,0x0,0x3D,0x0,0x4D,0x45,0x4E
00057e 0055
00057f 6553
000580 2074
000581 6954      	.DB  0x55,0x0,0x53,0x65,0x74,0x20,0x54,0x69
000582 656d
000583 5300
000584 7465
000585 4e20      	.DB  0x6D,0x65,0x0,0x53,0x65,0x74,0x20,0x4E
000586 646f
000587 0065
000588 6953
000589 206d      	.DB  0x6F,0x64,0x65,0x0,0x53,0x69,0x6D,0x20
00058a 6e49
00058b 7469
00058c 4700
00058d 7465      	.DB  0x49,0x6E,0x69,0x74,0x0,0x47,0x65,0x74
00058e 4720
00058f 5250
000590 0053
000591 6557      	.DB  0x20,0x47,0x50,0x52,0x53,0x0,0x57,0x65
000592 7362
000593 7469
000594 2065
000595 4d43      	.DB  0x62,0x73,0x69,0x74,0x65,0x20,0x43,0x4D
000596 2044
000597 4300
000598 544d
000599 0049      	.DB  0x44,0x20,0x0,0x43,0x4D,0x54,0x49,0x0
00059a 4b4f
00059b 4100
00059c 2b54
00059d 4943      	.DB  0x4F,0x4B,0x0,0x41,0x54,0x2B,0x43,0x49
00059e 4d50
00059f 444f
0005a0 3d45
0005a1 0a30      	.DB  0x50,0x4D,0x4F,0x44,0x45,0x3D,0x30,0xA
0005a2 000d
0005a3 5441
0005a4 432b
0005a5 5049      	.DB  0xD,0x0,0x41,0x54,0x2B,0x43,0x49,0x50
0005a6 5343
0005a7 5047
0005a8 313d
0005a9 222c      	.DB  0x43,0x53,0x47,0x50,0x3D,0x31,0x2C,0x22
0005aa 6e69
0005ab 6574
0005ac 6e72
0005ad 7465      	.DB  0x69,0x6E,0x74,0x65,0x72,0x6E,0x65,0x74
0005ae 2c22
0005af 2222
0005b0 222c
0005b1 0a22      	.DB  0x22,0x2C,0x22,0x22,0x2C,0x22,0x22,0xA
0005b2 000d
0005b3 5441
0005b4 432b
0005b5 5049      	.DB  0xD,0x0,0x41,0x54,0x2B,0x43,0x49,0x50
0005b6 4548
0005b7 4441
0005b8 303d
0005b9 0d0a      	.DB  0x48,0x45,0x41,0x44,0x3D,0x30,0xA,0xD
0005ba 4100
0005bb 2b54
0005bc 4943
0005bd 5350      	.DB  0x0,0x41,0x54,0x2B,0x43,0x49,0x50,0x53
0005be 5250
0005bf 3d54
0005c0 0a31
0005c1 000d      	.DB  0x50,0x52,0x54,0x3D,0x31,0xA,0xD,0x0
0005c2 5441
0005c3 432b
0005c4 5049
0005c5 5253      	.DB  0x41,0x54,0x2B,0x43,0x49,0x50,0x53,0x52
0005c6 5049
0005c7 303d
0005c8 0d0a
0005c9 4100      	.DB  0x49,0x50,0x3D,0x30,0xA,0xD,0x0,0x41
0005ca 2b54
0005cb 4943
0005cc 5350
0005cd 4f43      	.DB  0x54,0x2B,0x43,0x49,0x50,0x53,0x43,0x4F
0005ce 544e
0005cf 0d0a
0005d0 4100
0005d1 2b54      	.DB  0x4E,0x54,0xA,0xD,0x0,0x41,0x54,0x2B
0005d2 4343
0005d3 4c41
0005d4 3f52
0005d5 0d0a      	.DB  0x43,0x43,0x41,0x4C,0x52,0x3F,0xA,0xD
0005d6 4100
0005d7 4554
0005d8 0a30
0005d9 000d      	.DB  0x0,0x41,0x54,0x45,0x30,0xA,0xD,0x0
0005da 5441
0005db 432b
0005dc 474d
0005dd 3d46      	.DB  0x41,0x54,0x2B,0x43,0x4D,0x47,0x46,0x3D
0005de 0a31
0005df 000d
0005e0 5441
0005e1 432b      	.DB  0x31,0xA,0xD,0x0,0x41,0x54,0x2B,0x43
0005e2 4d4e
0005e3 3d49
0005e4 2c32
0005e5 2c31      	.DB  0x4E,0x4D,0x49,0x3D,0x32,0x2C,0x31,0x2C
0005e6 2c30
0005e7 2c30
0005e8 0a30
0005e9 000d      	.DB  0x30,0x2C,0x30,0x2C,0x30,0xA,0xD,0x0
0005ea 5441
0005eb 432b
0005ec 4153
0005ed 0a53      	.DB  0x41,0x54,0x2B,0x43,0x53,0x41,0x53,0xA
0005ee 000d
0005ef 5441
0005f0 432b
0005f1 474d      	.DB  0xD,0x0,0x41,0x54,0x2B,0x43,0x4D,0x47
0005f2 3d44
0005f3 0a31
0005f4 000d
0005f5 6f47      	.DB  0x44,0x3D,0x31,0xA,0xD,0x0,0x47,0x6F
0005f6 2074
0005f7 656e
0005f8 2077
0005f9 4d53      	.DB  0x74,0x20,0x6E,0x65,0x77,0x20,0x53,0x4D
0005fa 0a53
0005fb 4100
0005fc 2b54
0005fd 4d43      	.DB  0x53,0xA,0x0,0x41,0x54,0x2B,0x43,0x4D
0005fe 5247
0005ff 313d
000600 0d0a
000601 4100      	.DB  0x47,0x52,0x3D,0x31,0xA,0xD,0x0,0x41
000602 2b54
000603 4d43
000604 4647
000605 313d      	.DB  0x54,0x2B,0x43,0x4D,0x47,0x46,0x3D,0x31
000606 0a0d
000607 4100
000608 2b54
000609 4d43      	.DB  0xD,0xA,0x0,0x41,0x54,0x2B,0x43,0x4D
00060a 5347
00060b 223d
00060c 382b
00060d 3934      	.DB  0x47,0x53,0x3D,0x22,0x2B,0x38,0x34,0x39
00060e 3338
00060f 3137
000610 3932
000611 3134      	.DB  0x38,0x33,0x37,0x31,0x32,0x39,0x34,0x31
000612 0d22
000613 000a
000614 203e
000615 6f00      	.DB  0x22,0xD,0xA,0x0,0x3E,0x20,0x0,0x6F
000616 006e
000617 666f
000618 0066
000619 6e69      	.DB  0x6E,0x0,0x6F,0x66,0x66,0x0,0x69,0x6E
00061a 6f66
00061b 3100
00061c 203a
00061d 0d00      	.DB  0x66,0x6F,0x0,0x31,0x3A,0x20,0x0,0xD
00061e 3a32
00061f 0020
000620 6f20
000621 006e      	.DB  0x32,0x3A,0x20,0x0,0x20,0x6F,0x6E,0x0
000622 6f20
000623 6666
000624 0d00
000625 3a33      	.DB  0x20,0x6F,0x66,0x66,0x0,0xD,0x33,0x3A
000626 0020
000627 340d
000628 203a
000629 0d00      	.DB  0x20,0x0,0xD,0x34,0x3A,0x20,0x0,0xD
00062a 3a35
00062b 0020
00062c 5441
00062d 432b      	.DB  0x35,0x3A,0x20,0x0,0x41,0x54,0x2B,0x43
00062e 5049
00062f 5453
000630 5241
000631 3d54      	.DB  0x49,0x50,0x53,0x54,0x41,0x52,0x54,0x3D
000632 5422
000633 5043
000634 2c22
000635 6122      	.DB  0x22,0x54,0x43,0x50,0x22,0x2C,0x22,0x61
000636 6970
000637 742e
000638 6968
000639 676e      	.DB  0x70,0x69,0x2E,0x74,0x68,0x69,0x6E,0x67
00063a 7073
00063b 6165
00063c 2e6b
00063d 6f63      	.DB  0x73,0x70,0x65,0x61,0x6B,0x2E,0x63,0x6F
00063e 226d
00063f 382c
000640 0d30
000641 4300      	.DB  0x6D,0x22,0x2C,0x38,0x30,0xD,0x0,0x43
000642 4e4f
000643 454e
000644 5443
000645 4f20      	.DB  0x4F,0x4E,0x4E,0x45,0x43,0x54,0x20,0x4F
000646 004b
000647 5441
000648 432b
000649 5049      	.DB  0x4B,0x0,0x41,0x54,0x2B,0x43,0x49,0x50
00064a 4553
00064b 444e
00064c 000d
00064d 4547      	.DB  0x53,0x45,0x4E,0x44,0xD,0x0,0x47,0x45
00064e 2054
00064f 632f
000650 6168
000651 6e6e      	.DB  0x54,0x20,0x2F,0x63,0x68,0x61,0x6E,0x6E
000652 6c65
000653 2f73
000654 3233
000655 3439      	.DB  0x65,0x6C,0x73,0x2F,0x33,0x32,0x39,0x34
000656 3630
000657 662f
000658 6569
000659 646c      	.DB  0x30,0x36,0x2F,0x66,0x69,0x65,0x6C,0x64
00065a 2f73
00065b 2e31
00065c 736a
00065d 6e6f      	.DB  0x73,0x2F,0x31,0x2E,0x6A,0x73,0x6F,0x6E
00065e 613f
00065f 6970
000660 6b5f
000661 7965      	.DB  0x3F,0x61,0x70,0x69,0x5F,0x6B,0x65,0x79
000662 483d
000663 4152
000664 4a56
000665 544a      	.DB  0x3D,0x48,0x52,0x41,0x56,0x4A,0x4A,0x54
000666 4c30
000667 5951
000668 5342
000669 4e4a      	.DB  0x30,0x4C,0x51,0x59,0x42,0x53,0x4A,0x4E
00066a 2641
00066b 6572
00066c 7573
00066d 746c      	.DB  0x41,0x26,0x72,0x65,0x73,0x75,0x6C,0x74
00066e 3d73
00066f 2031
000670 5448
000671 5054      	.DB  0x73,0x3D,0x31,0x20,0x48,0x54,0x54,0x50
000672 312f
000673 312e
000674 0a0d
000675 4800      	.DB  0x2F,0x31,0x2E,0x31,0xD,0xA,0x0,0x48
000676 534f
000677 3a54
000678 7720
000679 7777      	.DB  0x4F,0x53,0x54,0x3A,0x20,0x77,0x77,0x77
00067a 612e
00067b 6970
00067c 742e
00067d 6968      	.DB  0x2E,0x61,0x70,0x69,0x2E,0x74,0x68,0x69
00067e 676e
00067f 7073
000680 6165
000681 2e6b      	.DB  0x6E,0x67,0x73,0x70,0x65,0x61,0x6B,0x2E
000682 6f63
000683 0d6d
000684 000a
000685 6f43      	.DB  0x63,0x6F,0x6D,0xD,0xA,0x0,0x43,0x6F
000686 6e6e
000687 6365
000688 6974
000689 6e6f      	.DB  0x6E,0x6E,0x65,0x63,0x74,0x69,0x6F,0x6E
00068a 203a
00068b 6c63
00068c 736f
00068d 0d65      	.DB  0x3A,0x20,0x63,0x6C,0x6F,0x73,0x65,0xD
00068e 0d0a
00068f 000a
000690 0023
000691 5441      	.DB  0xA,0xD,0xA,0x0,0x23,0x0,0x41,0x54
000692 432b
000693 5049
000694 4853
000695 5455      	.DB  0x2B,0x43,0x49,0x50,0x53,0x48,0x55,0x54
000696 0a0d
000697 4700
000698 5445
000699 2f20      	.DB  0xD,0xA,0x0,0x47,0x45,0x54,0x20,0x2F
00069a 7075
00069b 6164
00069c 6574
00069d 6b3f      	.DB  0x75,0x70,0x64,0x61,0x74,0x65,0x3F,0x6B
00069e 7965
00069f 003d
0006a0 5237
0006a1 4e36      	.DB  0x65,0x79,0x3D,0x0,0x37,0x52,0x36,0x4E
0006a2 5953
0006a3 4846
0006a4 4642
0006a5 5552      	.DB  0x53,0x59,0x46,0x48,0x42,0x46,0x52,0x55
0006a6 5241
0006a7 4b36
0006a8 3500
0006a9 3049      	.DB  0x41,0x52,0x36,0x4B,0x0,0x35,0x49,0x30
0006aa 3030
0006ab 5257
0006ac 584f
0006ad 464f      	.DB  0x30,0x30,0x57,0x52,0x4F,0x58,0x4F,0x46
0006ae 3053
0006af 3856
0006b0 0035
0006b1 4e36      	.DB  0x53,0x30,0x56,0x38,0x35,0x0,0x36,0x4E
0006b2 4648
0006b3 4858
0006b4 3730
0006b5 5336      	.DB  0x48,0x46,0x58,0x48,0x30,0x37,0x36,0x53
0006b6 3043
0006b7 4432
0006b8 305a
0006b9 5700      	.DB  0x43,0x30,0x32,0x44,0x5A,0x30,0x0,0x57
0006ba 4955
0006bb 3854
0006bc 584c
0006bd 4e37      	.DB  0x55,0x49,0x54,0x38,0x4C,0x58,0x37,0x4E
0006be 3239
0006bf 3858
0006c0 344a
0006c1 0057      	.DB  0x39,0x32,0x58,0x38,0x4A,0x34,0x57,0x0
0006c2 6626
0006c3 6569
0006c4 646c
0006c5 3d31      	.DB  0x26,0x66,0x69,0x65,0x6C,0x64,0x31,0x3D
0006c6 2600
0006c7 6966
0006c8 6c65
0006c9 3264      	.DB  0x0,0x26,0x66,0x69,0x65,0x6C,0x64,0x32
0006ca 003d
0006cb 6626
0006cc 6569
0006cd 646c      	.DB  0x3D,0x0,0x26,0x66,0x69,0x65,0x6C,0x64
0006ce 3d33
0006cf 2600
0006d0 6966
0006d1 6c65      	.DB  0x33,0x3D,0x0,0x26,0x66,0x69,0x65,0x6C
0006d2 3464
0006d3 003d
0006d4 5441
0006d5 2b44      	.DB  0x64,0x34,0x3D,0x0,0x41,0x54,0x44,0x2B
0006d6 3438
0006d7 3839
0006d8 3733
0006d9 3231      	.DB  0x38,0x34,0x39,0x38,0x33,0x37,0x31,0x32
0006da 3439
0006db 3b31
0006dc 0a0d
0006dd 7300      	.DB  0x39,0x34,0x31,0x3B,0xD,0xA,0x0,0x73
0006de 6174
0006df 7472
0006e0 6720
0006e1 7465      	.DB  0x74,0x61,0x72,0x74,0x20,0x67,0x65,0x74
0006e2 6d20
0006e3 6e6f
0006e4 7965
0006e5 000a      	.DB  0x20,0x6D,0x6F,0x6E,0x65,0x79,0xA,0x0
0006e6 5441
0006e7 432b
0006e8 5355
0006e9 3d44      	.DB  0x41,0x54,0x2B,0x43,0x55,0x53,0x44,0x3D
0006ea 2c31
0006eb 2a00
0006ec 3031
0006ed 2331      	.DB  0x31,0x2C,0x0,0x2A,0x31,0x30,0x31,0x23
0006ee 6700
0006ef 7465
0006f0 6d20
0006f1 6e6f      	.DB  0x0,0x67,0x65,0x74,0x20,0x6D,0x6F,0x6E
0006f2 7965
0006f3 7220
0006f4 7365
0006f5 6f70      	.DB  0x65,0x79,0x20,0x72,0x65,0x73,0x70,0x6F
0006f6 736e
0006f7 0065
0006f8 7570
0006f9 2074      	.DB  0x6E,0x73,0x65,0x0,0x70,0x75,0x74,0x20
0006fa 6f6d
0006fb 656e
0006fc 2079
0006fd 6e6f      	.DB  0x6D,0x6F,0x6E,0x65,0x79,0x20,0x6F,0x6E
0006fe 7020
0006ff 6f68
000700 656e
000701 000a      	.DB  0x20,0x70,0x68,0x6F,0x6E,0x65,0xA,0x0
000702 312a
000703 3030
000704 002a
000705 4553      	.DB  0x2A,0x31,0x30,0x30,0x2A,0x0,0x53,0x45
000706 2054
000707 4f4e
000708 4544
000709 4000      	.DB  0x54,0x20,0x4E,0x4F,0x44,0x45,0x0,0x40
00070a 4e00
00070b 444f
00070c 2045
00070d 4f00      	.DB  0x0,0x4E,0x4F,0x44,0x45,0x20,0x0,0x4F
00070e 2f6e
00070f 664f
000710 0066
000711 6553      	.DB  0x6E,0x2F,0x4F,0x66,0x66,0x0,0x53,0x65
000712 2074
000713 6f48
000714 7275
000715 5300      	.DB  0x74,0x20,0x48,0x6F,0x75,0x72,0x0,0x53
000716 7465
000717 5720
000718 6565
000719 206b      	.DB  0x65,0x74,0x20,0x57,0x65,0x65,0x6B,0x20
00071a 6144
00071b 0079
00071c 7453
00071d 7461      	.DB  0x44,0x61,0x79,0x0,0x53,0x74,0x61,0x74
00071e 7375
00071f 4800
000720 554f
000721 0052      	.DB  0x75,0x73,0x0,0x48,0x4F,0x55,0x52,0x0
000722 4557
000723 4b45
000724 4420
000725 5941      	.DB  0x57,0x45,0x45,0x4B,0x20,0x44,0x41,0x59
000726 4d00
000727 4e4f
000728 4854
000729 5900      	.DB  0x0,0x4D,0x4F,0x4E,0x54,0x48,0x0,0x59
00072a 4145
00072b 0052
00072c 494d
00072d 554e      	.DB  0x45,0x41,0x52,0x0,0x4D,0x49,0x4E,0x55
00072e 4554
00072f 5300
000730 4345
000731 4e4f      	.DB  0x54,0x45,0x0,0x53,0x45,0x43,0x4F,0x4E
000732 0044
000733 4553
000734 2054
000735 4954      	.DB  0x44,0x0,0x53,0x45,0x54,0x20,0x54,0x49
000736 454d
000737 5300
000738 7465
000739 4420      	.DB  0x4D,0x45,0x0,0x53,0x65,0x74,0x20,0x44
00073a 7461
00073b 0065
00073c 4553
00073d 2054      	.DB  0x61,0x74,0x65,0x0,0x53,0x45,0x54,0x20
00073e 4144
00073f 4554
000740 5700
000741 6565      	.DB  0x44,0x41,0x54,0x45,0x0,0x57,0x65,0x65
000742 206b
000743 6164
000744 0079
000745 6f4d      	.DB  0x6B,0x20,0x64,0x61,0x79,0x0,0x4D,0x6F
000746 746e
000747 0068
000748 6559
000749 7261      	.DB  0x6E,0x74,0x68,0x0,0x59,0x65,0x61,0x72
00074a 4d00
00074b 6e69
00074c 7475
00074d 0065      	.DB  0x0,0x4D,0x69,0x6E,0x75,0x74,0x65,0x0
00074e 6553
00074f 6f63
000750 646e
000751 7400      	.DB  0x53,0x65,0x63,0x6F,0x6E,0x64,0x0,0x74
000752 7365
000753 0074      	.DB  0x65,0x73,0x74,0x0
                 _0x20C0060:
C:\Users\presa\Desktop\Center_01.05.2018_phone_number_fixed\Debug\List\1.asm(1632): warning: .cseg .db misalignment - padding zero byte
000754 0001      	.DB  0x1
                 _0x20C0000:
000755 4e2d
000756 4e41
000757 4900
000758 464e      	.DB  0x2D,0x4E,0x41,0x4E,0x0,0x49,0x4E,0x46
C:\Users\presa\Desktop\Center_01.05.2018_phone_number_fixed\Debug\List\1.asm(1635): warning: .cseg .db misalignment - padding zero byte
000759 0000      	.DB  0x0
                 
                 __GLOBAL_INI_TBL:
00075a 0001      	.DW  0x01
00075b 0002      	.DW  0x02
00075c 07ae      	.DW  __REG_BIT_VARS*2
                 
00075d 000a      	.DW  0x0A
00075e 0004      	.DW  0x04
00075f 07b0      	.DW  __REG_VARS*2
                 
000760 0010      	.DW  0x10
000761 0a1a      	.DW  _name_week_day
000762 07ba      	.DW  _0x3*2
                 
000763 0040      	.DW  0x40
000764 0a2a      	.DW  _name_day
000765 07ca      	.DW  _0x4*2
                 
000766 001a      	.DW  0x1A
000767 0a6a      	.DW  _name_month
000768 080a      	.DW  _0x5*2
                 
000769 0020      	.DW  0x20
00076a 0a84      	.DW  _name_year
00076b 0824      	.DW  _0x6*2
                 
00076c 0078      	.DW  0x78
00076d 0aa4      	.DW  _name_second
00076e 0844      	.DW  _0x7*2
                 
00076f 0078      	.DW  0x78
000770 0b1c      	.DW  _name_minute
000771 08bc      	.DW  _0x8*2
                 
000772 0030      	.DW  0x30
000773 0b94      	.DW  _name_hour
000774 0934      	.DW  _0x9*2
                 
000775 000e      	.DW  0x0E
000776 0bc4      	.DW  _name_relay
000777 0964      	.DW  _0xA*2
                 
000778 0001      	.DW  0x01
000779 0bd6      	.DW  _year
00077a 0972      	.DW  _0xB*2
                 
00077b 0009      	.DW  0x09
00077c 0500      	.DW  _0x4C
00077d 0ae5      	.DW  _0x0*2+345
                 
00077e 0005      	.DW  0x05
00077f 0509      	.DW  _0x4C+9
000780 0aee      	.DW  _0x0*2+354
                 
000781 0002      	.DW  0x02
000782 050e      	.DW  _0x4C+14
000783 09b9      	.DW  _0x0*2+45
                 
000784 0002      	.DW  0x02
000785 0510      	.DW  _0x4C+16
000786 09c8      	.DW  _0x0*2+60
                 
000787 0002      	.DW  0x02
000788 0512      	.DW  _0x52
000789 0af3      	.DW  _0x0*2+359
                 
00078a 0002      	.DW  0x02
00078b 0514      	.DW  _0x52+2
00078c 0af3      	.DW  _0x0*2+359
                 
00078d 0002      	.DW  0x02
00078e 0516      	.DW  _0x57
00078f 0af5      	.DW  _0x0*2+361
                 
000790 0002      	.DW  0x02
000791 0518      	.DW  _0x57+2
000792 0af7      	.DW  _0x0*2+363
                 
000793 0005      	.DW  0x05
000794 051a      	.DW  _0x68
000795 0af9      	.DW  _0x0*2+365
                 
000796 0009      	.DW  0x09
000797 051f      	.DW  _0x68+5
000798 0afe      	.DW  _0x0*2+370
                 
000799 0009      	.DW  0x09
00079a 0528      	.DW  _0x68+14
00079b 0b07      	.DW  _0x0*2+379
                 
00079c 0009      	.DW  0x09
00079d 0531      	.DW  _0x68+23
00079e 0b10      	.DW  _0x0*2+388
                 
00079f 0009      	.DW  0x09
0007a0 053a      	.DW  _0x68+32
0007a1 0b19      	.DW  _0x0*2+397
                 
0007a2 000d      	.DW  0x0D
0007a3 0543      	.DW  _0x7C
0007a4 0b22      	.DW  _0x0*2+406
                 
0007a5 0005      	.DW  0x05
0007a6 0550      	.DW  _0x9E
0007a7 0b2f      	.DW  _0x0*2+419
                 
0007a8 0003      	.DW  0x03
0007a9 0555      	.DW  _0xB8
0007aa 0b34      	.DW  _0x0*2+424
                 
0007ab 000f      	.DW  0x0F
0007ac 0558      	.DW  _0xC7
0007ad 0b37      	.DW  _0x0*2+427
                 
0007ae 0020      	.DW  0x20
0007af 0567      	.DW  _0xC7+15
0007b0 0b46      	.DW  _0x0*2+442
                 
0007b1 000f      	.DW  0x0F
0007b2 0587      	.DW  _0xC7+47
0007b3 0b66      	.DW  _0x0*2+474
                 
0007b4 000f      	.DW  0x0F
0007b5 0596      	.DW  _0xC7+62
0007b6 0b75      	.DW  _0x0*2+489
                 
0007b7 000f      	.DW  0x0F
0007b8 05a5      	.DW  _0xC7+77
0007b9 0b84      	.DW  _0x0*2+504
                 
0007ba 000e      	.DW  0x0E
0007bb 05b4      	.DW  _0xC7+92
0007bc 0b93      	.DW  _0x0*2+519
                 
0007bd 000c      	.DW  0x0C
0007be 05c2      	.DW  _0xC8
0007bf 0ba1      	.DW  _0x0*2+533
                 
0007c0 0007      	.DW  0x07
0007c1 05ce      	.DW  _0xC8+12
0007c2 0bad      	.DW  _0x0*2+545
                 
0007c3 000c      	.DW  0x0C
0007c4 05d5      	.DW  _0xC8+19
0007c5 0bb4      	.DW  _0x0*2+552
                 
0007c6 0014      	.DW  0x14
0007c7 05e1      	.DW  _0xC8+31
0007c8 0bc0      	.DW  _0x0*2+564
                 
0007c9 000a      	.DW  0x0A
0007ca 05f5      	.DW  _0xC8+51
0007cb 0bd4      	.DW  _0x0*2+584
                 
0007cc 000c      	.DW  0x0C
0007cd 05ff      	.DW  _0xC8+61
0007ce 0bde      	.DW  _0x0*2+594
                 
0007cf 000d      	.DW  0x0D
0007d0 060b      	.DW  _0xC9
0007d1 0bea      	.DW  _0x0*2+606
                 
0007d2 000c      	.DW  0x0C
0007d3 0618      	.DW  _0xC9+13
0007d4 0bf7      	.DW  _0x0*2+619
                 
0007d5 000c      	.DW  0x0C
0007d6 0624      	.DW  _0xC9+25
0007d7 0bde      	.DW  _0x0*2+594
                 
0007d8 000c      	.DW  0x0C
0007d9 0630      	.DW  _0xD6
0007da 0c03      	.DW  _0x0*2+631
                 
0007db 0003      	.DW  0x03
0007dc 063c      	.DW  _0xD6+12
0007dd 0b34      	.DW  _0x0*2+424
                 
0007de 0019      	.DW  0x19
0007df 063f      	.DW  _0xD6+15
0007e0 0c0f      	.DW  _0x0*2+643
                 
0007e1 0003      	.DW  0x03
0007e2 0658      	.DW  _0xD6+40
0007e3 0c28      	.DW  _0x0*2+668
                 
0007e4 0003      	.DW  0x03
0007e5 065b      	.DW  _0xDE
0007e6 0c2b      	.DW  _0x0*2+671
                 
0007e7 0004      	.DW  0x04
0007e8 065e      	.DW  _0xDE+3
0007e9 0c2e      	.DW  _0x0*2+674
                 
0007ea 0005      	.DW  0x05
0007eb 0662      	.DW  _0xDE+7
0007ec 0c32      	.DW  _0x0*2+678
                 
0007ed 0004      	.DW  0x04
0007ee 0667      	.DW  _0xDE+12
0007ef 0c37      	.DW  _0x0*2+683
                 
0007f0 0003      	.DW  0x03
0007f1 066b      	.DW  _0xDE+16
0007f2 0c2b      	.DW  _0x0*2+671
                 
0007f3 0004      	.DW  0x04
0007f4 066e      	.DW  _0xDE+19
0007f5 0c2e      	.DW  _0x0*2+674
                 
0007f6 0005      	.DW  0x05
0007f7 0672      	.DW  _0xDE+23
0007f8 0c3b      	.DW  _0x0*2+687
                 
0007f9 0004      	.DW  0x04
0007fa 0677      	.DW  _0xDE+28
0007fb 0c40      	.DW  _0x0*2+692
                 
0007fc 0005      	.DW  0x05
0007fd 067b      	.DW  _0xDE+32
0007fe 0c44      	.DW  _0x0*2+696
                 
0007ff 0005      	.DW  0x05
000800 0680      	.DW  _0xDE+37
000801 0c49      	.DW  _0x0*2+701
                 
000802 0004      	.DW  0x04
000803 0685      	.DW  _0xDE+42
000804 0c40      	.DW  _0x0*2+692
                 
000805 0005      	.DW  0x05
000806 0689      	.DW  _0xDE+46
000807 0c44      	.DW  _0x0*2+696
                 
000808 0005      	.DW  0x05
000809 068e      	.DW  _0xDE+51
00080a 0c4e      	.DW  _0x0*2+706
                 
00080b 0004      	.DW  0x04
00080c 0693      	.DW  _0xDE+56
00080d 0c40      	.DW  _0x0*2+692
                 
00080e 0005      	.DW  0x05
00080f 0697      	.DW  _0xDE+60
000810 0c44      	.DW  _0x0*2+696
                 
000811 0005      	.DW  0x05
000812 069c      	.DW  _0xDE+65
000813 0c53      	.DW  _0x0*2+711
                 
000814 0004      	.DW  0x04
000815 06a1      	.DW  _0xDE+70
000816 0c40      	.DW  _0x0*2+692
                 
000817 0005      	.DW  0x05
000818 06a5      	.DW  _0xDE+74
000819 0c44      	.DW  _0x0*2+696
                 
00081a 002b      	.DW  0x2B
00081b 06aa      	.DW  _0x110
00081c 0c58      	.DW  _0x0*2+716
                 
00081d 000b      	.DW  0x0B
00081e 06d5      	.DW  _0x110+43
00081f 0c83      	.DW  _0x0*2+759
                 
000820 000c      	.DW  0x0C
000821 06e0      	.DW  _0x110+54
000822 0c8e      	.DW  _0x0*2+770
                 
000823 0003      	.DW  0x03
000824 06ec      	.DW  _0x110+66
000825 0c28      	.DW  _0x0*2+668
                 
000826 0051      	.DW  0x51
000827 06ef      	.DW  _0x110+69
000828 0c9a      	.DW  _0x0*2+782
                 
000829 001f      	.DW  0x1F
00082a 0740      	.DW  _0x110+150
00082b 0ceb      	.DW  _0x0*2+863
                 
00082c 0016      	.DW  0x16
00082d 075f      	.DW  _0x110+181
00082e 0d0a      	.DW  _0x0*2+894
                 
00082f 0003      	.DW  0x03
000830 0775      	.DW  _0x110+203
000831 0b34      	.DW  _0x0*2+424
                 
000832 0002      	.DW  0x02
000833 0778      	.DW  _0x110+206
000834 0d20      	.DW  _0x0*2+916
                 
000835 000d      	.DW  0x0D
000836 077a      	.DW  _0x110+208
000837 0d22      	.DW  _0x0*2+918
                 
000838 002b      	.DW  0x2B
000839 0787      	.DW  _0x119
00083a 0c58      	.DW  _0x0*2+716
                 
00083b 000b      	.DW  0x0B
00083c 07b2      	.DW  _0x119+43
00083d 0c83      	.DW  _0x0*2+759
                 
00083e 000c      	.DW  0x0C
00083f 07bd      	.DW  _0x119+54
000840 0c8e      	.DW  _0x0*2+770
                 
000841 0003      	.DW  0x03
000842 07c9      	.DW  _0x119+66
000843 0c28      	.DW  _0x0*2+668
                 
000844 0011      	.DW  0x11
000845 07cc      	.DW  _0x119+69
000846 0d2f      	.DW  _0x0*2+931
                 
000847 0011      	.DW  0x11
000848 07dd      	.DW  _0x119+86
000849 0d40      	.DW  _0x0*2+948
                 
00084a 0011      	.DW  0x11
00084b 07ee      	.DW  _0x119+103
00084c 0d51      	.DW  _0x0*2+965
                 
00084d 0011      	.DW  0x11
00084e 07ff      	.DW  _0x119+120
00084f 0d62      	.DW  _0x0*2+982
                 
000850 0011      	.DW  0x11
000851 0810      	.DW  _0x119+137
000852 0d73      	.DW  _0x0*2+999
                 
000853 0009      	.DW  0x09
000854 0821      	.DW  _0x119+154
000855 0d84      	.DW  _0x0*2+1016
                 
000856 0009      	.DW  0x09
000857 082a      	.DW  _0x119+163
000858 0d8d      	.DW  _0x0*2+1025
                 
000859 0009      	.DW  0x09
00085a 0833      	.DW  _0x119+172
00085b 0d96      	.DW  _0x0*2+1034
                 
00085c 0009      	.DW  0x09
00085d 083c      	.DW  _0x119+181
00085e 0d9f      	.DW  _0x0*2+1043
                 
00085f 000b      	.DW  0x0B
000860 0845      	.DW  _0x119+190
000861 0ce0      	.DW  _0x0*2+852
                 
000862 001f      	.DW  0x1F
000863 0850      	.DW  _0x119+201
000864 0ceb      	.DW  _0x0*2+863
                 
000865 0016      	.DW  0x16
000866 086f      	.DW  _0x119+232
000867 0d0a      	.DW  _0x0*2+894
                 
000868 0003      	.DW  0x03
000869 0885      	.DW  _0x119+254
00086a 0b34      	.DW  _0x0*2+424
                 
00086b 0013      	.DW  0x13
00086c 0888      	.DW  _0x121
00086d 0da8      	.DW  _0x0*2+1052
                 
00086e 0011      	.DW  0x11
00086f 089b      	.DW  _0x122
000870 0dbb      	.DW  _0x0*2+1071
                 
000871 000b      	.DW  0x0B
000872 08ac      	.DW  _0x122+17
000873 0dcc      	.DW  _0x0*2+1088
                 
000874 0006      	.DW  0x06
000875 08b7      	.DW  _0x122+28
000876 0dd7      	.DW  _0x0*2+1099
                 
000877 0003      	.DW  0x03
000878 08bd      	.DW  _0x122+34
000879 0c0c      	.DW  _0x0*2+640
                 
00087a 0013      	.DW  0x13
00087b 08c0      	.DW  _0x126
00087c 0ddd      	.DW  _0x0*2+1105
                 
00087d 0013      	.DW  0x13
00087e 08d3      	.DW  _0x12F
00087f 0ddd      	.DW  _0x0*2+1105
                 
000880 0014      	.DW  0x14
000881 08e6      	.DW  _0x13A
000882 0df0      	.DW  _0x0*2+1124
                 
000883 000b      	.DW  0x0B
000884 08fa      	.DW  _0x13A+20
000885 0dcc      	.DW  _0x0*2+1088
                 
000886 0006      	.DW  0x06
000887 0905      	.DW  _0x13A+31
000888 0e04      	.DW  _0x0*2+1144
                 
000889 0003      	.DW  0x03
00088a 090b      	.DW  _0x13A+37
00088b 0c0c      	.DW  _0x0*2+640
                 
00088c 0009      	.DW  0x09
00088d 090e      	.DW  _0x13E
00088e 0e0a      	.DW  _0x0*2+1150
                 
00088f 0002      	.DW  0x02
000890 0917      	.DW  _0x13E+9
000891 0e13      	.DW  _0x0*2+1159
                 
000892 0006      	.DW  0x06
000893 0919      	.DW  _0x15F
000894 0e15      	.DW  _0x0*2+1161
                 
000895 0007      	.DW  0x07
000896 091f      	.DW  _0x15F+6
000897 0e1b      	.DW  _0x0*2+1167
                 
000898 0009      	.DW  0x09
000899 0926      	.DW  _0x15F+13
00089a 0e22      	.DW  _0x0*2+1174
                 
00089b 000d      	.DW  0x0D
00089c 092f      	.DW  _0x15F+22
00089d 0e2b      	.DW  _0x0*2+1183
                 
00089e 0007      	.DW  0x07
00089f 093c      	.DW  _0x15F+35
0008a0 0e38      	.DW  _0x0*2+1196
                 
0008a1 0005      	.DW  0x05
0008a2 0943      	.DW  _0x18F
0008a3 0e3f      	.DW  _0x0*2+1203
                 
0008a4 0002      	.DW  0x02
0008a5 0948      	.DW  _0x18F+5
0008a6 0e13      	.DW  _0x0*2+1159
                 
0008a7 0002      	.DW  0x02
0008a8 094a      	.DW  _0x18F+7
0008a9 0e13      	.DW  _0x0*2+1159
                 
0008aa 0009      	.DW  0x09
0008ab 094c      	.DW  _0x1A4
0008ac 0e44      	.DW  _0x0*2+1208
                 
0008ad 0002      	.DW  0x02
0008ae 0955      	.DW  _0x1A4+9
0008af 0e13      	.DW  _0x0*2+1159
                 
0008b0 0002      	.DW  0x02
0008b1 0957      	.DW  _0x1A4+11
0008b2 0e13      	.DW  _0x0*2+1159
                 
0008b3 0009      	.DW  0x09
0008b4 0959      	.DW  _0x1B9
0008b5 0e44      	.DW  _0x0*2+1208
                 
0008b6 0002      	.DW  0x02
0008b7 0962      	.DW  _0x1B9+9
0008b8 0e13      	.DW  _0x0*2+1159
                 
0008b9 0002      	.DW  0x02
0008ba 0964      	.DW  _0x1B9+11
0008bb 0e13      	.DW  _0x0*2+1159
                 
0008bc 0004      	.DW  0x04
0008bd 0966      	.DW  _0x1CE
0008be 0e49      	.DW  _0x0*2+1213
                 
0008bf 0002      	.DW  0x02
0008c0 096a      	.DW  _0x1CE+4
0008c1 0e13      	.DW  _0x0*2+1159
                 
0008c2 0002      	.DW  0x02
0008c3 096c      	.DW  _0x1CE+6
0008c4 0e13      	.DW  _0x0*2+1159
                 
0008c5 0006      	.DW  0x06
0008c6 096e      	.DW  _0x1E3
0008c7 0e4d      	.DW  _0x0*2+1217
                 
0008c8 0002      	.DW  0x02
0008c9 0974      	.DW  _0x1E3+6
0008ca 0e13      	.DW  _0x0*2+1159
                 
0008cb 0002      	.DW  0x02
0008cc 0976      	.DW  _0x1E3+8
0008cd 0e13      	.DW  _0x0*2+1159
                 
0008ce 0005      	.DW  0x05
0008cf 0978      	.DW  _0x1F8
0008d0 0e53      	.DW  _0x0*2+1223
                 
0008d1 0002      	.DW  0x02
0008d2 097d      	.DW  _0x1F8+5
0008d3 0e13      	.DW  _0x0*2+1159
                 
0008d4 0002      	.DW  0x02
0008d5 097f      	.DW  _0x1F8+7
0008d6 0e13      	.DW  _0x0*2+1159
                 
0008d7 0005      	.DW  0x05
0008d8 0981      	.DW  _0x20D
0008d9 0e3f      	.DW  _0x0*2+1203
                 
0008da 0002      	.DW  0x02
0008db 0986      	.DW  _0x20D+5
0008dc 0e13      	.DW  _0x0*2+1159
                 
0008dd 0002      	.DW  0x02
0008de 0988      	.DW  _0x20D+7
0008df 0e13      	.DW  _0x0*2+1159
                 
0008e0 0007      	.DW  0x07
0008e1 098a      	.DW  _0x222
0008e2 0e58      	.DW  _0x0*2+1228
                 
0008e3 0002      	.DW  0x02
0008e4 0991      	.DW  _0x222+7
0008e5 0e13      	.DW  _0x0*2+1159
                 
0008e6 0002      	.DW  0x02
0008e7 0993      	.DW  _0x222+9
0008e8 0e13      	.DW  _0x0*2+1159
                 
0008e9 0007      	.DW  0x07
0008ea 0995      	.DW  _0x237
0008eb 0e5f      	.DW  _0x0*2+1235
                 
0008ec 0002      	.DW  0x02
0008ed 099c      	.DW  _0x237+7
0008ee 0e13      	.DW  _0x0*2+1159
                 
0008ef 0002      	.DW  0x02
0008f0 099e      	.DW  _0x237+9
0008f1 0e13      	.DW  _0x0*2+1159
                 
0008f2 0009      	.DW  0x09
0008f3 09a0      	.DW  _0x24C
0008f4 0e66      	.DW  _0x0*2+1242
                 
0008f5 0009      	.DW  0x09
0008f6 09a9      	.DW  _0x24C+9
0008f7 0e6f      	.DW  _0x0*2+1251
                 
0008f8 0009      	.DW  0x09
0008f9 09b2      	.DW  _0x24C+18
0008fa 0afe      	.DW  _0x0*2+370
                 
0008fb 0009      	.DW  0x09
0008fc 09bb      	.DW  _0x260
0008fd 0e78      	.DW  _0x0*2+1260
                 
0008fe 0009      	.DW  0x09
0008ff 09c4      	.DW  _0x260+9
000900 0e81      	.DW  _0x0*2+1269
                 
000901 0004      	.DW  0x04
000902 09cd      	.DW  _0x260+18
000903 0e34      	.DW  _0x0*2+1192
                 
000904 0006      	.DW  0x06
000905 09d1      	.DW  _0x260+22
000906 0e8a      	.DW  _0x0*2+1278
                 
000907 0005      	.DW  0x05
000908 09d7      	.DW  _0x260+28
000909 0e90      	.DW  _0x0*2+1284
                 
00090a 0009      	.DW  0x09
00090b 09dc      	.DW  _0x274
00090c 0e66      	.DW  _0x0*2+1242
                 
00090d 0005      	.DW  0x05
00090e 09e5      	.DW  _0x274+9
00090f 0e26      	.DW  _0x0*2+1178
                 
000910 0007      	.DW  0x07
000911 09ea      	.DW  _0x274+14
000912 0e95      	.DW  _0x0*2+1289
                 
000913 0007      	.DW  0x07
000914 09f1      	.DW  _0x274+21
000915 0e9c      	.DW  _0x0*2+1296
                 
000916 0005      	.DW  0x05
000917 09f8      	.DW  _0x2D3
000918 0ea3      	.DW  _0x0*2+1303
                 
000919 0001      	.DW  0x01
00091a 1080      	.DW  __seed_G106
00091b 0ea8      	.DW  _0x20C0060*2
                 
                 _0xFFFFFFFF:
00091c 0000      	.DW  0
                 
                 #define __GLOBAL_INI_TBL_PRESENT 1
                 
                 __RESET:
00091d 94f8      	CLI
00091e 27ee      	CLR  R30
00091f bbec      	OUT  EECR,R30
                 
                 ;INTERRUPT VECTORS ARE PLACED
                 ;AT THE START OF FLASH
000920 e0f1      	LDI  R31,1
000921 bff5      	OUT  MCUCR,R31
000922 bfe5      	OUT  MCUCR,R30
000923 93e0 006c 	STS  XMCRB,R30
                 
                 ;CLEAR R2-R14
000925 e08d      	LDI  R24,(14-2)+1
000926 e0a2      	LDI  R26,2
000927 27bb      	CLR  R27
                 __CLEAR_REG:
000928 93ed      	ST   X+,R30
000929 958a      	DEC  R24
00092a f7e9      	BRNE __CLEAR_REG
                 
                 ;CLEAR SRAM
00092b e080      	LDI  R24,LOW(__CLEAR_SRAM_SIZE)
00092c e190      	LDI  R25,HIGH(__CLEAR_SRAM_SIZE)
00092d e0a0      	LDI  R26,LOW(__SRAM_START)
00092e e0b1      	LDI  R27,HIGH(__SRAM_START)
                 __CLEAR_SRAM:
00092f 93ed      	ST   X+,R30
000930 9701      	SBIW R24,1
000931 f7e9      	BRNE __CLEAR_SRAM
                 
                 ;GLOBAL VARIABLES INITIALIZATION
000932 ebe4      	LDI  R30,LOW(__GLOBAL_INI_TBL*2)
000933 e0fe      	LDI  R31,HIGH(__GLOBAL_INI_TBL*2)
                 __GLOBAL_INI_NEXT:
000934 9185      	LPM  R24,Z+
000935 9195      	LPM  R25,Z+
000936 9700      	SBIW R24,0
000937 f061      	BREQ __GLOBAL_INI_END
000938 91a5      	LPM  R26,Z+
000939 91b5      	LPM  R27,Z+
00093a 9005      	LPM  R0,Z+
00093b 9015      	LPM  R1,Z+
00093c 01bf      	MOVW R22,R30
00093d 01f0      	MOVW R30,R0
                 __GLOBAL_INI_LOOP:
00093e 9005      	LPM  R0,Z+
00093f 920d      	ST   X+,R0
000940 9701      	SBIW R24,1
000941 f7e1      	BRNE __GLOBAL_INI_LOOP
000942 01fb      	MOVW R30,R22
000943 cff0      	RJMP __GLOBAL_INI_NEXT
                 __GLOBAL_INI_END:
                 
000944 bf8b      	OUT  RAMPZ,R24
                 
                 ;HARDWARE STACK POINTER INITIALIZATION
000945 efef      	LDI  R30,LOW(__SRAM_END-__HEAP_SIZE)
000946 bfed      	OUT  SPL,R30
000947 e1e0      	LDI  R30,HIGH(__SRAM_END-__HEAP_SIZE)
000948 bfee      	OUT  SPH,R30
                 
                 ;DATA STACK POINTER INITIALIZATION
000949 e0c0      	LDI  R28,LOW(__SRAM_START+__DSTACK_SIZE)
00094a e0d5      	LDI  R29,HIGH(__SRAM_START+__DSTACK_SIZE)
                 
00094b 940c 15dc 	JMP  _main
                 
                 	.ESEG
                 	.ORG 0
                 
                 	.DSEG
                 	.ORG 0x500
                 
                 	.CSEG
                 ;#include <mega128.h>
                 	#ifndef __SLEEP_DEFINED__
                 	#define __SLEEP_DEFINED__
                 	.EQU __se_bit=0x20
                 	.EQU __sm_mask=0x1C
                 	.EQU __sm_powerdown=0x10
                 	.EQU __sm_powersave=0x18
                 	.EQU __sm_standby=0x14
                 	.EQU __sm_ext_standby=0x1C
                 	.EQU __sm_adc_noise_red=0x08
                 	.SET power_ctrl_reg=mcucr
                 	#endif
                 ;#include <i2c.h>
                 ;#include <ds1307.h>
                 ;#include <glcd.h>
                 ;#include <eeprom.h>
                 ;#include <font5x7.h>
                 ;#include <big_letter_10x14.c>
                 ;/****************************************************************************
                 ;Font created by the LCD Vision V1.05 font & image editor/converter
                 ;(C) Copyright 2011-2013 Pavel Haiduc, HP InfoTech s.r.l.
                 ;http://www.hpinfotech.com
                 ;
                 ;Font name: big_letter_10x14
                 ;The font is proportional (has variable width).
                 ;Font height: 14 pixels
                 ;First character: 0x30
                 ;Last character: 0x5A
                 ;
                 ;Exported font data size:
                 ;1251 bytes for displays organized as horizontal rows of bytes
                 ;905 bytes for displays organized as rows of vertical bytes.
                 ;****************************************************************************/
                 ;
                 ;flash unsigned char big_letter_10x14[]=
                 ;{
                 ;0x00, /* Proportional font */
                 ;0x0E, /* Font height */
                 ;0x30, /* First character */
                 ;0x2B, /* Number of characters in font */
                 ;
                 ;/* Character widths */
                 ;0x0A, 0x0A, 0x0A, 0x0A, 0x0A, 0x0A, 0x0A, 0x0A,
                 ;0x0A, 0x0A, 0x0A, 0x0A, 0x0A, 0x0A, 0x0A, 0x0A,
                 ;0x09, 0x0A, 0x0A, 0x0A, 0x0A, 0x0A, 0x0A, 0x0A,
                 ;0x0A, 0x0A, 0x0A, 0x0A, 0x0A, 0x0A, 0x0A, 0x0A,
                 ;0x0A, 0x0A, 0x0A, 0x0A, 0x0A, 0x0A, 0x0A, 0x0A,
                 ;0x0A, 0x0A, 0x0A,
                 ;
                 ;#ifndef _GLCD_DATA_BYTEY_
                 ;/* Font data for displays organized as
                 ;   horizontal rows of bytes */
                 ;
                 ;/* Code: 0x30, ASCII Character: '0' */
                 ;0x78, 0x00, 0xFC, 0x00, 0x86, 0x01, 0x86, 0x01,
                 ;0x86, 0x01, 0x86, 0x01, 0x86, 0x01, 0x86, 0x01,
                 ;0x86, 0x01, 0x86, 0x01, 0x86, 0x01, 0x86, 0x01,
                 ;0xFC, 0x00, 0x78, 0x00,
                 ;
                 ;/* Code: 0x31, ASCII Character: '1' */
                 ;0x30, 0x00, 0x38, 0x00, 0x3C, 0x00, 0x36, 0x00,
                 ;0x32, 0x00, 0x30, 0x00, 0x30, 0x00, 0x30, 0x00,
                 ;0x30, 0x00, 0x30, 0x00, 0x30, 0x00, 0x30, 0x00,
                 ;0xFE, 0x01, 0xFE, 0x01,
                 ;
                 ;/* Code: 0x32, ASCII Character: '2' */
                 ;0x78, 0x00, 0xFC, 0x00, 0x86, 0x01, 0x86, 0x01,
                 ;0x80, 0x01, 0x80, 0x01, 0xC0, 0x00, 0x60, 0x00,
                 ;0x30, 0x00, 0x18, 0x00, 0x0C, 0x00, 0x06, 0x00,
                 ;0xFE, 0x01, 0xFE, 0x01,
                 ;
                 ;/* Code: 0x33, ASCII Character: '3' */
                 ;0x78, 0x00, 0xFC, 0x00, 0x86, 0x01, 0x86, 0x01,
                 ;0x80, 0x01, 0x80, 0x01, 0xF8, 0x00, 0xF8, 0x00,
                 ;0x80, 0x01, 0x80, 0x01, 0x86, 0x01, 0x86, 0x01,
                 ;0xFC, 0x00, 0x78, 0x00,
                 ;
                 ;/* Code: 0x34, ASCII Character: '4' */
                 ;0x80, 0x01, 0xC0, 0x01, 0xE0, 0x01, 0xB0, 0x01,
                 ;0x98, 0x01, 0x8C, 0x01, 0x86, 0x01, 0xFE, 0x03,
                 ;0xFE, 0x03, 0x80, 0x01, 0x80, 0x01, 0x80, 0x01,
                 ;0x80, 0x01, 0x80, 0x01,
                 ;
                 ;/* Code: 0x35, ASCII Character: '5' */
                 ;0xFE, 0x01, 0xFE, 0x01, 0x06, 0x00, 0x06, 0x00,
                 ;0x06, 0x00, 0x7E, 0x00, 0xFE, 0x00, 0x80, 0x01,
                 ;0x80, 0x01, 0x80, 0x01, 0x86, 0x01, 0x86, 0x01,
                 ;0xFC, 0x00, 0x78, 0x00,
                 ;
                 ;/* Code: 0x36, ASCII Character: '6' */
                 ;0x78, 0x00, 0xFC, 0x00, 0x86, 0x01, 0x86, 0x01,
                 ;0x06, 0x00, 0x06, 0x00, 0x7E, 0x00, 0xFE, 0x00,
                 ;0x86, 0x01, 0x86, 0x01, 0x86, 0x01, 0x86, 0x01,
                 ;0xFC, 0x00, 0x78, 0x00,
                 ;
                 ;/* Code: 0x37, ASCII Character: '7' */
                 ;0xFE, 0x01, 0xFE, 0x01, 0x80, 0x01, 0x80, 0x01,
                 ;0xC0, 0x00, 0xC0, 0x00, 0x60, 0x00, 0x60, 0x00,
                 ;0x60, 0x00, 0x70, 0x00, 0x30, 0x00, 0x30, 0x00,
                 ;0x30, 0x00, 0x30, 0x00,
                 ;
                 ;/* Code: 0x38, ASCII Character: '8' */
                 ;0x78, 0x00, 0xFC, 0x00, 0x86, 0x01, 0x86, 0x01,
                 ;0x86, 0x01, 0x86, 0x01, 0xFC, 0x00, 0xFC, 0x00,
                 ;0x86, 0x01, 0x86, 0x01, 0x86, 0x01, 0x86, 0x01,
                 ;0xFC, 0x00, 0x78, 0x00,
                 ;
                 ;/* Code: 0x39, ASCII Character: '9' */
                 ;0x78, 0x00, 0xFC, 0x00, 0x86, 0x01, 0x86, 0x01,
                 ;0x86, 0x01, 0x86, 0x01, 0xFC, 0x01, 0xF8, 0x01,
                 ;0x80, 0x01, 0x80, 0x01, 0x86, 0x01, 0x86, 0x01,
                 ;0xFC, 0x00, 0x78, 0x00,
                 ;
                 ;/* Code: 0x3A, ASCII Character: ':' */
                 ;0x00, 0x00, 0x00, 0x00, 0x30, 0x00, 0x78, 0x00,
                 ;0x78, 0x00, 0x30, 0x00, 0x00, 0x00, 0x00, 0x00,
                 ;0x00, 0x00, 0x30, 0x00, 0x78, 0x00, 0x78, 0x00,
                 ;0x30, 0x00, 0x00, 0x00,
                 ;
                 ;/* Code: 0x3B, ASCII Character: ';' */
                 ;0x00, 0x00, 0x00, 0x00, 0x00, 0x00, 0x00, 0x00,
                 ;0x00, 0x00, 0x00, 0x00, 0x00, 0x00, 0x00, 0x00,
                 ;0x00, 0x00, 0x00, 0x00, 0x00, 0x00, 0x00, 0x00,
                 ;0x00, 0x00, 0x00, 0x00,
                 ;
                 ;/* Code: 0x3C, ASCII Character: '<' */
                 ;0x00, 0x00, 0x00, 0x00, 0x00, 0x00, 0x00, 0x00,
                 ;0x00, 0x00, 0x00, 0x00, 0x00, 0x00, 0x00, 0x00,
                 ;0x00, 0x00, 0x00, 0x00, 0x00, 0x00, 0x00, 0x00,
                 ;0x00, 0x00, 0x00, 0x00,
                 ;
                 ;/* Code: 0x3D, ASCII Character: '=' */
                 ;0x00, 0x00, 0x00, 0x00, 0x00, 0x00, 0x00, 0x00,
                 ;0x00, 0x00, 0x00, 0x00, 0x00, 0x00, 0x00, 0x00,
                 ;0x00, 0x00, 0x00, 0x00, 0x00, 0x00, 0x00, 0x00,
                 ;0x00, 0x00, 0x00, 0x00,
                 ;
                 ;/* Code: 0x3E, ASCII Character: '>' */
                 ;0x00, 0x00, 0x00, 0x00, 0x00, 0x00, 0x00, 0x00,
                 ;0x00, 0x00, 0x00, 0x00, 0x00, 0x00, 0x00, 0x00,
                 ;0x00, 0x00, 0x00, 0x00, 0x00, 0x00, 0x00, 0x00,
                 ;0x00, 0x00, 0x00, 0x00,
                 ;
                 ;/* Code: 0x3F, ASCII Character: '?' */
                 ;0x00, 0x00, 0x00, 0x00, 0x00, 0x00, 0x00, 0x00,
                 ;0x00, 0x00, 0x00, 0x00, 0x00, 0x00, 0x00, 0x00,
                 ;0x00, 0x00, 0x00, 0x00, 0x00, 0x00, 0x00, 0x00,
                 ;0x00, 0x00, 0x00, 0x00,
                 ;
                 ;/* Code: 0x40, ASCII Character: '@' */
                 ;0x00, 0x00, 0x00, 0x00, 0x00, 0x00, 0x00, 0x00,
                 ;0x00, 0x00, 0xFF, 0x01, 0xFE, 0x00, 0x7C, 0x00,
                 ;0x38, 0x00, 0x10, 0x00, 0x00, 0x00, 0x00, 0x00,
                 ;0x00, 0x00, 0x00, 0x00,
                 ;
                 ;/* Code: 0x41, ASCII Character: 'A' */
                 ;0xFC, 0x00, 0xFE, 0x01, 0x03, 0x03, 0x03, 0x03,
                 ;0x03, 0x03, 0x03, 0x03, 0x03, 0x03, 0xFF, 0x03,
                 ;0xFF, 0x03, 0x03, 0x03, 0x03, 0x03, 0x03, 0x03,
                 ;0x03, 0x03, 0x03, 0x03,
                 ;
                 ;/* Code: 0x42, ASCII Character: 'B' */
                 ;0xFF, 0x00, 0xFF, 0x01, 0x03, 0x03, 0x03, 0x03,
                 ;0x03, 0x03, 0x03, 0x03, 0xFF, 0x01, 0xFF, 0x01,
                 ;0x03, 0x03, 0x03, 0x03, 0x03, 0x03, 0x03, 0x03,
                 ;0xFF, 0x01, 0xFF, 0x00,
                 ;
                 ;/* Code: 0x43, ASCII Character: 'C' */
                 ;0xF8, 0x00, 0xFC, 0x01, 0x06, 0x03, 0x03, 0x03,
                 ;0x03, 0x00, 0x03, 0x00, 0x03, 0x00, 0x03, 0x00,
                 ;0x03, 0x00, 0x03, 0x00, 0x03, 0x03, 0x06, 0x03,
                 ;0xFC, 0x01, 0xF8, 0x00,
                 ;
                 ;/* Code: 0x44, ASCII Character: 'D' */
                 ;0x7F, 0x00, 0xFF, 0x00, 0x83, 0x01, 0x03, 0x03,
                 ;0x03, 0x03, 0x03, 0x03, 0x03, 0x03, 0x03, 0x03,
                 ;0x03, 0x03, 0x03, 0x03, 0x03, 0x03, 0x83, 0x01,
                 ;0xFF, 0x00, 0x7F, 0x00,
                 ;
                 ;/* Code: 0x45, ASCII Character: 'E' */
                 ;0xFF, 0x03, 0xFF, 0x03, 0x03, 0x00, 0x03, 0x00,
                 ;0x03, 0x00, 0x03, 0x00, 0xFF, 0x01, 0xFF, 0x01,
                 ;0x03, 0x00, 0x03, 0x00, 0x03, 0x00, 0x03, 0x00,
                 ;0xFF, 0x03, 0xFF, 0x03,
                 ;
                 ;/* Code: 0x46, ASCII Character: 'F' */
                 ;0xFF, 0x03, 0xFF, 0x03, 0x03, 0x00, 0x03, 0x00,
                 ;0x03, 0x00, 0x03, 0x00, 0x7F, 0x00, 0x7F, 0x00,
                 ;0x03, 0x00, 0x03, 0x00, 0x03, 0x00, 0x03, 0x00,
                 ;0x03, 0x00, 0x03, 0x00,
                 ;
                 ;/* Code: 0x47, ASCII Character: 'G' */
                 ;0x78, 0x00, 0xFC, 0x00, 0x86, 0x01, 0x83, 0x01,
                 ;0x03, 0x00, 0x03, 0x00, 0x03, 0x00, 0xC3, 0x03,
                 ;0xC3, 0x03, 0x83, 0x01, 0x83, 0x01, 0x86, 0x01,
                 ;0xFC, 0x01, 0xF8, 0x00,
                 ;
                 ;/* Code: 0x48, ASCII Character: 'H' */
                 ;0x03, 0x03, 0x03, 0x03, 0x03, 0x03, 0x03, 0x03,
                 ;0x03, 0x03, 0x03, 0x03, 0xFF, 0x03, 0xFF, 0x03,
                 ;0x03, 0x03, 0x03, 0x03, 0x03, 0x03, 0x03, 0x03,
                 ;0x03, 0x03, 0x03, 0x03,
                 ;
                 ;/* Code: 0x49, ASCII Character: 'I' */
                 ;0xFC, 0x00, 0xFC, 0x00, 0x30, 0x00, 0x30, 0x00,
                 ;0x30, 0x00, 0x30, 0x00, 0x30, 0x00, 0x30, 0x00,
                 ;0x30, 0x00, 0x30, 0x00, 0x30, 0x00, 0x30, 0x00,
                 ;0xFC, 0x00, 0xFC, 0x00,
                 ;
                 ;/* Code: 0x4A, ASCII Character: 'J' */
                 ;0xF8, 0x01, 0xF8, 0x01, 0x60, 0x00, 0x60, 0x00,
                 ;0x60, 0x00, 0x60, 0x00, 0x60, 0x00, 0x60, 0x00,
                 ;0x60, 0x00, 0x60, 0x00, 0x63, 0x00, 0x63, 0x00,
                 ;0x3E, 0x00, 0x1C, 0x00,
                 ;
                 ;/* Code: 0x4B, ASCII Character: 'K' */
                 ;0x03, 0x03, 0x83, 0x01, 0xC3, 0x00, 0x63, 0x00,
                 ;0x33, 0x00, 0x1B, 0x00, 0x0F, 0x00, 0x0F, 0x00,
                 ;0x1B, 0x00, 0x33, 0x00, 0x63, 0x00, 0xC3, 0x00,
                 ;0x83, 0x01, 0x03, 0x03,
                 ;
                 ;/* Code: 0x4C, ASCII Character: 'L' */
                 ;0x03, 0x00, 0x03, 0x00, 0x03, 0x00, 0x03, 0x00,
                 ;0x03, 0x00, 0x03, 0x00, 0x03, 0x00, 0x03, 0x00,
                 ;0x03, 0x00, 0x03, 0x00, 0x03, 0x00, 0x03, 0x00,
                 ;0xFF, 0x03, 0xFF, 0x03,
                 ;
                 ;/* Code: 0x4D, ASCII Character: 'M' */
                 ;0x03, 0x03, 0x03, 0x03, 0x87, 0x03, 0x87, 0x03,
                 ;0xCF, 0x03, 0x4B, 0x03, 0x7B, 0x03, 0x33, 0x03,
                 ;0x33, 0x03, 0x03, 0x03, 0x03, 0x03, 0x03, 0x03,
                 ;0x03, 0x03, 0x03, 0x03,
                 ;
                 ;/* Code: 0x4E, ASCII Character: 'N' */
                 ;0x03, 0x03, 0x07, 0x03, 0x07, 0x03, 0x0F, 0x03,
                 ;0x0B, 0x03, 0x1B, 0x03, 0x13, 0x03, 0x33, 0x03,
                 ;0x23, 0x03, 0x63, 0x03, 0x43, 0x03, 0xC3, 0x03,
                 ;0x83, 0x03, 0x03, 0x03,
                 ;
                 ;/* Code: 0x4F, ASCII Character: 'O' */
                 ;0x78, 0x00, 0xFC, 0x00, 0x86, 0x01, 0x03, 0x03,
                 ;0x03, 0x03, 0x03, 0x03, 0x03, 0x03, 0x03, 0x03,
                 ;0x03, 0x03, 0x03, 0x03, 0x03, 0x03, 0x86, 0x01,
                 ;0xFC, 0x00, 0x78, 0x00,
                 ;
                 ;/* Code: 0x50, ASCII Character: 'P' */
                 ;0xFF, 0x00, 0xFF, 0x01, 0x83, 0x03, 0x03, 0x03,
                 ;0x03, 0x03, 0x83, 0x03, 0xFF, 0x01, 0xFF, 0x00,
                 ;0x03, 0x00, 0x03, 0x00, 0x03, 0x00, 0x03, 0x00,
                 ;0x03, 0x00, 0x03, 0x00,
                 ;
                 ;/* Code: 0x51, ASCII Character: 'Q' */
                 ;0x78, 0x00, 0xFC, 0x00, 0x86, 0x01, 0x03, 0x03,
                 ;0x03, 0x03, 0x03, 0x03, 0x03, 0x03, 0x03, 0x03,
                 ;0x03, 0x03, 0x03, 0x03, 0x63, 0x03, 0xC6, 0x01,
                 ;0xFC, 0x01, 0x78, 0x03,
                 ;
                 ;/* Code: 0x52, ASCII Character: 'R' */
                 ;0x7F, 0x00, 0xFF, 0x00, 0xC3, 0x01, 0x83, 0x01,
                 ;0x83, 0x01, 0xC3, 0x01, 0xFF, 0x00, 0x7F, 0x00,
                 ;0x1F, 0x00, 0x3B, 0x00, 0x73, 0x00, 0xE3, 0x00,
                 ;0xC3, 0x01, 0x83, 0x03,
                 ;
                 ;/* Code: 0x53, ASCII Character: 'S' */
                 ;0xFC, 0x00, 0xFE, 0x01, 0x03, 0x03, 0x03, 0x03,
                 ;0x03, 0x00, 0x03, 0x00, 0xFE, 0x00, 0xFC, 0x01,
                 ;0x00, 0x03, 0x00, 0x03, 0x03, 0x03, 0x03, 0x03,
                 ;0xFE, 0x01, 0xFC, 0x00,
                 ;
                 ;/* Code: 0x54, ASCII Character: 'T' */
                 ;0xFF, 0x03, 0xFF, 0x03, 0x30, 0x00, 0x30, 0x00,
                 ;0x30, 0x00, 0x30, 0x00, 0x30, 0x00, 0x30, 0x00,
                 ;0x30, 0x00, 0x30, 0x00, 0x30, 0x00, 0x30, 0x00,
                 ;0x30, 0x00, 0x30, 0x00,
                 ;
                 ;/* Code: 0x55, ASCII Character: 'U' */
                 ;0x03, 0x03, 0x03, 0x03, 0x03, 0x03, 0x03, 0x03,
                 ;0x03, 0x03, 0x03, 0x03, 0x03, 0x03, 0x03, 0x03,
                 ;0x03, 0x03, 0x03, 0x03, 0x03, 0x03, 0x03, 0x03,
                 ;0xFE, 0x01, 0xFC, 0x00,
                 ;
                 ;/* Code: 0x56, ASCII Character: 'V' */
                 ;0x03, 0x03, 0x03, 0x03, 0x03, 0x03, 0x03, 0x03,
                 ;0x03, 0x03, 0x03, 0x03, 0x03, 0x03, 0x03, 0x03,
                 ;0x03, 0x03, 0x03, 0x03, 0x86, 0x01, 0xCC, 0x00,
                 ;0x78, 0x00, 0x30, 0x00,
                 ;
                 ;/* Code: 0x57, ASCII Character: 'W' */
                 ;0x03, 0x03, 0x03, 0x03, 0x03, 0x03, 0x03, 0x03,
                 ;0x03, 0x03, 0x33, 0x03, 0x33, 0x03, 0x7B, 0x03,
                 ;0x4B, 0x03, 0xCF, 0x03, 0x87, 0x03, 0x87, 0x03,
                 ;0x03, 0x03, 0x03, 0x03,
                 ;
                 ;/* Code: 0x58, ASCII Character: 'X' */
                 ;0x03, 0x03, 0x03, 0x03, 0x03, 0x03, 0x03, 0x03,
                 ;0x86, 0x01, 0xCC, 0x00, 0x78, 0x00, 0xFC, 0x00,
                 ;0xCE, 0x01, 0x87, 0x03, 0x03, 0x03, 0x03, 0x03,
                 ;0x03, 0x03, 0x03, 0x03,
                 ;
                 ;/* Code: 0x59, ASCII Character: 'Y' */
                 ;0x03, 0x03, 0x03, 0x03, 0x03, 0x03, 0x03, 0x03,
                 ;0x03, 0x03, 0x86, 0x01, 0xCC, 0x00, 0x78, 0x00,
                 ;0x30, 0x00, 0x30, 0x00, 0x30, 0x00, 0x30, 0x00,
                 ;0x30, 0x00, 0x30, 0x00,
                 ;
                 ;/* Code: 0x5A, ASCII Character: 'Z' */
                 ;0xFF, 0x03, 0xFF, 0x03, 0x00, 0x03, 0x80, 0x01,
                 ;0xC0, 0x00, 0x60, 0x00, 0x30, 0x00, 0x18, 0x00,
                 ;0x0C, 0x00, 0x06, 0x00, 0x03, 0x00, 0x03, 0x00,
                 ;0xFF, 0x03, 0xFF, 0x03,
                 ;
                 ;#else
                 ;/* Font data for displays organized as
                 ;   rows of vertical bytes */
                 ;
                 ;/* Code: 0x30, ASCII Character: '0' */
                 ;0x00, 0xFC, 0xFE, 0x03, 0x03, 0x03, 0x03, 0xFE,
                 ;0xFC, 0x00, 0x00, 0x0F, 0x1F, 0x30, 0x30, 0x30,
                 ;0x30, 0x1F, 0x0F, 0x00,
                 ;
                 ;/* Code: 0x31, ASCII Character: '1' */
                 ;0x00, 0x18, 0x0C, 0x06, 0xFF, 0xFF, 0x00, 0x00,
                 ;0x00, 0x00, 0x00, 0x30, 0x30, 0x30, 0x3F, 0x3F,
                 ;0x30, 0x30, 0x30, 0x00,
                 ;
                 ;/* Code: 0x32, ASCII Character: '2' */
                 ;0x00, 0x0C, 0x0E, 0x03, 0x03, 0x83, 0xC3, 0x7E,
                 ;0x3C, 0x00, 0x00, 0x38, 0x3C, 0x36, 0x33, 0x31,
                 ;0x30, 0x30, 0x30, 0x00,
                 ;
                 ;/* Code: 0x33, ASCII Character: '3' */
                 ;0x00, 0x0C, 0x0E, 0xC3, 0xC3, 0xC3, 0xC3, 0xFE,
                 ;0x3C, 0x00, 0x00, 0x0C, 0x1C, 0x30, 0x30, 0x30,
                 ;0x30, 0x1F, 0x0F, 0x00,
                 ;
                 ;/* Code: 0x34, ASCII Character: '4' */
                 ;0x00, 0xC0, 0xE0, 0xB0, 0x98, 0x8C, 0x86, 0xFF,
                 ;0xFF, 0x80, 0x00, 0x01, 0x01, 0x01, 0x01, 0x01,
                 ;0x01, 0x3F, 0x3F, 0x01,
                 ;
                 ;/* Code: 0x35, ASCII Character: '5' */
                 ;0x00, 0x7F, 0x7F, 0x63, 0x63, 0x63, 0x63, 0xC3,
                 ;0x83, 0x00, 0x00, 0x0C, 0x1C, 0x30, 0x30, 0x30,
                 ;0x30, 0x1F, 0x0F, 0x00,
                 ;
                 ;/* Code: 0x36, ASCII Character: '6' */
                 ;0x00, 0xFC, 0xFE, 0xC3, 0xC3, 0xC3, 0xC3, 0x8E,
                 ;0x0C, 0x00, 0x00, 0x0F, 0x1F, 0x30, 0x30, 0x30,
                 ;0x30, 0x1F, 0x0F, 0x00,
                 ;
                 ;/* Code: 0x37, ASCII Character: '7' */
                 ;0x00, 0x03, 0x03, 0x03, 0x03, 0xC3, 0xF3, 0x3F,
                 ;0x0F, 0x00, 0x00, 0x00, 0x00, 0x00, 0x3E, 0x3F,
                 ;0x03, 0x00, 0x00, 0x00,
                 ;
                 ;/* Code: 0x38, ASCII Character: '8' */
                 ;0x00, 0x3C, 0xFE, 0xC3, 0xC3, 0xC3, 0xC3, 0xFE,
                 ;0x3C, 0x00, 0x00, 0x0F, 0x1F, 0x30, 0x30, 0x30,
                 ;0x30, 0x1F, 0x0F, 0x00,
                 ;
                 ;/* Code: 0x39, ASCII Character: '9' */
                 ;0x00, 0x3C, 0x7E, 0xC3, 0xC3, 0xC3, 0xC3, 0xFE,
                 ;0xFC, 0x00, 0x00, 0x0C, 0x1C, 0x30, 0x30, 0x30,
                 ;0x30, 0x1F, 0x0F, 0x00,
                 ;
                 ;/* Code: 0x3A, ASCII Character: ':' */
                 ;0x00, 0x00, 0x00, 0x18, 0x3C, 0x3C, 0x18, 0x00,
                 ;0x00, 0x00, 0x00, 0x00, 0x00, 0x0C, 0x1E, 0x1E,
                 ;0x0C, 0x00, 0x00, 0x00,
                 ;
                 ;/* Code: 0x3B, ASCII Character: ';' */
                 ;0x00, 0x00, 0x00, 0x00, 0x00, 0x00, 0x00, 0x00,
                 ;0x00, 0x00, 0x00, 0x00, 0x00, 0x00, 0x00, 0x00,
                 ;0x00, 0x00, 0x00, 0x00,
                 ;
                 ;/* Code: 0x3C, ASCII Character: '<' */
                 ;0x00, 0x00, 0x00, 0x00, 0x00, 0x00, 0x00, 0x00,
                 ;0x00, 0x00, 0x00, 0x00, 0x00, 0x00, 0x00, 0x00,
                 ;0x00, 0x00, 0x00, 0x00,
                 ;
                 ;/* Code: 0x3D, ASCII Character: '=' */
                 ;0x00, 0x00, 0x00, 0x00, 0x00, 0x00, 0x00, 0x00,
                 ;0x00, 0x00, 0x00, 0x00, 0x00, 0x00, 0x00, 0x00,
                 ;0x00, 0x00, 0x00, 0x00,
                 ;
                 ;/* Code: 0x3E, ASCII Character: '>' */
                 ;0x00, 0x00, 0x00, 0x00, 0x00, 0x00, 0x00, 0x00,
                 ;0x00, 0x00, 0x00, 0x00, 0x00, 0x00, 0x00, 0x00,
                 ;0x00, 0x00, 0x00, 0x00,
                 ;
                 ;/* Code: 0x3F, ASCII Character: '?' */
                 ;0x00, 0x00, 0x00, 0x00, 0x00, 0x00, 0x00, 0x00,
                 ;0x00, 0x00, 0x00, 0x00, 0x00, 0x00, 0x00, 0x00,
                 ;0x00, 0x00, 0x00, 0x00,
                 ;
                 ;/* Code: 0x40, ASCII Character: '@' */
                 ;0x20, 0x60, 0xE0, 0xE0, 0xE0, 0xE0, 0xE0, 0x60,
                 ;0x20, 0x00, 0x00, 0x00, 0x01, 0x03, 0x01, 0x00,
                 ;0x00, 0x00,
                 ;
                 ;/* Code: 0x41, ASCII Character: 'A' */
                 ;0xFC, 0xFE, 0x83, 0x83, 0x83, 0x83, 0x83, 0x83,
                 ;0xFE, 0xFC, 0x3F, 0x3F, 0x01, 0x01, 0x01, 0x01,
                 ;0x01, 0x01, 0x3F, 0x3F,
                 ;
                 ;/* Code: 0x42, ASCII Character: 'B' */
                 ;0xFF, 0xFF, 0xC3, 0xC3, 0xC3, 0xC3, 0xC3, 0xC3,
                 ;0xFE, 0x3C, 0x3F, 0x3F, 0x30, 0x30, 0x30, 0x30,
                 ;0x30, 0x30, 0x1F, 0x0F,
                 ;
                 ;/* Code: 0x43, ASCII Character: 'C' */
                 ;0xF8, 0xFC, 0x06, 0x03, 0x03, 0x03, 0x03, 0x03,
                 ;0x0E, 0x0C, 0x07, 0x0F, 0x18, 0x30, 0x30, 0x30,
                 ;0x30, 0x30, 0x1C, 0x0C,
                 ;
                 ;/* Code: 0x44, ASCII Character: 'D' */
                 ;0xFF, 0xFF, 0x03, 0x03, 0x03, 0x03, 0x03, 0x06,
                 ;0xFC, 0xF8, 0x3F, 0x3F, 0x30, 0x30, 0x30, 0x30,
                 ;0x30, 0x18, 0x0F, 0x07,
                 ;
                 ;/* Code: 0x45, ASCII Character: 'E' */
                 ;0xFF, 0xFF, 0xC3, 0xC3, 0xC3, 0xC3, 0xC3, 0xC3,
                 ;0xC3, 0x03, 0x3F, 0x3F, 0x30, 0x30, 0x30, 0x30,
                 ;0x30, 0x30, 0x30, 0x30,
                 ;
                 ;/* Code: 0x46, ASCII Character: 'F' */
                 ;0xFF, 0xFF, 0xC3, 0xC3, 0xC3, 0xC3, 0xC3, 0x03,
                 ;0x03, 0x03, 0x3F, 0x3F, 0x00, 0x00, 0x00, 0x00,
                 ;0x00, 0x00, 0x00, 0x00,
                 ;
                 ;/* Code: 0x47, ASCII Character: 'G' */
                 ;0xF8, 0xFC, 0x06, 0x03, 0x03, 0x03, 0x83, 0x8E,
                 ;0x8C, 0x80, 0x07, 0x0F, 0x18, 0x30, 0x30, 0x30,
                 ;0x31, 0x3F, 0x1F, 0x01,
                 ;
                 ;/* Code: 0x48, ASCII Character: 'H' */
                 ;0xFF, 0xFF, 0xC0, 0xC0, 0xC0, 0xC0, 0xC0, 0xC0,
                 ;0xFF, 0xFF, 0x3F, 0x3F, 0x00, 0x00, 0x00, 0x00,
                 ;0x00, 0x00, 0x3F, 0x3F,
                 ;
                 ;/* Code: 0x49, ASCII Character: 'I' */
                 ;0x00, 0x00, 0x03, 0x03, 0xFF, 0xFF, 0x03, 0x03,
                 ;0x00, 0x00, 0x00, 0x00, 0x30, 0x30, 0x3F, 0x3F,
                 ;0x30, 0x30, 0x00, 0x00,
                 ;
                 ;/* Code: 0x4A, ASCII Character: 'J' */
                 ;0x00, 0x00, 0x00, 0x03, 0x03, 0xFF, 0xFF, 0x03,
                 ;0x03, 0x00, 0x0C, 0x1C, 0x30, 0x30, 0x30, 0x1F,
                 ;0x0F, 0x00, 0x00, 0x00,
                 ;
                 ;/* Code: 0x4B, ASCII Character: 'K' */
                 ;0xFF, 0xFF, 0xC0, 0xE0, 0x30, 0x18, 0x0C, 0x06,
                 ;0x03, 0x01, 0x3F, 0x3F, 0x00, 0x01, 0x03, 0x06,
                 ;0x0C, 0x18, 0x30, 0x20,
                 ;
                 ;/* Code: 0x4C, ASCII Character: 'L' */
                 ;0xFF, 0xFF, 0x00, 0x00, 0x00, 0x00, 0x00, 0x00,
                 ;0x00, 0x00, 0x3F, 0x3F, 0x30, 0x30, 0x30, 0x30,
                 ;0x30, 0x30, 0x30, 0x30,
                 ;
                 ;/* Code: 0x4D, ASCII Character: 'M' */
                 ;0xFF, 0xFF, 0x1C, 0x70, 0xC0, 0xC0, 0x70, 0x1C,
                 ;0xFF, 0xFF, 0x3F, 0x3F, 0x00, 0x00, 0x01, 0x01,
                 ;0x00, 0x00, 0x3F, 0x3F,
                 ;
                 ;/* Code: 0x4E, ASCII Character: 'N' */
                 ;0xFF, 0xFF, 0x0E, 0x38, 0xE0, 0x80, 0x00, 0x00,
                 ;0xFF, 0xFF, 0x3F, 0x3F, 0x00, 0x00, 0x00, 0x03,
                 ;0x0E, 0x18, 0x3F, 0x3F,
                 ;
                 ;/* Code: 0x4F, ASCII Character: 'O' */
                 ;0xF8, 0xFC, 0x06, 0x03, 0x03, 0x03, 0x03, 0x06,
                 ;0xFC, 0xF8, 0x07, 0x0F, 0x18, 0x30, 0x30, 0x30,
                 ;0x30, 0x18, 0x0F, 0x07,
                 ;
                 ;/* Code: 0x50, ASCII Character: 'P' */
                 ;0xFF, 0xFF, 0xC3, 0xC3, 0xC3, 0xC3, 0xC3, 0xE7,
                 ;0x7E, 0x3C, 0x3F, 0x3F, 0x00, 0x00, 0x00, 0x00,
                 ;0x00, 0x00, 0x00, 0x00,
                 ;
                 ;/* Code: 0x51, ASCII Character: 'Q' */
                 ;0xF8, 0xFC, 0x06, 0x03, 0x03, 0x03, 0x03, 0x06,
                 ;0xFC, 0xF8, 0x07, 0x0F, 0x18, 0x30, 0x30, 0x34,
                 ;0x3C, 0x18, 0x3F, 0x27,
                 ;
                 ;/* Code: 0x52, ASCII Character: 'R' */
                 ;0xFF, 0xFF, 0xC3, 0xC3, 0xC3, 0xC3, 0xE7, 0x7E,
                 ;0x3C, 0x00, 0x3F, 0x3F, 0x01, 0x03, 0x07, 0x0E,
                 ;0x1C, 0x38, 0x30, 0x20,
                 ;
                 ;/* Code: 0x53, ASCII Character: 'S' */
                 ;0x3C, 0x7E, 0xC3, 0xC3, 0xC3, 0xC3, 0xC3, 0xC3,
                 ;0x8E, 0x0C, 0x0C, 0x1C, 0x30, 0x30, 0x30, 0x30,
                 ;0x30, 0x30, 0x1F, 0x0F,
                 ;
                 ;/* Code: 0x54, ASCII Character: 'T' */
                 ;0x03, 0x03, 0x03, 0x03, 0xFF, 0xFF, 0x03, 0x03,
                 ;0x03, 0x03, 0x00, 0x00, 0x00, 0x00, 0x3F, 0x3F,
                 ;0x00, 0x00, 0x00, 0x00,
                 ;
                 ;/* Code: 0x55, ASCII Character: 'U' */
                 ;0xFF, 0xFF, 0x00, 0x00, 0x00, 0x00, 0x00, 0x00,
                 ;0xFF, 0xFF, 0x0F, 0x1F, 0x30, 0x30, 0x30, 0x30,
                 ;0x30, 0x30, 0x1F, 0x0F,
                 ;
                 ;/* Code: 0x56, ASCII Character: 'V' */
                 ;0xFF, 0xFF, 0x00, 0x00, 0x00, 0x00, 0x00, 0x00,
                 ;0xFF, 0xFF, 0x03, 0x07, 0x0C, 0x18, 0x30, 0x30,
                 ;0x18, 0x0C, 0x07, 0x03,
                 ;
                 ;/* Code: 0x57, ASCII Character: 'W' */
                 ;0xFF, 0xFF, 0x00, 0x80, 0xE0, 0xE0, 0x80, 0x00,
                 ;0xFF, 0xFF, 0x3F, 0x3F, 0x0E, 0x03, 0x00, 0x00,
                 ;0x03, 0x0E, 0x3F, 0x3F,
                 ;
                 ;/* Code: 0x58, ASCII Character: 'X' */
                 ;0x0F, 0x1F, 0xB0, 0xE0, 0xC0, 0xC0, 0xE0, 0xB0,
                 ;0x1F, 0x0F, 0x3E, 0x3F, 0x03, 0x01, 0x00, 0x00,
                 ;0x01, 0x03, 0x3F, 0x3E,
                 ;
                 ;/* Code: 0x59, ASCII Character: 'Y' */
                 ;0x1F, 0x3F, 0x60, 0xC0, 0x80, 0x80, 0xC0, 0x60,
                 ;0x3F, 0x1F, 0x00, 0x00, 0x00, 0x00, 0x3F, 0x3F,
                 ;0x00, 0x00, 0x00, 0x00,
                 ;
                 ;/* Code: 0x5A, ASCII Character: 'Z' */
                 ;0x03, 0x03, 0x03, 0x83, 0xC3, 0x63, 0x33, 0x1B,
                 ;0x0F, 0x07, 0x3C, 0x3E, 0x33, 0x31, 0x30, 0x30,
                 ;0x30, 0x30, 0x30, 0x30,
                 ;
                 ;#endif
                 ;};
                 ;
                 ;#include <tiny_letter.c>
                 ;/****************************************************************************
                 ;Font created by the LCD Vision V1.05 font & image editor/converter
                 ;(C) Copyright 2011-2013 Pavel Haiduc, HP InfoTech s.r.l.
                 ;http://www.hpinfotech.com
                 ;
                 ;Font name: tiny_letter
                 ;The font is proportional (has variable width).
                 ;Font height: 5 pixels
                 ;First character: 0x20
                 ;Last character: 0x5A
                 ;
                 ;Exported font data size:
                 ;358 bytes for displays organized as horizontal rows of bytes
                 ;288 bytes for displays organized as rows of vertical bytes.
                 ;****************************************************************************/
                 ;
                 ;flash unsigned char tiny_letter[]=
                 ;{
                 ;0x00, /* Proportional font */
                 ;0x05, /* Font height */
                 ;0x20, /* First character */
                 ;0x3B, /* Number of characters in font */
                 ;
                 ;/* Character widths */
                 ;0x01, 0x04, 0x03, 0x04, 0x04, 0x04, 0x04, 0x04,
                 ;0x04, 0x04, 0x04, 0x04, 0x04, 0x04, 0x04, 0x04,
                 ;0x04, 0x03, 0x04, 0x04, 0x04, 0x04, 0x04, 0x04,
                 ;0x04, 0x04, 0x03, 0x04, 0x04, 0x04, 0x04, 0x04,
                 ;0x04, 0x04, 0x04, 0x04, 0x04, 0x04, 0x04, 0x04,
                 ;0x04, 0x01, 0x04, 0x04, 0x03, 0x05, 0x04, 0x04,
                 ;0x04, 0x04, 0x04, 0x04, 0x03, 0x04, 0x04, 0x05,
                 ;0x04, 0x03, 0x03,
                 ;
                 ;#ifndef _GLCD_DATA_BYTEY_
                 ;/* Font data for displays organized as
                 ;   horizontal rows of bytes */
                 ;
                 ;/* Code: 0x20, ASCII Character: ' ' */
                 ;0x00, 0x00, 0x00, 0x00, 0x00,
                 ;
                 ;/* Code: 0x21, ASCII Character: '!' */
                 ;0x00, 0x00, 0x00, 0x00, 0x00,
                 ;
                 ;/* Code: 0x22, ASCII Character: '"' */
                 ;0x00, 0x00, 0x00, 0x00, 0x00,
                 ;
                 ;/* Code: 0x23, ASCII Character: '#' */
                 ;0x00, 0x00, 0x00, 0x00, 0x00,
                 ;
                 ;/* Code: 0x24, ASCII Character: '$' */
                 ;0x00, 0x00, 0x00, 0x00, 0x00,
                 ;
                 ;/* Code: 0x25, ASCII Character: '%' */
                 ;0x00, 0x00, 0x00, 0x00, 0x00,
                 ;
                 ;/* Code: 0x26, ASCII Character: '&' */
                 ;0x00, 0x00, 0x00, 0x00, 0x00,
                 ;
                 ;/* Code: 0x27, ASCII Character: ''' */
                 ;0x00, 0x00, 0x00, 0x00, 0x00,
                 ;
                 ;/* Code: 0x28, ASCII Character: '(' */
                 ;0x00, 0x00, 0x00, 0x00, 0x00,
                 ;
                 ;/* Code: 0x29, ASCII Character: ')' */
                 ;0x00, 0x00, 0x00, 0x00, 0x00,
                 ;
                 ;/* Code: 0x2A, ASCII Character: '*' */
                 ;0x00, 0x00, 0x00, 0x00, 0x00,
                 ;
                 ;/* Code: 0x2B, ASCII Character: '+' */
                 ;0x00, 0x00, 0x00, 0x00, 0x00,
                 ;
                 ;/* Code: 0x2C, ASCII Character: ',' */
                 ;0x00, 0x00, 0x00, 0x00, 0x00,
                 ;
                 ;/* Code: 0x2D, ASCII Character: '-' */
                 ;0x00, 0x00, 0x00, 0x00, 0x00,
                 ;
                 ;/* Code: 0x2E, ASCII Character: '.' */
                 ;0x00, 0x00, 0x00, 0x00, 0x00,
                 ;
                 ;/* Code: 0x2F, ASCII Character: '/' */
                 ;0x04, 0x02, 0x02, 0x01, 0x01,
                 ;
                 ;/* Code: 0x30, ASCII Character: '0' */
                 ;0x06, 0x09, 0x09, 0x09, 0x06,
                 ;
                 ;/* Code: 0x31, ASCII Character: '1' */
                 ;0x02, 0x03, 0x02, 0x02, 0x07,
                 ;
                 ;/* Code: 0x32, ASCII Character: '2' */
                 ;0x07, 0x08, 0x06, 0x01, 0x0F,
                 ;
                 ;/* Code: 0x33, ASCII Character: '3' */
                 ;0x07, 0x08, 0x06, 0x08, 0x07,
                 ;
                 ;/* Code: 0x34, ASCII Character: '4' */
                 ;0x04, 0x06, 0x05, 0x0F, 0x04,
                 ;
                 ;/* Code: 0x35, ASCII Character: '5' */
                 ;0x0F, 0x01, 0x07, 0x08, 0x07,
                 ;
                 ;/* Code: 0x36, ASCII Character: '6' */
                 ;0x06, 0x01, 0x07, 0x09, 0x06,
                 ;
                 ;/* Code: 0x37, ASCII Character: '7' */
                 ;0x0F, 0x08, 0x04, 0x02, 0x02,
                 ;
                 ;/* Code: 0x38, ASCII Character: '8' */
                 ;0x06, 0x09, 0x06, 0x09, 0x06,
                 ;
                 ;/* Code: 0x39, ASCII Character: '9' */
                 ;0x06, 0x09, 0x0E, 0x08, 0x06,
                 ;
                 ;/* Code: 0x3A, ASCII Character: ':' */
                 ;0x00, 0x02, 0x00, 0x02, 0x00,
                 ;
                 ;/* Code: 0x3B, ASCII Character: ';' */
                 ;0x00, 0x04, 0x00, 0x04, 0x02,
                 ;
                 ;/* Code: 0x3C, ASCII Character: '<' */
                 ;0x04, 0x02, 0x01, 0x02, 0x04,
                 ;
                 ;/* Code: 0x3D, ASCII Character: '=' */
                 ;0x00, 0x0F, 0x00, 0x0F, 0x00,
                 ;
                 ;/* Code: 0x3E, ASCII Character: '>' */
                 ;0x02, 0x04, 0x08, 0x04, 0x02,
                 ;
                 ;/* Code: 0x3F, ASCII Character: '?' */
                 ;0x06, 0x08, 0x04, 0x00, 0x04,
                 ;
                 ;/* Code: 0x40, ASCII Character: '@' */
                 ;0x00, 0x00, 0x00, 0x00, 0x00,
                 ;
                 ;/* Code: 0x41, ASCII Character: 'A' */
                 ;0x06, 0x09, 0x0F, 0x09, 0x09,
                 ;
                 ;/* Code: 0x42, ASCII Character: 'B' */
                 ;0x07, 0x09, 0x07, 0x09, 0x07,
                 ;
                 ;/* Code: 0x43, ASCII Character: 'C' */
                 ;0x06, 0x09, 0x01, 0x09, 0x06,
                 ;
                 ;/* Code: 0x44, ASCII Character: 'D' */
                 ;0x07, 0x09, 0x09, 0x09, 0x07,
                 ;
                 ;/* Code: 0x45, ASCII Character: 'E' */
                 ;0x0F, 0x01, 0x07, 0x01, 0x0F,
                 ;
                 ;/* Code: 0x46, ASCII Character: 'F' */
                 ;0x0F, 0x01, 0x07, 0x01, 0x01,
                 ;
                 ;/* Code: 0x47, ASCII Character: 'G' */
                 ;0x06, 0x09, 0x01, 0x0D, 0x06,
                 ;
                 ;/* Code: 0x48, ASCII Character: 'H' */
                 ;0x09, 0x09, 0x0F, 0x09, 0x09,
                 ;
                 ;/* Code: 0x49, ASCII Character: 'I' */
                 ;0x01, 0x01, 0x01, 0x01, 0x01,
                 ;
                 ;/* Code: 0x4A, ASCII Character: 'J' */
                 ;0x0E, 0x04, 0x04, 0x05, 0x02,
                 ;
                 ;/* Code: 0x4B, ASCII Character: 'K' */
                 ;0x09, 0x05, 0x03, 0x05, 0x09,
                 ;
                 ;/* Code: 0x4C, ASCII Character: 'L' */
                 ;0x01, 0x01, 0x01, 0x01, 0x07,
                 ;
                 ;/* Code: 0x4D, ASCII Character: 'M' */
                 ;0x11, 0x1B, 0x15, 0x11, 0x11,
                 ;
                 ;/* Code: 0x4E, ASCII Character: 'N' */
                 ;0x09, 0x0B, 0x0D, 0x09, 0x09,
                 ;
                 ;/* Code: 0x4F, ASCII Character: 'O' */
                 ;0x06, 0x09, 0x09, 0x09, 0x06,
                 ;
                 ;/* Code: 0x50, ASCII Character: 'P' */
                 ;0x07, 0x09, 0x07, 0x01, 0x01,
                 ;
                 ;/* Code: 0x51, ASCII Character: 'Q' */
                 ;0x06, 0x09, 0x09, 0x0D, 0x0E,
                 ;
                 ;/* Code: 0x52, ASCII Character: 'R' */
                 ;0x07, 0x09, 0x07, 0x05, 0x09,
                 ;
                 ;/* Code: 0x53, ASCII Character: 'S' */
                 ;0x0E, 0x01, 0x06, 0x08, 0x07,
                 ;
                 ;/* Code: 0x54, ASCII Character: 'T' */
                 ;0x07, 0x02, 0x02, 0x02, 0x02,
                 ;
                 ;/* Code: 0x55, ASCII Character: 'U' */
                 ;0x09, 0x09, 0x09, 0x09, 0x06,
                 ;
                 ;/* Code: 0x56, ASCII Character: 'V' */
                 ;0x09, 0x09, 0x09, 0x06, 0x06,
                 ;
                 ;/* Code: 0x57, ASCII Character: 'W' */
                 ;0x11, 0x11, 0x15, 0x1B, 0x11,
                 ;
                 ;/* Code: 0x58, ASCII Character: 'X' */
                 ;0x09, 0x09, 0x06, 0x09, 0x09,
                 ;
                 ;/* Code: 0x59, ASCII Character: 'Y' */
                 ;0x05, 0x05, 0x02, 0x02, 0x02,
                 ;
                 ;/* Code: 0x5A, ASCII Character: 'Z' */
                 ;0x07, 0x04, 0x02, 0x01, 0x07,
                 ;
                 ;#else
                 ;/* Font data for displays organized as
                 ;   rows of vertical bytes */
                 ;
                 ;/* Code: 0x20, ASCII Character: ' ' */
                 ;0x00,
                 ;
                 ;/* Code: 0x21, ASCII Character: '!' */
                 ;0x00, 0x00, 0x00, 0x00,
                 ;
                 ;/* Code: 0x22, ASCII Character: '"' */
                 ;0x00, 0x00, 0x00,
                 ;
                 ;/* Code: 0x23, ASCII Character: '#' */
                 ;0x00, 0x00, 0x00, 0x00,
                 ;
                 ;/* Code: 0x24, ASCII Character: '$' */
                 ;0x00, 0x00, 0x00, 0x00,
                 ;
                 ;/* Code: 0x25, ASCII Character: '%' */
                 ;0x00, 0x00, 0x00, 0x00,
                 ;
                 ;/* Code: 0x26, ASCII Character: '&' */
                 ;0x00, 0x00, 0x00, 0x00,
                 ;
                 ;/* Code: 0x27, ASCII Character: ''' */
                 ;0x00, 0x00, 0x00, 0x00,
                 ;
                 ;/* Code: 0x28, ASCII Character: '(' */
                 ;0x00, 0x00, 0x00, 0x00,
                 ;
                 ;/* Code: 0x29, ASCII Character: ')' */
                 ;0x00, 0x00, 0x00, 0x00,
                 ;
                 ;/* Code: 0x2A, ASCII Character: '*' */
                 ;0x00, 0x00, 0x00, 0x00,
                 ;
                 ;/* Code: 0x2B, ASCII Character: '+' */
                 ;0x00, 0x00, 0x00, 0x00,
                 ;
                 ;/* Code: 0x2C, ASCII Character: ',' */
                 ;0x00, 0x00, 0x00, 0x00,
                 ;
                 ;/* Code: 0x2D, ASCII Character: '-' */
                 ;0x00, 0x00, 0x00, 0x00,
                 ;
                 ;/* Code: 0x2E, ASCII Character: '.' */
                 ;0x00, 0x00, 0x00, 0x00,
                 ;
                 ;/* Code: 0x2F, ASCII Character: '/' */
                 ;0x18, 0x06, 0x01, 0x00,
                 ;
                 ;/* Code: 0x30, ASCII Character: '0' */
                 ;0x0E, 0x11, 0x11, 0x0E,
                 ;
                 ;/* Code: 0x31, ASCII Character: '1' */
                 ;0x12, 0x1F, 0x10,
                 ;
                 ;/* Code: 0x32, ASCII Character: '2' */
                 ;0x19, 0x15, 0x15, 0x12,
                 ;
                 ;/* Code: 0x33, ASCII Character: '3' */
                 ;0x11, 0x15, 0x15, 0x0A,
                 ;
                 ;/* Code: 0x34, ASCII Character: '4' */
                 ;0x0C, 0x0A, 0x1F, 0x08,
                 ;
                 ;/* Code: 0x35, ASCII Character: '5' */
                 ;0x17, 0x15, 0x15, 0x09,
                 ;
                 ;/* Code: 0x36, ASCII Character: '6' */
                 ;0x0E, 0x15, 0x15, 0x08,
                 ;
                 ;/* Code: 0x37, ASCII Character: '7' */
                 ;0x01, 0x19, 0x05, 0x03,
                 ;
                 ;/* Code: 0x38, ASCII Character: '8' */
                 ;0x0A, 0x15, 0x15, 0x0A,
                 ;
                 ;/* Code: 0x39, ASCII Character: '9' */
                 ;0x02, 0x15, 0x15, 0x0E,
                 ;
                 ;/* Code: 0x3A, ASCII Character: ':' */
                 ;0x00, 0x0A, 0x00,
                 ;
                 ;/* Code: 0x3B, ASCII Character: ';' */
                 ;0x00, 0x10, 0x0A, 0x00,
                 ;
                 ;/* Code: 0x3C, ASCII Character: '<' */
                 ;0x04, 0x0A, 0x11, 0x00,
                 ;
                 ;/* Code: 0x3D, ASCII Character: '=' */
                 ;0x0A, 0x0A, 0x0A, 0x0A,
                 ;
                 ;/* Code: 0x3E, ASCII Character: '>' */
                 ;0x00, 0x11, 0x0A, 0x04,
                 ;
                 ;/* Code: 0x3F, ASCII Character: '?' */
                 ;0x00, 0x01, 0x15, 0x02,
                 ;
                 ;/* Code: 0x40, ASCII Character: '@' */
                 ;0x00, 0x00, 0x00, 0x00,
                 ;
                 ;/* Code: 0x41, ASCII Character: 'A' */
                 ;0x1E, 0x05, 0x05, 0x1E,
                 ;
                 ;/* Code: 0x42, ASCII Character: 'B' */
                 ;0x1F, 0x15, 0x15, 0x0A,
                 ;
                 ;/* Code: 0x43, ASCII Character: 'C' */
                 ;0x0E, 0x11, 0x11, 0x0A,
                 ;
                 ;/* Code: 0x44, ASCII Character: 'D' */
                 ;0x1F, 0x11, 0x11, 0x0E,
                 ;
                 ;/* Code: 0x45, ASCII Character: 'E' */
                 ;0x1F, 0x15, 0x15, 0x11,
                 ;
                 ;/* Code: 0x46, ASCII Character: 'F' */
                 ;0x1F, 0x05, 0x05, 0x01,
                 ;
                 ;/* Code: 0x47, ASCII Character: 'G' */
                 ;0x0E, 0x11, 0x19, 0x0A,
                 ;
                 ;/* Code: 0x48, ASCII Character: 'H' */
                 ;0x1F, 0x04, 0x04, 0x1F,
                 ;
                 ;/* Code: 0x49, ASCII Character: 'I' */
                 ;0x1F,
                 ;
                 ;/* Code: 0x4A, ASCII Character: 'J' */
                 ;0x08, 0x11, 0x0F, 0x01,
                 ;
                 ;/* Code: 0x4B, ASCII Character: 'K' */
                 ;0x1F, 0x04, 0x0A, 0x11,
                 ;
                 ;/* Code: 0x4C, ASCII Character: 'L' */
                 ;0x1F, 0x10, 0x10,
                 ;
                 ;/* Code: 0x4D, ASCII Character: 'M' */
                 ;0x1F, 0x02, 0x04, 0x02, 0x1F,
                 ;
                 ;/* Code: 0x4E, ASCII Character: 'N' */
                 ;0x1F, 0x02, 0x04, 0x1F,
                 ;
                 ;/* Code: 0x4F, ASCII Character: 'O' */
                 ;0x0E, 0x11, 0x11, 0x0E,
                 ;
                 ;/* Code: 0x50, ASCII Character: 'P' */
                 ;0x1F, 0x05, 0x05, 0x02,
                 ;
                 ;/* Code: 0x51, ASCII Character: 'Q' */
                 ;0x0E, 0x11, 0x19, 0x1E,
                 ;
                 ;/* Code: 0x52, ASCII Character: 'R' */
                 ;0x1F, 0x05, 0x0D, 0x12,
                 ;
                 ;/* Code: 0x53, ASCII Character: 'S' */
                 ;0x12, 0x15, 0x15, 0x09,
                 ;
                 ;/* Code: 0x54, ASCII Character: 'T' */
                 ;0x01, 0x1F, 0x01,
                 ;
                 ;/* Code: 0x55, ASCII Character: 'U' */
                 ;0x0F, 0x10, 0x10, 0x0F,
                 ;
                 ;/* Code: 0x56, ASCII Character: 'V' */
                 ;0x07, 0x18, 0x18, 0x07,
                 ;
                 ;/* Code: 0x57, ASCII Character: 'W' */
                 ;0x1F, 0x08, 0x04, 0x08, 0x1F,
                 ;
                 ;/* Code: 0x58, ASCII Character: 'X' */
                 ;0x1B, 0x04, 0x04, 0x1B,
                 ;
                 ;/* Code: 0x59, ASCII Character: 'Y' */
                 ;0x03, 0x1C, 0x03,
                 ;
                 ;/* Code: 0x5A, ASCII Character: 'Z' */
                 ;0x19, 0x15, 0x13,
                 ;
                 ;#endif
                 ;};
                 ;
                 ;#include <relay_icon_7x7.c>
                 ;/****************************************************************************
                 ;Font created by the LCD Vision V1.05 font & image editor/converter
                 ;(C) Copyright 2011-2013 Pavel Haiduc, HP InfoTech s.r.l.
                 ;http://www.hpinfotech.com
                 ;
                 ;Font name: relay_status
                 ;Fixed font width: 7 pixels
                 ;Font height: 7 pixels
                 ;First character: 0x30
                 ;Last character: 0x31
                 ;
                 ;Exported font data size:
                 ;18 bytes for displays organized as horizontal rows of bytes
                 ;18 bytes for displays organized as rows of vertical bytes.
                 ;****************************************************************************/
                 ;
                 ;flash unsigned char relay_icon_7x7[]=
                 ;{
                 ;0x07, /* Fixed font width */
                 ;0x07, /* Font height */
                 ;0x30, /* First character */
                 ;0x02, /* Number of characters in font */
                 ;
                 ;#ifndef _GLCD_DATA_BYTEY_
                 ;/* Font data for displays organized as
                 ;   horizontal rows of bytes */
                 ;
                 ;/* Code: 0x30, ASCII Character: '0' */
                 ;0x1C, 0x22, 0x41, 0x41, 0x41, 0x22, 0x1C,
                 ;
                 ;/* Code: 0x31, ASCII Character: '1' */
                 ;0x1C, 0x3E, 0x7F, 0x7F, 0x7F, 0x3E, 0x1C,
                 ;
                 ;#else
                 ;/* Font data for displays organized as
                 ;   rows of vertical bytes */
                 ;
                 ;/* Code: 0x30, ASCII Character: '0' */
                 ;0x1C, 0x22, 0x41, 0x41, 0x41, 0x22, 0x1C,
                 ;
                 ;/* Code: 0x31, ASCII Character: '1' */
                 ;0x1C, 0x3E, 0x7F, 0x7F, 0x7F, 0x3E, 0x1C,
                 ;
                 ;#endif
                 ;};
                 ;
                 ;#include <relay_icon_10x14.c>
                 ;/****************************************************************************
                 ;Font created by the LCD Vision V1.05 font & image editor/converter
                 ;(C) Copyright 2011-2013 Pavel Haiduc, HP InfoTech s.r.l.
                 ;http://www.hpinfotech.com
                 ;
                 ;Font name: relay_icon_big
                 ;Fixed font width: 10 pixels
                 ;Font height: 14 pixels
                 ;First character: 0x30
                 ;Last character: 0x31
                 ;
                 ;Exported font data size:
                 ;60 bytes for displays organized as horizontal rows of bytes
                 ;44 bytes for displays organized as rows of vertical bytes.
                 ;****************************************************************************/
                 ;
                 ;flash unsigned char relay_icon_10x14[]=
                 ;{
                 ;0x0A, /* Fixed font width */
                 ;0x0E, /* Font height */
                 ;0x30, /* First character */
                 ;0x02, /* Number of characters in font */
                 ;
                 ;#ifndef _GLCD_DATA_BYTEY_
                 ;/* Font data for displays organized as
                 ;   horizontal rows of bytes */
                 ;
                 ;/* Code: 0x30, ASCII Character: '0' */
                 ;0x00, 0x00, 0x00, 0x00, 0x78, 0x00, 0xFC, 0x00,
                 ;0x86, 0x01, 0x03, 0x03, 0x03, 0x03, 0x03, 0x03,
                 ;0x03, 0x03, 0x03, 0x03, 0x86, 0x01, 0xFC, 0x00,
                 ;0x78, 0x00, 0x00, 0x00,
                 ;
                 ;/* Code: 0x31, ASCII Character: '1' */
                 ;0x00, 0x00, 0x00, 0x00, 0x78, 0x00, 0xFC, 0x00,
                 ;0xFE, 0x01, 0xFF, 0x03, 0xFF, 0x03, 0xFF, 0x03,
                 ;0xFF, 0x03, 0xFF, 0x03, 0xFE, 0x01, 0xFC, 0x00,
                 ;0x78, 0x00, 0x00, 0x00,
                 ;
                 ;#else
                 ;/* Font data for displays organized as
                 ;   rows of vertical bytes */
                 ;
                 ;/* Code: 0x30, ASCII Character: '0' */
                 ;0xE0, 0xF0, 0x18, 0x0C, 0x0C, 0x0C, 0x0C, 0x18,
                 ;0xF0, 0xE0, 0x03, 0x07, 0x0C, 0x18, 0x18, 0x18,
                 ;0x18, 0x0C, 0x07, 0x03,
                 ;
                 ;/* Code: 0x31, ASCII Character: '1' */
                 ;0xE0, 0xF0, 0xF8, 0xFC, 0xFC, 0xFC, 0xFC, 0xF8,
                 ;0xF0, 0xE0, 0x03, 0x07, 0x0F, 0x1F, 0x1F, 0x1F,
                 ;0x1F, 0x0F, 0x07, 0x03,
                 ;
                 ;#endif
                 ;};
                 ;
                 ;#include <phone_signal_10x5.c>
                 ;/****************************************************************************
                 ;Font created by the LCD Vision V1.05 font & image editor/converter
                 ;(C) Copyright 2011-2013 Pavel Haiduc, HP InfoTech s.r.l.
                 ;http://www.hpinfotech.com
                 ;
                 ;Font name: phone_signal_10x5
                 ;The font is proportional (has variable width).
                 ;Font height: 5 pixels
                 ;First character: 0x30
                 ;Last character: 0x36
                 ;
                 ;Exported font data size:
                 ;81 bytes for displays organized as horizontal rows of bytes
                 ;76 bytes for displays organized as rows of vertical bytes.
                 ;****************************************************************************/
                 ;
                 ;flash unsigned char phone_signal_10x5[]=
                 ;{
                 ;0x00, /* Proportional font */
                 ;0x05, /* Font height */
                 ;0x30, /* First character */
                 ;0x07, /* Number of characters in font */
                 ;
                 ;/* Character widths */
                 ;0x0A, 0x09, 0x09, 0x09, 0x09, 0x09, 0x0A,
                 ;
                 ;#ifndef _GLCD_DATA_BYTEY_
                 ;/* Font data for displays organized as
                 ;   horizontal rows of bytes */
                 ;
                 ;/* Code: 0x30, ASCII Character: '0' */
                 ;0x05, 0x02, 0x82, 0x02, 0xA5, 0x02, 0xA8, 0x02,
                 ;0xAA, 0x02,
                 ;
                 ;/* Code: 0x31, ASCII Character: '1' */
                 ;0x00, 0x00, 0x00, 0x00, 0x00, 0x00, 0x00, 0x00,
                 ;0x01, 0x00,
                 ;
                 ;/* Code: 0x32, ASCII Character: '2' */
                 ;0x00, 0x00, 0x00, 0x00, 0x00, 0x00, 0x04, 0x00,
                 ;0x05, 0x00,
                 ;
                 ;/* Code: 0x33, ASCII Character: '3' */
                 ;0x00, 0x00, 0x00, 0x00, 0x10, 0x00, 0x14, 0x00,
                 ;0x15, 0x00,
                 ;
                 ;/* Code: 0x34, ASCII Character: '4' */
                 ;0x00, 0x00, 0x40, 0x00, 0x50, 0x00, 0x54, 0x00,
                 ;0x55, 0x00,
                 ;
                 ;/* Code: 0x35, ASCII Character: '5' */
                 ;0x00, 0x01, 0x40, 0x01, 0x50, 0x01, 0x54, 0x01,
                 ;0x55, 0x01,
                 ;
                 ;/* Code: 0x36, ASCII Character: '6' */
                 ;0x00, 0x00, 0x00, 0x00, 0x00, 0x00, 0x00, 0x00,
                 ;0x00, 0x00,
                 ;
                 ;#else
                 ;/* Font data for displays organized as
                 ;   rows of vertical bytes */
                 ;
                 ;/* Code: 0x30, ASCII Character: '0' */
                 ;0x05, 0x12, 0x05, 0x18, 0x00, 0x1C, 0x00, 0x1E,
                 ;0x00, 0x1F,
                 ;
                 ;/* Code: 0x31, ASCII Character: '1' */
                 ;0x10, 0x00, 0x00, 0x00, 0x00, 0x00, 0x00, 0x00,
                 ;0x00,
                 ;
                 ;/* Code: 0x32, ASCII Character: '2' */
                 ;0x10, 0x00, 0x18, 0x00, 0x00, 0x00, 0x00, 0x00,
                 ;0x00,
                 ;
                 ;/* Code: 0x33, ASCII Character: '3' */
                 ;0x10, 0x00, 0x18, 0x00, 0x1C, 0x00, 0x00, 0x00,
                 ;0x00,
                 ;
                 ;/* Code: 0x34, ASCII Character: '4' */
                 ;0x10, 0x00, 0x18, 0x00, 0x1C, 0x00, 0x1E, 0x00,
                 ;0x00,
                 ;
                 ;/* Code: 0x35, ASCII Character: '5' */
                 ;0x10, 0x00, 0x18, 0x00, 0x1C, 0x00, 0x1E, 0x00,
                 ;0x1F,
                 ;
                 ;/* Code: 0x36, ASCII Character: '6' */
                 ;0x00, 0x00, 0x00, 0x00, 0x00, 0x00, 0x00, 0x00,
                 ;0x00, 0x00,
                 ;
                 ;#endif
                 ;};
                 ;
                 ;#include <delay.h>
                 ;#include <string.h>
                 ;#include <stdlib.h>
                 ;#include <define.c>
                 ;#define ON                      0
                 ;#define OFF                     1
                 ;
                 ;#define btn_enter               !PINA.3
                 ;#define btn_back                !PINA.4
                 ;#define btn_menu                !PINA.5
                 ;#define relay_1                 PORTD.4
                 ;#define relay_2                 PORTD.7
                 ;#define relay_3                 PORTC.7
                 ;#define relay_4                 PORTA.7
                 ;#define relay_5                 PORTA.2
                 ;
                 ;#define backlight               PORTC.6
                 ;
                 ;#define CE                      PORTB.4
                 ;#define CSN                     PORTB.5
                 ;#define SCK                     PORTB.3
                 ;#define MOSI                    PORTB.6
                 ;#define MISO                    PINB.2
                 ;#define IRQ                     PINB.7
                 ;
                 ;#define DATA_REGISTER_EMPTY     (1<<UDRE0)
                 ;#define RX_COMPLETE             (1<<RXC0)
                 ;#define FRAMING_ERROR           (1<<FE0)
                 ;#define PARITY_ERROR            (1<<UPE0)
                 ;#define DATA_OVERRUN            (1<<DOR0)
                 ;
                 ;flash char  *name_week_day[]    =   {"\0","SUN","MON","TUE","WED","THU","FRI","SAT"},
                 
                 	.DSEG
                 ;
                 ;            *name_day[]         =   {"\0","01","02","03","04","05","06","07","08","09","10",
                 ;                                     "11","12","13","14","15","16","17","18","19","20","21",
                 ;                                     "22","23","24","25","26","27","28","29","30","31"},
                 ;
                 ;            *name_month[]       =   {"\0","JAN","FEB","MAR","APR","MAY","JUN","JUL","AUG","SEP","OCT","NOV","DEC"},
                 ;
                 ;            *name_year[]        =   {"2017","2018","2019","2020","2021","2022","2023","2024",
                 ;                                     "2025","2026","2027","2028","2029","2030","2031","2032"},
                 ;
                 ;
                 ;            *name_second[]      =   {"00","01","02","03","04","05","06","07","08","09",
                 ;                                     "10","11","12","13","14","15","16","17","18","19",
                 ;                                     "20","21","22","23","24","25","26","27","28","29",
                 ;                                     "30","31","32","33","34","35","36","37","38","39",
                 ;                                     "40","41","42","43","44","45","46","47","48","49",
                 ;                                     "50","51","52","53","54","55","56","57","58","59"},
                 ;
                 ;            *name_minute[]      =   {"00","01","02","03","04","05","06","07","08","09",
                 ;                                     "10","11","12","13","14","15","16","17","18","19",
                 ;                                     "20","21","22","23","24","25","26","27","28","29",
                 ;                                     "30","31","32","33","34","35","36","37","38","39",
                 ;                                     "40","41","42","43","44","45","46","47","48","49",
                 ;                                     "50","51","52","53","54","55","56","57","58","59"},
                 ;
                 ;            *name_hour[]        =   {"00","01","02","03","04","05","06","07","08","09","10","11",
                 ;                                     "12","13","14","15","16","17","18","19","20","21","22","23"},
                 ;
                 ;
                 ;            *name_relay[] =   {"\0","01","02","03","04","05","ALL"};
                 ;
                 ;unsigned long   milisec         =   0;
                 ;
                 ;bool    blink                   =   true,
                 ;        is_show_clock           =   false,
                 ;        is_sim_init_ok			=	true;
                 ;
                 ;int             x               =   10,
                 ;                y               =   15;
                 ;
                 ;const int       NEW_LINE        =   8,
                 ;
                 ;                BIG_COLON_X     =   33,
                 ;                BIG_COLON_Y     =   13,
                 ;
                 ;                SMALL_COLON_Y   =   30,
                 ;
                 ;                MIN_TO_SEC      =   60;
                 ;
                 ;
                 ;unsigned char   week_day        =   1,
                 ;                day             =   1,
                 ;                month           =   1,
                 ;                year            =   1,
                 ;
                 ;                hour            =   0,
                 ;                minute          =   0,
                 ;                second          =   0;
                 ;#include <rf.c>
                 ;//HU?NG D?N G?I-NH?N ? DU?I CNG
                 ;
                 ;// SPI(nRF24L01) commands
                 ;#define READ_REG        0x00  // Define read command to register
                 ;#define WRITE_REG       0x20  // Define write command to register
                 ;#define RD_RX_PLOAD     0x61  // Define RX payload register address
                 ;#define WR_TX_PLOAD     0xA0  // Define TX payload register address
                 ;#define FLUSH_TX        0xE1  // Define flush TX register command
                 ;#define FLUSH_RX        0xE2  // Define flush RX register command
                 ;#define REUSE_TX_PL     0xE3  // Define reuse TX payload register command
                 ;#define NOP             0xFF  // Define No Operation, might be used to read status register
                 ;//------------------------
                 ;#define RX_DR    0x40
                 ;#define TX_DS    0x20
                 ;#define MAX_RT   0x10
                 ;//-------------------------
                 ;
                 ;#define CONFIG          0x00  // 'Config' register address
                 ;#define EN_AA           0x01  // 'Enable Auto Acknowledgment' register address
                 ;#define EN_RXADDR       0x02  // 'Enabled RX addresses' register address
                 ;#define SETUP_AW        0x03  // 'Setup address width' register address
                 ;#define SETUP_RETR      0x04  // 'Setup Auto. Retrans' register address
                 ;#define RF_CH           0x05  // 'RF channel' register address
                 ;#define RF_SETUP        0x06  // 'RF setup' register address
                 ;#define STATUS          0x07  // 'Status' register address
                 ;#define OBSERVE_TX      0x08  // 'Observe TX' register address
                 ;#define RPD              0x09  // 'Carrier Detect' register address
                 ;#define RX_ADDR_P0      0x0A  // 'RX address pipe0' register address
                 ;#define RX_ADDR_P1      0x0B  // 'RX address pipe1' register address
                 ;#define RX_ADDR_P2      0x0C  // 'RX address pipe2' register address
                 ;#define RX_ADDR_P3      0x0D  // 'RX address pipe3' register address
                 ;#define RX_ADDR_P4      0x0E  // 'RX address pipe4' register address
                 ;#define RX_ADDR_P5      0x0F  // 'RX address pipe5' register address
                 ;#define TX_ADDR         0x10  // 'TX address' register address
                 ;#define RX_PW_P0        0x11  // 'RX payload width, pipe0' register address
                 ;#define RX_PW_P1        0x12  // 'RX payload width, pipe1' register address
                 ;#define RX_PW_P2        0x13  // 'RX payload width, pipe2' register address
                 ;#define RX_PW_P3        0x14  // 'RX payload width, pipe3' register address
                 ;#define RX_PW_P4        0x15  // 'RX payload width, pipe4' register address
                 ;#define RX_PW_P5        0x16  // 'RX payload width, pipe5' register address
                 ;#define FIFO_STATUS     0x17  // 'FIFO Status Register' register address
                 ;#define FEATURE         0x1D  // 'FEATURE' register address
                 ;#define DYNPD           0x1C  // 'DYNAMIC PAYLOAD' register address
                 ;/*----------------------
                 ;M?i d?a ch? truy?n-nh?n g?m 5byte
                 ;Ch? d? Multireceive th 1 PRX c th? nh?n du?c cng lc t? 6 PTX khc nhau
                 ;D? li?u s? trao d?i qua cc Pipe, t? Pipe_0 d?n Pipe_5
                 ;T? Pipe_2 tr? di, d?a ch? nh?n s? c 4 byte d?u gi?ng d?a ch? c?a Pipe_1
                 ;
                 ;? bn G?I
                 ;PTX_0: 5byte (Address1)
                 ;PTX_1: 5byte (Address2)
                 ;PTX_2: 4byte (Address2) + 1 byte (Address3)
                 ;PTX_3: 4byte (Address2) + 1 byte (Address4)
                 ;PTX_4: 4byte (Address2) + 1 byte (Address5)
                 ;PTX_5: 4byte (Address2) + 1 byte (Address6)
                 ;
                 ;? bn NH?N do ch? c 1 con nn ta quan tm d?n d?a ch? cc pipe nh?n khc nhau
                 ;Pipe0_RX_Add: 5byte (Address1)
                 ;Pipe1_RX_Add: 5byte (Address2)
                 ;Pipe2_RX_Add: 4byte (Address2) + 1 byte (Address3)
                 ;Pipe3_RX_Add: 4byte (Address2) + 1 byte (Address4)
                 ;Pipe4_RX_Add: 4byte (Address2) + 1 byte (Address5)
                 ;Pipe5_RX_Add: 4byte (Address2) + 1 byte (Address6)
                 ;
                 ;----------------------*/
                 ;// unsigned char Send_Add, Address1, Address2, Address3, Address4, Address5, Address6;
                 ;unsigned char Address1, Address2, Address3, Address4;
                 ;
                 ;/*-------SPI---------*/
                 ;void SPI_Write(unsigned char Buff);
                 ;unsigned char SPI_Read(void);
                 ;void RF_Command(unsigned char command);
                 ;void RF_Write(unsigned char Reg_Add, unsigned char Value);
                 ;void RF_Write_Add(unsigned char Reg_Add, unsigned char Value);
                 ;void Common_Config();
                 ;/*-------TX_Mode---------*/
                 ;/*
                 ;void RF_Write_Add_TX_2(unsigned char Reg_Add, unsigned char Address, unsigned char Address2);
                 ;void TX_Address(unsigned char Address);
                 ;void TX_Address_2(unsigned char Address, unsigned char Address2);
                 ;void TX_Mode();
                 ;void TX_Config();
                 ;void TX_Config_2();
                 ;void TX_Send();
                 ;void TX_Send_2();
                 ;*/
                 ;/*-------RX_Mode---------*/
                 ;void RF_Write_Add_RX_2(unsigned char Reg_Add, unsigned char Address, unsigned char Address2);
                 ;void RX_Address(unsigned char Address_Pipe, unsigned char Address);
                 ;void RX_Address_2(unsigned char Address_Pipe, unsigned char Address, unsigned char Address2);
                 ;void RX_Mode();
                 ;//void RX_Config();
                 ;void RX_Config_4();
                 ;//void RX_Config_6();
                 ;void RX_Read();
                 ;
                 ;
                 ;
                 ;/*----------------------
                 ;C?u trc d? li?u d?ng typedef s? chuy?n d? li?u struct trong m?ng station_info v?i
                 ;cc thu?c tnh c?a struct bn trong v gn vo station_receiver cho bn nh?n ho?c
                 ;station_send cho bn g?i.
                 ;----------------------*/
                 ;typedef struct{
                 ;    int flag;
                 ;    int light;
                 ;    int humi;
                 ;    int temp;
                 ;    int sm;
                 ;    int water;
                 ;}station_info;
                 ;
                 ;station_info station_receive;
                 ;// station_info station_send;
                 ;/*----------------------
                 ;y l hm ghi d? li?u vo SPI
                 ;Do khng dng modul SPI c?ng trn cc chn I/O c?a AVR
                 ;Nn s? d?ng hm ny d? ghi d? li?u vo
                 ;?ng th?i d?c gi tr? m SPI tr? v?, tham v?ng check du?c ACK
                 ;----------------------*/
                 ;void SPI_Write(unsigned char Buff){
                 ; 0000 0010 void SPI_Write(unsigned char Buff){
                 
                 	.CSEG
                 _SPI_Write:
                 ; .FSTART _SPI_Write
                 ;    unsigned char bit_ctr;
                 ;    for(bit_ctr=0;bit_ctr<8;bit_ctr++){
00094d 93aa      	ST   -Y,R26
00094e 931a      	ST   -Y,R17
                 ;	Buff -> Y+1
                 ;	bit_ctr -> R17
00094f e010      	LDI  R17,LOW(0)
                 _0xD:
000950 3018      	CPI  R17,8
000951 f4a0      	BRSH _0xE
                 ;        MOSI = (Buff & 0x80);
000952 81e9      	LDD  R30,Y+1
000953 78e0      	ANDI R30,LOW(0x80)
000954 f411      	BRNE _0xF
000955 98c6      	CBI  0x18,6
000956 c001      	RJMP _0x10
                 _0xF:
000957 9ac6      	SBI  0x18,6
                 _0x10:
                 ;        delay_us(5);
                +
000958 e08d     +LDI R24 , LOW ( 13 )
                +__DELAY_USB_LOOP :
000959 958a     +DEC R24
00095a f7f1     +BRNE __DELAY_USB_LOOP
                 	__DELAY_USB 13
                 ;        Buff = (Buff << 1);
00095b 81e9      	LDD  R30,Y+1
00095c 0fee      	LSL  R30
00095d 83e9      	STD  Y+1,R30
                 ;        SCK = 1;
00095e 940e 1dab 	CALL SUBOPT_0x0
                 ;        delay_us(5);
                 ;        Buff |= MISO;
000960 81a9      	LDD  R26,Y+1
000961 2bea      	OR   R30,R26
000962 83e9      	STD  Y+1,R30
                 ;        SCK = 0;
000963 98c3      	CBI  0x18,3
                 ;    }
000964 5f1f      	SUBI R17,-1
000965 cfea      	RJMP _0xD
                 _0xE:
                 ;}
000966 8118      	LDD  R17,Y+0
000967 9622      	ADIW R28,2
000968 9508      	RET
                 ; .FEND
                 ;/*----------------------
                 ;y l hm d?c d? li?u ra t? SPI
                 ;Do khng dng modul SPI c?ng trn cc chn I/O c?a AVR
                 ;Nn s? d?ng hm ny d? d?c d? li?u ra
                 ;----------------------*/
                 ;unsigned char SPI_Read(void){
                 _SPI_Read:
                 ; .FSTART _SPI_Read
                 ;    unsigned char Buff=0;
                 ;    unsigned char bit_ctr;
                 ;    for(bit_ctr=0;bit_ctr<8;bit_ctr++){
000969 931a      	ST   -Y,R17
00096a 930a      	ST   -Y,R16
                 ;	Buff -> R17
                 ;	bit_ctr -> R16
00096b e010      	LDI  R17,0
00096c e000      	LDI  R16,LOW(0)
                 _0x16:
00096d 3008      	CPI  R16,8
00096e f450      	BRSH _0x17
                 ;        delay_us(5);
                +
00096f e08d     +LDI R24 , LOW ( 13 )
                +__DELAY_USB_LOOP :
000970 958a     +DEC R24
000971 f7f1     +BRNE __DELAY_USB_LOOP
                 	__DELAY_USB 13
                 ;        Buff = (Buff << 1);
000972 0f11      	LSL  R17
                 ;        SCK = 1;
000973 940e 1dab 	CALL SUBOPT_0x0
                 ;        delay_us(5);
                 ;        Buff |= MISO;
000975 2b1e      	OR   R17,R30
                 ;        SCK = 0;
000976 98c3      	CBI  0x18,3
                 ;    }
000977 5f0f      	SUBI R16,-1
000978 cff4      	RJMP _0x16
                 _0x17:
                 ;    return(Buff);
000979 2fe1      	MOV  R30,R17
00097a c16a      	RJMP _0x216001B
                 ;}
                 ; .FEND
                 ;/*----------------------
                 ;RF_Command dng d? ghi Command tr?c ti?p vo nRF24L01
                 ;----------------------*/
                 ;void RF_Command(unsigned char command){
                 _RF_Command:
                 ; .FSTART _RF_Command
                 ;    CSN=0;
00097b 93aa      	ST   -Y,R26
                 ;	command -> Y+0
00097c 98c5      	CBI  0x18,5
                 ;    SPI_Write(command);
00097d 940e 1db3 	CALL SUBOPT_0x1
                 ;    CSN=1;
                 ;    delay_us(10);
                 ;}
00097f c341      	RJMP _0x2160018
                 ; .FEND
                 ;/*----------------------
                 ;RF_Write dng d? ghi d? li?u vo thanh ghi c?a nRF24L01
                 ;----------------------*/
                 ;void RF_Write(unsigned char Reg_Add, unsigned char Value){
                 _RF_Write:
                 ; .FSTART _RF_Write
                 ;    CSN=0;
000980 940e 1dbb 	CALL SUBOPT_0x2
                 ;	Reg_Add -> Y+1
                 ;	Value -> Y+0
                 ;    SPI_Write(0b00100000|Reg_Add);
                 ;    SPI_Write(Value);
000982 940e 1db3 	CALL SUBOPT_0x1
                 ;    CSN=1;
                 ;    delay_us(10);
                 ;}
000984 c50f      	RJMP _0x2160013
                 ; .FEND
                 ;/*----------------------
                 ;RF_Write_Add dng d? ghi d?a ch? cho nRF24L01
                 ;L?nh ny dng du?c ? c? PTX v PRX v truy?n nh?n 1-1
                 ;? dy ghi cng lc 5 byte d?a ch? gi?ng h?t nhau vo cng 1 thanh ghi
                 ;Thu?ng dng khi truy?n-nh?n 1-1
                 ;----------------------*/
                 ;void RF_Write_Add(unsigned char Reg_Add, unsigned char Value){
                 _RF_Write_Add:
                 ; .FSTART _RF_Write_Add
                 ;    CSN=0;
000985 940e 1dbb 	CALL SUBOPT_0x2
                 ;	Reg_Add -> Y+1
                 ;	Value -> Y+0
                 ;    SPI_Write(0b00100000|Reg_Add);
                 ;    SPI_Write(Value);
000987 940e 1dc2 	CALL SUBOPT_0x3
                 ;    SPI_Write(Value);
                 ;    SPI_Write(Value);
                 ;    SPI_Write(Value);
                 ;    SPI_Write(Value);
000989 940e 1db3 	CALL SUBOPT_0x1
                 ;    CSN=1;
                 ;    delay_us(10);
                 ;}
00098b c508      	RJMP _0x2160013
                 ; .FEND
                 ;/*----------------------
                 ;RF_Write_Add_TX_2 dng d? ghi d?a ch? TRUY?N cho nRF24L01 trong ch? d? Multireceive
                 ;Khi g?i b?t d?u t? PTX_2 tr? di th b?t bu?c 4byte d?a ch? sau ph?i gi?ng d?a ch?
                 ;c?a PTX_1 nn ph?i ghi 4 byte d?a ch? sau theo Address2 (l d?a ch? c?a PTX_1)
                 ;Ch : Address ? dy ng?m d?nh l d?a ch? c?a PTX_2...5
                 ;----------------------*/
                 ;/*
                 ;void RF_Write_Add_TX_2(unsigned char Reg_Add, unsigned char Address, unsigned char Address2){
                 ;    CSN=0;
                 ;    SPI_Write(0b00100000|Reg_Add);
                 ;    SPI_Write(Address);
                 ;    SPI_Write(Address2);
                 ;    SPI_Write(Address2);
                 ;    SPI_Write(Address2);
                 ;    SPI_Write(Address2);
                 ;    CSN=1;
                 ;    delay_us(10);
                 ;}*/
                 ;/*----------------------
                 ;RF_Write_Add_RX_2 dng d? ghi d?a ch? NH?N cho nRF24L01 trong ch? d? Multireceive
                 ;Khi g?i b?t d?u t? PTX_2 tr? di th b?t bu?c 4byte d?a ch? sau ph?i gi?ng d?a ch?
                 ;c?a PTX_1 nn ph?i ghi 4 byte d?a ch? sau theo Address2 (l d?a ch? c?a PTX_1)
                 ;Ch : Address ? dy ng?m d?nh l d?a ch? c?a PTX_2...5
                 ;C l? do bn PTX Address du?c ghi vo d?u tin nn ? PRX Address ph?i du?c ghi vo
                 ;cu?i cng. Theo logic truy?n - nh?n n?i ti?p
                 ;----------------------*/
                 ;void RF_Write_Add_RX_2(unsigned char Reg_Add, unsigned char Address, unsigned char Address2){
                 _RF_Write_Add_RX_2:
                 ; .FSTART _RF_Write_Add_RX_2
                 ;    CSN=0;
00098c 93aa      	ST   -Y,R26
                 ;	Reg_Add -> Y+2
                 ;	Address -> Y+1
                 ;	Address2 -> Y+0
00098d 98c5      	CBI  0x18,5
                 ;    SPI_Write(0b00100000|Reg_Add);
00098e 81ea      	LDD  R30,Y+2
00098f 62e0      	ORI  R30,0x20
000990 2fae      	MOV  R26,R30
000991 dfbb      	RCALL _SPI_Write
                 ;    SPI_Write(Address2);
000992 940e 1dc2 	CALL SUBOPT_0x3
                 ;    SPI_Write(Address2);
                 ;    SPI_Write(Address2);
                 ;    SPI_Write(Address2);
                 ;    SPI_Write(Address);
000994 81a9      	LDD  R26,Y+1
000995 dfb7      	RCALL _SPI_Write
                 ;    CSN=1;
000996 940e 1dce 	CALL SUBOPT_0x4
                 ;    delay_us(10);
                 ;}
000998 c011      	RJMP _0x216001C
                 ; .FEND
                 ;/*----------------------
                 ;TX_Address dng d? ghi d?a ch? vo thanh ghi d?a ch? c?a PTX ? ch? d? truy?n nh?n 1-1
                 ;ho?c ch? d? Multireceive th ? cc PTX_0 v PTX_1
                 ;----------------------*/
                 ;/*
                 ;void TX_Address(unsigned char Address){
                 ;    CSN=0;
                 ;    RF_Write(SETUP_AW,0b00000011); //ghi vo d? r?ng d?a ch? -  5byte
                 ;    CSN=1;
                 ;    delay_us(10);
                 ;    CSN=0;
                 ;    RF_Write_Add(TX_ADDR, Address); //thanh ghi d?a ch? truy?n
                 ;} */
                 ;/*----------------------
                 ;TX_Address_2 dng d? ghi d?a ch? vo thanh ghi d?a ch? c?a PTX ? ch? d? Multireceive
                 ;L?nh ny b?t d?u ghi ? cc PTX_2 tr? di d?n PTX_5
                 ;? r?ng d?a ch? cung l 5byte
                 ;----------------------*/
                 ;/*
                 ;void TX_Address_2(unsigned char Address, unsigned char Address2){
                 ;    CSN=0;
                 ;    RF_Write(SETUP_AW,0b00000011);
                 ;    CSN=1;
                 ;    delay_us(10);
                 ;    CSN=0;
                 ;    RF_Write_Add_TX_2(TX_ADDR, Address, Address2);
                 ;} */
                 ;/*----------------------
                 ;RX_Address dng d? ghi d?a ch? vo thanh ghi d?a ch? c?a PRX ? ch? d? truy?n nh?n 1-1
                 ;ho?c ch? d? Multireceive th ? cc Pipe_0 v Pipe_1
                 ;? r?ng d?a ch? l 5byte
                 ;----------------------*/
                 ;void RX_Address(unsigned char Address_Pipe, unsigned char Address){
                 _RX_Address:
                 ; .FSTART _RX_Address
                 ;    CSN=0;
000999 940e 1dd3 	CALL SUBOPT_0x5
                 ;	Address_Pipe -> Y+1
                 ;	Address -> Y+0
                 ;    RF_Write(SETUP_AW,0b00000011);
                 ;    CSN=1;
                 ;    delay_us(10);
                 ;    CSN=0;
00099b 98c5      	CBI  0x18,5
                 ;    RF_Write_Add(Address_Pipe, Address);
00099c 81e9      	LDD  R30,Y+1
00099d 93ea      	ST   -Y,R30
00099e 81a9      	LDD  R26,Y+1
00099f dfe5      	RCALL _RF_Write_Add
                 ;}
0009a0 c4f3      	RJMP _0x2160013
                 ; .FEND
                 ;/*----------------------
                 ;RX_Address_2 dng d? ghi d?a ch? vo thanh ghi d?a ch? c?a PRX ? ch? d? Multireceive
                 ;L?nh ny b?t d?u ghi ? cc Pipe_2 tr? di d?n Pipe_5
                 ;? r?ng d?a ch? cung l 5byte
                 ;Address2 ng?m hi?u l d?a ch? c?a pipe 1
                 ;Address ng?m hi?u l d?a ch? c?a Pipe t? 2 - Pipe 5
                 ;----------------------*/
                 ;void RX_Address_2(unsigned char Address_Pipe, unsigned char Address, unsigned char Address2){
                 _RX_Address_2:
                 ; .FSTART _RX_Address_2
                 ;    CSN=0;
0009a1 940e 1dd3 	CALL SUBOPT_0x5
                 ;	Address_Pipe -> Y+2
                 ;	Address -> Y+1
                 ;	Address2 -> Y+0
                 ;    RF_Write(SETUP_AW,0b00000011);
                 ;    CSN=1;
                 ;    delay_us(10);
                 ;    CSN=0;
0009a3 98c5      	CBI  0x18,5
                 ;    RF_Write_Add_RX_2(Address_Pipe, Address, Address2);  //ghi vao pipe number, d?a ch? v d?a ch? pipe 1
0009a4 81ea      	LDD  R30,Y+2
0009a5 93ea      	ST   -Y,R30
0009a6 81ea      	LDD  R30,Y+2
0009a7 93ea      	ST   -Y,R30
0009a8 81aa      	LDD  R26,Y+2
0009a9 dfe2      	RCALL _RF_Write_Add_RX_2
                 ;}
                 _0x216001C:
0009aa 9623      	ADIW R28,3
0009ab 9508      	RET
                 ; .FEND
                 ;/*----------------------
                 ;Config cho nRF24L01 ? ch? d? ho?t d?ng
                 ;M?c d?nh l ch? d? truy?n d? li?u, thanh ghi CONFIG 0x1E
                 ;Flush TX v RX d? xo h?t d? li?u trong b? d?m
                 ;----------------------*/
                 ;void Common_Config(){
                 _Common_Config:
                 ; .FSTART _Common_Config
                 ;    CE=1;
0009ac 9ac4      	SBI  0x18,4
                 ;    delay_us(700);
                +
0009ad e788     +LDI R24 , LOW ( 1400 )
0009ae e095     +LDI R25 , HIGH ( 1400 )
                +__DELAY_USW_LOOP :
0009af 9701     +SBIW R24 , 1
0009b0 f7f1     +BRNE __DELAY_USW_LOOP
                 	__DELAY_USW 1400
                 ;    CE=0;
0009b1 98c4      	CBI  0x18,4
                 ;    CSN=1;
0009b2 9ac5      	SBI  0x18,5
                 ;    SCK=0;
0009b3 98c3      	CBI  0x18,3
                 ;    delay_us(100);
                +
0009b4 ec88     +LDI R24 , LOW ( 200 )
0009b5 e090     +LDI R25 , HIGH ( 200 )
                +__DELAY_USW_LOOP :
0009b6 9701     +SBIW R24 , 1
0009b7 f7f1     +BRNE __DELAY_USW_LOOP
                 	__DELAY_USW 200
                 ;    RF_Write(STATUS,0b01111110); //STATUS 0x7E; clear all IRQ flag
0009b8 940e 1ddb 	CALL SUBOPT_0x6
                 ;    RF_Command(0b11100010);    //0xE2; flush RX
                 ;    RF_Command(0b11100001);    //Flush TX 0xE1
0009ba eea1      	LDI  R26,LOW(225)
0009bb dfbf      	RCALL _RF_Command
                 ;    RF_Write(CONFIG,0b00011111); //0x1E; truy?n d? li?u
0009bc e0e0      	LDI  R30,LOW(0)
0009bd 93ea      	ST   -Y,R30
0009be e1af      	LDI  R26,LOW(31)
0009bf dfc0      	RCALL _RF_Write
                 ;    delay_ms(2);
0009c0 e0a2      	LDI  R26,LOW(2)
0009c1 e0b0      	LDI  R27,0
0009c2 940e 219f 	CALL _delay_ms
                 ;    RF_Write(RF_CH,0b00000010); //RF_CH 0x05 Chanel 0 RF = 2400 + RF_CH* (1or 2 M)
0009c4 e0e5      	LDI  R30,LOW(5)
0009c5 93ea      	ST   -Y,R30
0009c6 e0a2      	LDI  R26,LOW(2)
0009c7 dfb8      	RCALL _RF_Write
                 ;    RF_Write(RF_SETUP,0b00000111); //RF_SETUP 0x07 = 1M, 0dBm
0009c8 e0e6      	LDI  R30,LOW(6)
0009c9 93ea      	ST   -Y,R30
0009ca e0a7      	LDI  R26,LOW(7)
0009cb dfb4      	RCALL _RF_Write
                 ;    RF_Write(FEATURE, 0b00000100); //0x1D Dynamic payload length
0009cc e1ed      	LDI  R30,LOW(29)
0009cd 93ea      	ST   -Y,R30
0009ce e0a4      	LDI  R26,LOW(4)
0009cf dfb0      	RCALL _RF_Write
                 ;}
0009d0 9508      	RET
                 ; .FEND
                 ;/*----------------------
                 ;ua nRF24L01 v? ch? d? truy?n d? li?u
                 ;Lc ny c?n xo h?t cc thanh ghi trong IRQ v dua chn CE ? m?c th?p
                 ;----------------------*/
                 ;/*
                 ;void TX_Mode(){
                 ;    CE=0;
                 ;    RF_Write(CONFIG,0b00011110);
                 ;    delay_us(130);    //nrf can de khoi dong vao rx mode hoac txmode
                 ;} */
                 ;/*----------------------
                 ;ua nRF24L01 v? ch? d? nh?n d? li?u
                 ;Lc ny c?n xo h?t cc thanh ghi trong IRQ v dua chn CE ln m?c cao
                 ;----------------------*/
                 ;void RX_Mode(){
                 _RX_Mode:
                 ; .FSTART _RX_Mode
                 ;    RF_Write(CONFIG,0b00011111);
0009d1 e0e0      	LDI  R30,LOW(0)
0009d2 93ea      	ST   -Y,R30
0009d3 e1af      	LDI  R26,LOW(31)
0009d4 dfab      	RCALL _RF_Write
                 ;    CE=1;
0009d5 9ac4      	SBI  0x18,4
                 ;    delay_us(130);    //nrf can de khoi dong vao rx mode hoac txmode
                +
0009d6 e084     +LDI R24 , LOW ( 260 )
0009d7 e091     +LDI R25 , HIGH ( 260 )
                +__DELAY_USW_LOOP :
0009d8 9701     +SBIW R24 , 1
0009d9 f7f1     +BRNE __DELAY_USW_LOOP
                 	__DELAY_USW 260
                 ;}
0009da 9508      	RET
                 ; .FEND
                 ;/*----------------------
                 ;Config cho nRF24L01 ? ch? d? TRUY?N d? li?u 1-1 ho?c ch? d? Multireceive
                 ;th config cho cc PTX_0 v PTX_1
                 ;Xo h?t d? li?u trong thanh ghi IRQ
                 ;Flush h?t d? li?u ? b? d?m nh?n v truy?n.
                 ;Ci d?t dynamic payload ? Pipe_0
                 ;Enable Pipe_0 d? truy?n d? li?u
                 ;----------------------*/
                 ;/*
                 ;void TX_Config(){
                 ;    RF_Write(STATUS,0b01111110); //xo IRQ flag
                 ;    RF_Command(0b11100001); //Flush TX 0xE1
                 ;    TX_Address(Send_Add);   //Ghi d?a ch? g?i d? li?u vo nRF24L01
                 ;    RF_Write(DYNPD,0b00000001); //?t ch? d? dynamic paypload ? pipe 0
                 ;    RF_Write(EN_RXADDR,0b00000001); //Enable Pipe 0
                 ;} */
                 ;/*----------------------
                 ;TX_Config_2()
                 ;Config cho nRF24L01 ? ch? d? TRUY?N d? li?u Multireceive
                 ;Dng cho cc PTX t? PTX_2 d?n PTX_5
                 ;Xo h?t d? li?u trong thanh ghi IRQ
                 ;Flush h?t d? li?u ? b? d?m nh?n v truy?n.
                 ;G?i di th dng Pipe_0 ? PTX nn ch? ci d?t dynamic payload ? Pipe_0
                 ;Enable Pipe_0 d? truy?n d? li?u
                 ;----------------------*/
                 ;/*
                 ;void TX_Config_2(){
                 ;    RF_Write(STATUS,0b01111110); //xo IRQ flag
                 ;    RF_Command(0b11100001); //Flush TX 0xE1
                 ;    TX_Address_2(Send_Add, Address2); //Ghi d?a ch? g?i d? li?u vo nRF24L01
                 ;    RF_Write(DYNPD,0b00000001); //?t ch? d? dynamic paypload ? pipe 0
                 ;    RF_Write(EN_RXADDR,0b00000001); //Enable Pipe 0
                 ;} */
                 ;/*----------------------
                 ;RX_Config()
                 ;Config cho nRF24L01 ? ch? d? NH?N d? li?u 1-1
                 ;Xo h?t d? li?u trong thanh ghi IRQ
                 ;Flush h?t d? li?u ? b? d?m nh?n v truy?n.
                 ;M? cc Pipe t? 0 v ci d?t ch? d? dynamic payload
                 ;? Pipe_0 d?a ch? du?c ghi vo theo 5 byte Address1
                 ;----------------------*/
                 ;/*
                 ;void RX_Config(){
                 ;    RF_Write(STATUS,0b01111110); //xo IRQ flag
                 ;    RF_Command(0b11100010); //Flush RX
                 ;    RF_Write(DYNPD,0b00000001); //?t ch? d? dynamic paypload ? pipe 0
                 ;    RF_Write(EN_RXADDR,0b00000001); //Enable RX ? Pipe 0
                 ;    RX_Address(RX_ADDR_P0, Address1);
                 ;} */
                 ;/*----------------------
                 ;RX_Config_4()
                 ;Config cho nRF24L01 ? ch? d? NH?N d? li?u Multireceive (4 Pipe)
                 ;Xo h?t d? li?u trong thanh ghi IRQ
                 ;Flush h?t d? li?u ? b? d?m nh?n v truy?n.
                 ;M? cc Pipe t? 0 d?n 4 v ci d?t ch? d? dynamic payload
                 ;? Pipe_0 d?a ch? du?c ghi vo theo 5 byte Address1
                 ;? Pipe_1 d?a ch? du?c ghi vo theo 5 byte Address2
                 ;? Pipe_2 d?a ch? du?c ghi vo theo 4 byte Address2 v 1 byte Address3
                 ;? Pipe_3 d?a ch? du?c ghi vo theo 4 byte Address2 v 1 byte Address4
                 ;----------------------*/
                 ;void RX_Config_4(){
                 _RX_Config_4:
                 ; .FSTART _RX_Config_4
                 ;    RF_Write(STATUS,0b01111110); //xo IRQ flag
0009db 940e 1ddb 	CALL SUBOPT_0x6
                 ;    RF_Command(0b11100010); //0xE2 = Flush RX
                 ;    RF_Write(DYNPD,0b00001111); //?t ch? d? dynamic paypload ? pipe 0-4
0009dd e1ec      	LDI  R30,LOW(28)
0009de 93ea      	ST   -Y,R30
0009df e0af      	LDI  R26,LOW(15)
0009e0 df9f      	RCALL _RF_Write
                 ;    RF_Write(EN_RXADDR,0b00001111); //Enable RX ? Pipe 0 - pipe 4
0009e1 e0e2      	LDI  R30,LOW(2)
0009e2 93ea      	ST   -Y,R30
0009e3 e0af      	LDI  R26,LOW(15)
0009e4 df9b      	RCALL _RF_Write
                 ;    RX_Address(RX_ADDR_P0, Address1);
0009e5 e0ea      	LDI  R30,LOW(10)
0009e6 93ea      	ST   -Y,R30
0009e7 91a0 0bda 	LDS  R26,_Address1
0009e9 dfaf      	RCALL _RX_Address
                 ;    RX_Address(RX_ADDR_P1, Address2);
0009ea e0eb      	LDI  R30,LOW(11)
0009eb 93ea      	ST   -Y,R30
0009ec 91a0 0bdb 	LDS  R26,_Address2
0009ee dfaa      	RCALL _RX_Address
                 ;    RX_Address_2(RX_ADDR_P2, Address3, Address2);
0009ef e0ec      	LDI  R30,LOW(12)
0009f0 93ea      	ST   -Y,R30
0009f1 91e0 0bdc 	LDS  R30,_Address3
0009f3 93ea      	ST   -Y,R30
0009f4 91a0 0bdb 	LDS  R26,_Address2
0009f6 dfaa      	RCALL _RX_Address_2
                 ;    RX_Address_2(RX_ADDR_P3, Address4, Address2);
0009f7 e0ed      	LDI  R30,LOW(13)
0009f8 93ea      	ST   -Y,R30
0009f9 91e0 0bdd 	LDS  R30,_Address4
0009fb 93ea      	ST   -Y,R30
0009fc 91a0 0bdb 	LDS  R26,_Address2
0009fe dfa2      	RCALL _RX_Address_2
                 ;}
0009ff 9508      	RET
                 ; .FEND
                 ;/*----------------------
                 ;RX_Config_6()
                 ;Config cho nRF24L01 ? ch? d? NH?N d? li?u Multireceive (6 Pipe)
                 ;Xo h?t d? li?u trong thanh ghi IRQ
                 ;Flush h?t d? li?u ? b? d?m nh?n v truy?n.
                 ;M? cc Pipe t? 0 d?n 4 v ci d?t ch? d? dynamic payload
                 ;? Pipe_0 d?a ch? du?c ghi vo theo 5 byte Address1
                 ;? Pipe_1 d?a ch? du?c ghi vo theo 5 byte Address2
                 ;? Pipe_2 d?a ch? du?c ghi vo theo 4 byte Address2 v 1 byte Address3
                 ;? Pipe_3 d?a ch? du?c ghi vo theo 4 byte Address2 v 1 byte Address4
                 ;? Pipe_4 d?a ch? du?c ghi vo theo 4 byte Address2 v 1 byte Address5
                 ;? Pipe_5 d?a ch? du?c ghi vo theo 4 byte Address2 v 1 byte Address6
                 ;----------------------*/
                 ;/*
                 ;void RX_Config_6(){
                 ;    RF_Write(STATUS,0b01111110);
                 ;    RF_Command(0b11100010); //0xE2 = Flush RX
                 ;    RF_Write(DYNPD,0b00111111);
                 ;    RF_Write(EN_RXADDR,0b00111111);
                 ;    RX_Address(RX_ADDR_P0, Address1);
                 ;    RX_Address(RX_ADDR_P1, Address2);
                 ;    RX_Address_2(RX_ADDR_P2, Address3, Address2);
                 ;    RX_Address_2(RX_ADDR_P3, Address4, Address2);
                 ;    RX_Address_2(RX_ADDR_P4, Address5, Address2);
                 ;    RX_Address_2(RX_ADDR_P5, Address6, Address2);
                 ;} */
                 ;/*----------------------
                 ;TX_Send()
                 ;Config cho nRF24L01 ? ch? d? TRUY?N d? li?u ? ch? d? 1-1
                 ;Ho?c Multireceive nhung ? cc PTX_0 v PTX_1
                 ;Xo h?t d? li?u trong thanh ghi IRQ
                 ;Flush h?t d? li?u ? b? d?m truy?n.
                 ;Ghi d? li?u c?n g?i vo payload truy?n
                 ;Sau khi truy?n di th xo h?t cc IRQ
                 ;Ghi d?a ch? g?i d? li?u vo nRF24L01 - KHNG HI?U CH? NY
                 ;Sau khi g?i d? li?u di th FLUSH h?t b? d?m G?I
                 ;----------------------*/
                 ;/*
                 ;void TX_Send(){
                 ;    TX_Address(Send_Add); //Ghi d?a ch? g?i d? li?u vo nRF24L01
                 ;    CSN=1;
                 ;    delay_us(10);
                 ;    CSN=0;
                 ;    SPI_Write(0b11100001); //0xE1=Define flush TX register command
                 ;    CSN=1;
                 ;    delay_us(10);
                 ;    CSN=0;
                 ;    SPI_Write(0b10100000); //0xA0 = Define TX payload register address
                 ;    SPI_Write(station_send.flag); //ghi d? li?u vo payload
                 ;    SPI_Write(station_send.light);
                 ;    SPI_Write(station_send.humi);
                 ;    SPI_Write(station_send.temp);
                 ;    SPI_Write(station_send.sm);
                 ;    SPI_Write(station_send.water);
                 ;    CSN=1;
                 ;    CE=1;
                 ;    delay_us(500);
                 ;    CE=0;
                 ;    RF_Write(0x07,0b01111110); //STATUS, 0x7E-clear IRQ flag (Tam test 0x70 van chay)
                 ;    TX_Address(Send_Add); //Ghi d?a ch? g?i d? li?u vo nRF24L01
                 ;    RF_Command(0b11100001);//Flush TX 0xE1
                 ;} */
                 ;/*----------------------
                 ;TX_Send_2()
                 ;Config cho nRF24L01 ? ch? d? TRUY?N d? li?u Multireceive t? PTX_2 v PTX_5
                 ;Xo h?t d? li?u trong thanh ghi IRQ
                 ;Flush h?t d? li?u ? b? d?m truy?n.
                 ;Ghi d? li?u c?n g?i vo payload truy?n
                 ;Sau khi truy?n di th xo h?t cc IRQ
                 ;Ghi d?a ch? g?i d? li?u vo nRF24L01 - KHNG HI?U CH? NY
                 ;Sau khi g?i d? li?u di th FLUSH h?t b? d?m G?I
                 ;----------------------*/
                 ;/*
                 ;void TX_Send_2(){
                 ;    TX_Address_2(Send_Add, Address2); //Ghi d? li?u vo nRF24L01 theo d?ng 4byte Address2 v 1 byte Send_Add
                 ;    CSN=1;
                 ;    delay_us(10);
                 ;    CSN=0;
                 ;    SPI_Write(0b11100001);
                 ;    CSN=1;
                 ;    delay_us(10);
                 ;    CSN=0;
                 ;    SPI_Write(0b10100000);
                 ;    SPI_Write(station_send.flag);
                 ;    SPI_Write(station_send.light);
                 ;    SPI_Write(station_send.humi);
                 ;    SPI_Write(station_send.temp);
                 ;    SPI_Write(station_send.sm);
                 ;    SPI_Write(station_send.water);
                 ;    CSN=1;
                 ;    CE=1;
                 ;    delay_us(500);
                 ;    CE=0;
                 ;    RF_Write(0x07,0b01111110);
                 ;    TX_Address_2(Send_Add, Address2);
                 ;    RF_Command(0b11100001);
                 ;} */
                 ;/*----------------------
                 ;RX_Read()
                 ;?c d? li?u t? buffer c?a b? NH?N d? li?u
                 ;?c t? b? d?m RX cc gi tr? du?c luu vo khi nh?n du?c
                 ;Sau khi d?c xong th clear h?t cc thanh ghi IRQ
                 ;v Flush b? d?m nh?n
                 ;----------------------*/
                 ;void RX_Read(){
                 _RX_Read:
                 ; .FSTART _RX_Read
                 ;    CE=0;
000a00 98c4      	CBI  0x18,4
                 ;    CSN=1;
000a01 940e 1dce 	CALL SUBOPT_0x4
                 ;    delay_us(10);
                 ;    CSN=0;
000a03 98c5      	CBI  0x18,5
                 ;    SPI_Write(0b01100001); //0x61 = Define RX payload register address
000a04 e6a1      	LDI  R26,LOW(97)
000a05 df47      	RCALL _SPI_Write
                 ;    delay_us(10);
                +
000a06 e18b     +LDI R24 , LOW ( 27 )
                +__DELAY_USB_LOOP :
000a07 958a     +DEC R24
000a08 f7f1     +BRNE __DELAY_USB_LOOP
                 	__DELAY_USB 27
                 ;    station_receive.flag = SPI_Read();
000a09 df5f      	RCALL _SPI_Read
000a0a e0f0      	LDI  R31,0
000a0b 93e0 0bde 	STS  _station_receive,R30
000a0d 93f0 0bdf 	STS  _station_receive+1,R31
                 ;    station_receive.light = SPI_Read();
000a0f df59      	RCALL _SPI_Read
                +
000a10 eea0     +LDI R26 , LOW ( _station_receive + ( 2 ) )
000a11 e0bb     +LDI R27 , HIGH ( _station_receive + ( 2 ) )
                 	__POINTW2MN _station_receive,2
000a12 940e 1de3 	CALL SUBOPT_0x7
                 ;    station_receive.humi = SPI_Read();
                +
000a14 eea2     +LDI R26 , LOW ( _station_receive + ( 4 ) )
000a15 e0bb     +LDI R27 , HIGH ( _station_receive + ( 4 ) )
                 	__POINTW2MN _station_receive,4
000a16 940e 1de3 	CALL SUBOPT_0x7
                 ;    station_receive.temp = SPI_Read();
                +
000a18 eea4     +LDI R26 , LOW ( _station_receive + ( 6 ) )
000a19 e0bb     +LDI R27 , HIGH ( _station_receive + ( 6 ) )
                 	__POINTW2MN _station_receive,6
000a1a 940e 1de3 	CALL SUBOPT_0x7
                 ;    station_receive.sm = SPI_Read();
                +
000a1c eea6     +LDI R26 , LOW ( _station_receive + ( 8 ) )
000a1d e0bb     +LDI R27 , HIGH ( _station_receive + ( 8 ) )
                 	__POINTW2MN _station_receive,8
000a1e 940e 1de3 	CALL SUBOPT_0x7
                 ;    station_receive.water = SPI_Read();
                +
000a20 eea8     +LDI R26 , LOW ( _station_receive + ( 10 ) )
000a21 e0bb     +LDI R27 , HIGH ( _station_receive + ( 10 ) )
                 	__POINTW2MN _station_receive,10
000a22 e0f0      	LDI  R31,0
000a23 93ed      	ST   X+,R30
000a24 93fc      	ST   X,R31
                 ;    CSN=1;
000a25 9ac5      	SBI  0x18,5
                 ;    CE=1;
000a26 9ac4      	SBI  0x18,4
                 ;    RF_Write(STATUS,0b01111110); // 0x7E-clear IRQ flag
000a27 940e 1ddb 	CALL SUBOPT_0x6
                 ;    RF_Command(0b11100010); //0xE2 = Flush RX
                 ;}
000a29 9508      	RET
                 ; .FEND
                 ;
                 ;
                 ;
                 ;/*------------
                 ;// Chuong trnh g?i dnh cho tr?m 1
                 ;Address1=0xA1;  //y chnh l Send_Add lc khai bo  ???
                 ;Common_Config();
                 ;TX_mode();
                 ;TX_config();
                 ;TX_send();
                 ;
                 ;// Chuong trnh g?i dnh cho tr?m 2
                 ;Address2=0xA2;  //Cn dy chnh l Address1 
                 ;Common_Config();
                 ;TX_mode();
                 ;TX_config();
                 ;TX_send();
                 ;
                 ;// Chuong trnh g?i dnh cho tr?m 3
                 ;Address2=0xA2;
                 ;Address3=0xA3
                 ;Common_Config();
                 ;TX_mode();
                 ;TX_config_2();
                 ;TX_send_2();
                 ;
                 ;// Chuong trnh g?i dnh cho tr?m 4
                 ;Address2=0xA2;
                 ;Address4=0xA4;
                 ;Common_Config();
                 ;TX_mode();
                 ;TX_config_2();
                 ;TX_send_2();
                 ;// Chuong trnh g?i dnh cho tr?m 5
                 ;Address2=0xA2;
                 ;Address5=0xA5;
                 ;Common_Config();
                 ;TX_mode();
                 ;TX_config_2();
                 ;TX_send_2();
                 ;// Chuong trnh g?i dnh cho tr?m 6
                 ;Address2=0xA2;
                 ;Address6=0xA6;
                 ;Common_Config();
                 ;TX_mode();
                 ;TX_config_2();
                 ;TX_send_2();
                 ;// Chuong trnh nh?n dnh cho 4 tr?m
                 ;Address1 = 0xA1;
                 ;Address2 = 0xA2;
                 ;Address3 = 0xA3;
                 ;Address4 = 0xA4;
                 ;Common_Config();
                 ;RX_Mode();
                 ;RX_Config_4();
                 ;if(IRQ == 0){
                 ;        RX_Read();
                 ;            }
                 ;// Chuong trnh nh?n dnh cho 6 tr?m
                 ;Address1 = 0xA1;
                 ;Address2 = 0xA2;
                 ;Address3 = 0xA3;
                 ;Address4 = 0xA4;
                 ;Address5 = 0xA5;
                 ;Address6 = 0xA6;
                 ;Common_Config();
                 ;RX_Mode();
                 ;RX_Config_6();
                 ;if(IRQ == 0){
                 ;        RX_Read();
                 ;            }
                 ;--------------*/
                 ;
                 ;typedef struct {
                 ;	bool 	status;
                 ;	bool 	active_hour[24];
                 ;	bool 	active_week_day[8];
                 ;    bool    is_set_time;
                 ;    int     time_left_m;
                 ;    int     time_left_s;
                 ;    int 	alarm_time_m;
                 ;    int     alarm_time_s;
                 ;} relay_type;
                 ;eeprom relay_type node[6];
                 ;
                 ;#include <menu.c>
                 ;void clrscr                     (); //clear glcd and default setfont
                 ;void gui_init                   (); //main screen include menu, time, SIM signal, relay status
                 ;void gui_print_time             (); //display time, date in main screen
                 ;void gui_colon_blink            (); //blinking second dot
                 ;void gui_set_choice             (int co_y, unsigned char *s);   //dich chuyen con tro khi bam phim back trong luc chon m ...
                 ;void gui_choose_relay           (); //display relay menu
                 ;void gui_current_time           (); //display time menu
                 ;void exe_main_menu              (int command);  //execute commands from main menu
                 ;void gui_cursor_move            (int erase_position);   //move cursor function
                 ;void gui_main_menu              (); //display main menu
                 ;void node_info_examine          (station_info station_receive); //auto proccess over data receiver
                 ;void get_relay_status           (); //get relay status and display on main screen
                 ;void gui_set_title              (unsigned char *s); //set title menu
                 ;void gui_gprs_read              ();
                 ;
                 ;
                 ;
                 ;void clrscr() {
                 ; 0000 001E void clrscr() {
                 _clrscr:
                 ; .FSTART _clrscr
                 ;    glcd_clear();
000a2a 940e 176a 	CALL _glcd_clear
                 ;    glcd_moveto(0,0);
000a2c e0e0      	LDI  R30,LOW(0)
000a2d 93ea      	ST   -Y,R30
000a2e e0a0      	LDI  R26,LOW(0)
000a2f 940e 1b31 	CALL _glcd_moveto
                 ;    glcd_setfont(font5x7);
000a31 940e 1de8 	CALL SUBOPT_0x8
                 ;}
000a33 9508      	RET
                 ; .FEND
                 ;void gui_init() {
                 _gui_init:
                 ; .FSTART _gui_init
                 ;    int i = 0;
                 ;    clrscr();
000a34 940e 1def 	CALL SUBOPT_0x9
                 ;	i -> R16,R17
000a36 dff3      	RCALL _clrscr
                 ;    glcd_rectangle(0,0,84,48);                      // hinh chu nhat bao quanh man hinh
000a37 940e 1df4 	CALL SUBOPT_0xA
000a39 e3a0      	LDI  R26,LOW(48)
000a3a 940e 1c5f 	CALL _glcd_rectangle
                 ;    glcd_rectangle(0,0,84,11);                      // hinh chu nhat bao quanh title
000a3c 940e 1df4 	CALL SUBOPT_0xA
000a3e e0ab      	LDI  R26,LOW(11)
000a3f 940e 1c5f 	CALL _glcd_rectangle
                 ;    glcd_rectangle(0,37,26,48);                     // hinh chu nhat bao quanh menu
000a41 e0e0      	LDI  R30,LOW(0)
000a42 93ea      	ST   -Y,R30
000a43 e2e5      	LDI  R30,LOW(37)
000a44 93ea      	ST   -Y,R30
000a45 e1ea      	LDI  R30,LOW(26)
000a46 93ea      	ST   -Y,R30
000a47 e3a0      	LDI  R26,LOW(48)
000a48 940e 1c5f 	CALL _glcd_rectangle
                 ;    glcd_setfont(font5x7);
000a4a 940e 1de8 	CALL SUBOPT_0x8
                 ;    glcd_outtextxy(18,2,"SPRINKLE");
000a4c e1e2      	LDI  R30,LOW(18)
000a4d 93ea      	ST   -Y,R30
000a4e e0e2      	LDI  R30,LOW(2)
000a4f 93ea      	ST   -Y,R30
                +
000a50 e0a0     +LDI R26 , LOW ( _0x4C + ( 0 ) )
000a51 e0b5     +LDI R27 , HIGH ( _0x4C + ( 0 ) )
                 	__POINTW2MN _0x4C,0
000a52 940e 1aea 	CALL _glcd_outtextxy
                 ;    glcd_outtextxy(2,39,"Menu");
000a54 e0e2      	LDI  R30,LOW(2)
000a55 93ea      	ST   -Y,R30
000a56 e2e7      	LDI  R30,LOW(39)
000a57 93ea      	ST   -Y,R30
                +
000a58 e0a9     +LDI R26 , LOW ( _0x4C + ( 9 ) )
000a59 e0b5     +LDI R27 , HIGH ( _0x4C + ( 9 ) )
                 	__POINTW2MN _0x4C,9
000a5a 940e 1aea 	CALL _glcd_outtextxy
                 ;    get_relay_status();                             //lay status cua cac role de hien thi
000a5c 940e 1dfa 	CALL SUBOPT_0xB
                 ;    glcd_setfont(relay_icon_7x7);
                 ;        for (i = 1; i <= 5; i++) {
                 _0x4E:
                +
000a5e 3006     +CPI R16 , LOW ( 6 )
000a5f e0e0     +LDI R30 , HIGH ( 6 )
000a60 071e     +CPC R17 , R30
                 	__CPWRN 16,17,6
000a61 f42c      	BRGE _0x4F
                 ;            glcd_putcharxy(27 + i * 8, 39, node[i].status); //8: width cua font
000a62 940e 1e05 	CALL SUBOPT_0xC
                 ;        }
                +
000a64 5f0f     +SUBI R16 , LOW ( - 1 )
000a65 4f1f     +SBCI R17 , HIGH ( - 1 )
                 	__ADDWRN 16,17,1
000a66 cff7      	RJMP _0x4E
                 _0x4F:
                 ;    glcd_setfont(phone_signal_10x5);                //cot song cua SIM
000a67 e5e8      	LDI  R30,LOW(_phone_signal_10x5*2)
000a68 e0f7      	LDI  R31,HIGH(_phone_signal_10x5*2)
000a69 940e 1e1a 	CALL SUBOPT_0xD
                 ;    //trong file phone_signal_10x5.c co du 6 moc signal strength nhung luc code dong nay sim dang bi loi phan cung nen c ...
                 ;	//co the dung lenh AT+CSQ de check signal strength
                 ;	if (is_sim_init_ok)                             //binh thuong trong ham init_sms co put_command va doi modul SIM tra ve ...
000a6b 2077      	TST  R7
000a6c f039      	BREQ _0x50
                 ;	    glcd_outtextxy(72, 3, "5");                 //khong co song
000a6d e4e8      	LDI  R30,LOW(72)
000a6e 93ea      	ST   -Y,R30
000a6f e0e3      	LDI  R30,LOW(3)
000a70 93ea      	ST   -Y,R30
                +
000a71 e0ae     +LDI R26 , LOW ( _0x4C + ( 14 ) )
000a72 e0b5     +LDI R27 , HIGH ( _0x4C + ( 14 ) )
                 	__POINTW2MN _0x4C,14
000a73 c006      	RJMP _0x2D9
                 ;	else
                 _0x50:
                 ;        glcd_outtextxy(72, 3, "0");                 //co song
000a74 e4e8      	LDI  R30,LOW(72)
000a75 93ea      	ST   -Y,R30
000a76 e0e3      	LDI  R30,LOW(3)
000a77 93ea      	ST   -Y,R30
                +
000a78 e1a0     +LDI R26 , LOW ( _0x4C + ( 16 ) )
000a79 e0b5     +LDI R27 , HIGH ( _0x4C + ( 16 ) )
                 	__POINTW2MN _0x4C,16
                 _0x2D9:
000a7a 940e 1aea 	CALL _glcd_outtextxy
                 ;}
000a7c c068      	RJMP _0x216001B
                 ; .FEND
                 
                 	.DSEG
                 _0x4C:
000500           	.BYTE 0x12
                 ;void gui_print_time() {
                 
                 	.CSEG
                 _gui_print_time:
                 ; .FSTART _gui_print_time
                 ;    int i = 0;
                 ;    rtc_get_time(&hour, &minute, &second);
000a7d 940e 1def 	CALL SUBOPT_0x9
                 ;	i -> R16,R17
000a7f 940e 1e1f 	CALL SUBOPT_0xE
                 ;    rtc_get_date(&week_day, &day, &month, &year);
000a81 e0e6      	LDI  R30,LOW(6)
000a82 e0f0      	LDI  R31,HIGH(6)
000a83 93fa      	ST   -Y,R31
000a84 93ea      	ST   -Y,R30
000a85 e0ed      	LDI  R30,LOW(13)
000a86 e0f0      	LDI  R31,HIGH(13)
000a87 93fa      	ST   -Y,R31
000a88 93ea      	ST   -Y,R30
000a89 e0ec      	LDI  R30,LOW(12)
000a8a e0f0      	LDI  R31,HIGH(12)
000a8b 93fa      	ST   -Y,R31
000a8c 93ea      	ST   -Y,R30
000a8d eda6      	LDI  R26,LOW(_year)
000a8e e0bb      	LDI  R27,HIGH(_year)
000a8f 940e 1657 	CALL _rtc_get_date
                 ;    glcd_setfont(big_letter_10x14);     //font chu to de hien thi gio + phut
000a91 940e 1e2b 	CALL SUBOPT_0xF
                 ;    glcd_outtextxyf(11, BIG_COLON_Y, name_hour[hour]);      //hien thi gio bang so to giua man hinh
000a93 e0eb      	LDI  R30,LOW(11)
000a94 93ea      	ST   -Y,R30
000a95 e0ed      	LDI  R30,LOW(13)
000a96 93ea      	ST   -Y,R30
000a97 91e0 0bd7 	LDS  R30,_hour
000a99 e9a4      	LDI  R26,LOW(_name_hour)
000a9a e0bb      	LDI  R27,HIGH(_name_hour)
000a9b 940e 1e2e 	CALL SUBOPT_0x10
                 ;    glcd_outtextxyf(44, BIG_COLON_Y, name_minute[minute]);  //hien thi phut bang so to giua man hinh
000a9d e2ec      	LDI  R30,LOW(44)
000a9e 93ea      	ST   -Y,R30
000a9f e0ed      	LDI  R30,LOW(13)
000aa0 93ea      	ST   -Y,R30
000aa1 91e0 0bd8 	LDS  R30,_minute
000aa3 e1ac      	LDI  R26,LOW(_name_minute)
000aa4 e0bb      	LDI  R27,HIGH(_name_minute)
000aa5 940e 1e2e 	CALL SUBOPT_0x10
                 ;    glcd_setfont(tiny_letter);          //font chu nho de hien thi ngay - thang - nam
000aa7 efea      	LDI  R30,LOW(_tiny_letter*2)
000aa8 e0f5      	LDI  R31,HIGH(_tiny_letter*2)
000aa9 940e 1e1a 	CALL SUBOPT_0xD
                 ;    glcd_outtextxyf(66, BIG_COLON_Y, name_second[second]);
000aab e4e2      	LDI  R30,LOW(66)
000aac 93ea      	ST   -Y,R30
000aad e0ed      	LDI  R30,LOW(13)
000aae 93ea      	ST   -Y,R30
000aaf 91e0 0bd9 	LDS  R30,_second
000ab1 eaa4      	LDI  R26,LOW(_name_second)
000ab2 e0ba      	LDI  R27,HIGH(_name_second)
000ab3 940e 1e2e 	CALL SUBOPT_0x10
                 ;    glcd_outtextxyf(66,22,name_week_day[week_day]);
000ab5 e4e2      	LDI  R30,LOW(66)
000ab6 93ea      	ST   -Y,R30
000ab7 e1e6      	LDI  R30,LOW(22)
000ab8 93ea      	ST   -Y,R30
000ab9 2de6      	MOV  R30,R6
000aba e1aa      	LDI  R26,LOW(_name_week_day)
000abb e0ba      	LDI  R27,HIGH(_name_week_day)
000abc 940e 1e2e 	CALL SUBOPT_0x10
                 ;    glcd_outtextxyf(2, SMALL_COLON_Y, name_month[month]);
000abe e0e2      	LDI  R30,LOW(2)
000abf 93ea      	ST   -Y,R30
000ac0 e1ee      	LDI  R30,LOW(30)
000ac1 93ea      	ST   -Y,R30
000ac2 2dec      	MOV  R30,R12
000ac3 e6aa      	LDI  R26,LOW(_name_month)
000ac4 e0ba      	LDI  R27,HIGH(_name_month)
000ac5 940e 1e2e 	CALL SUBOPT_0x10
                 ;    glcd_outtext(" ");
                +
000ac7 e1a2     +LDI R26 , LOW ( _0x52 + ( 0 ) )
000ac8 e0b5     +LDI R27 , HIGH ( _0x52 + ( 0 ) )
                 	__POINTW2MN _0x52,0
000ac9 940e 1afe 	CALL _glcd_outtext
                 ;    glcd_outtextf(name_day[day]);
000acb 2ded      	MOV  R30,R13
000acc e2aa      	LDI  R26,LOW(_name_day)
000acd e0ba      	LDI  R27,HIGH(_name_day)
000ace 940e 1e38 	CALL SUBOPT_0x11
                 ;    glcd_outtext(" ");
                +
000ad0 e1a4     +LDI R26 , LOW ( _0x52 + ( 2 ) )
000ad1 e0b5     +LDI R27 , HIGH ( _0x52 + ( 2 ) )
                 	__POINTW2MN _0x52,2
000ad2 940e 1afe 	CALL _glcd_outtext
                 ;    glcd_outtextf(name_year[year]);
000ad4 91e0 0bd6 	LDS  R30,_year
000ad6 e8a4      	LDI  R26,LOW(_name_year)
000ad7 e0ba      	LDI  R27,HIGH(_name_year)
000ad8 940e 1e38 	CALL SUBOPT_0x11
                 ;    get_relay_status();
000ada 940e 1dfa 	CALL SUBOPT_0xB
                 ;    glcd_setfont(relay_icon_7x7);
                 ;        for (i = 1; i <= 5; i++) {
                 _0x54:
                +
000adc 3006     +CPI R16 , LOW ( 6 )
000add e0e0     +LDI R30 , HIGH ( 6 )
000ade 071e     +CPC R17 , R30
                 	__CPWRN 16,17,6
000adf f42c      	BRGE _0x55
                 ;            glcd_putcharxy(27 + i * 8, 39, node[i].status); //8: width cua font
000ae0 940e 1e05 	CALL SUBOPT_0xC
                 ;        }
                +
000ae2 5f0f     +SUBI R16 , LOW ( - 1 )
000ae3 4f1f     +SBCI R17 , HIGH ( - 1 )
                 	__ADDWRN 16,17,1
000ae4 cff7      	RJMP _0x54
                 _0x55:
                 ;}
                 _0x216001B:
000ae5 9109      	LD   R16,Y+
000ae6 9119      	LD   R17,Y+
000ae7 9508      	RET
                 ; .FEND
                 
                 	.DSEG
                 _0x52:
000512           	.BYTE 0x4
                 ;void gui_colon_blink() {
                 
                 	.CSEG
                 _gui_colon_blink:
                 ; .FSTART _gui_colon_blink
                 ;    if (blink) {
000ae8 2055      	TST  R5
000ae9 f049      	BREQ _0x56
                 ;        glcd_setfont(big_letter_10x14);
000aea 940e 1e2b 	CALL SUBOPT_0xF
                 ;        glcd_outtextxy(BIG_COLON_X, BIG_COLON_Y, ":");
000aec e2e1      	LDI  R30,LOW(33)
000aed 93ea      	ST   -Y,R30
000aee e0ed      	LDI  R30,LOW(13)
000aef 93ea      	ST   -Y,R30
                +
000af0 e1a6     +LDI R26 , LOW ( _0x57 + ( 0 ) )
000af1 e0b5     +LDI R27 , HIGH ( _0x57 + ( 0 ) )
                 	__POINTW2MN _0x57,0
000af2 c008      	RJMP _0x2DA
                 ;    } else {
                 _0x56:
                 ;        glcd_setfont(big_letter_10x14);
000af3 940e 1e2b 	CALL SUBOPT_0xF
                 ;        glcd_outtextxy(BIG_COLON_X, BIG_COLON_Y, "="); //vi luc ve font quen ve dau space nen dung tam dau = :v
000af5 e2e1      	LDI  R30,LOW(33)
000af6 93ea      	ST   -Y,R30
000af7 e0ed      	LDI  R30,LOW(13)
000af8 93ea      	ST   -Y,R30
                +
000af9 e1a8     +LDI R26 , LOW ( _0x57 + ( 2 ) )
000afa e0b5     +LDI R27 , HIGH ( _0x57 + ( 2 ) )
                 	__POINTW2MN _0x57,2
                 _0x2DA:
000afb 940e 1aea 	CALL _glcd_outtextxy
                 ;    }
                 ;    blink = !blink;
000afd 2de5      	MOV  R30,R5
000afe 940e 21cc 	CALL __LNEGB1
000b00 2e5e      	MOV  R5,R30
                 ;}
000b01 9508      	RET
                 ; .FEND
                 
                 	.DSEG
                 _0x57:
000516           	.BYTE 0x4
                 ;void gui_set_choice(int co_y, unsigned char *s) {
                 
                 	.CSEG
                 _gui_set_choice:
                 ; .FSTART _gui_set_choice
                 ;    char text[14];
                 ;    int i = 0;
                 ;    memset(text,'\0',14);    //sao chep ky tu '\0' vao 14 ky tu dau tien cua chuoi text
000b02 93ba      	ST   -Y,R27
000b03 93aa      	ST   -Y,R26
000b04 972e      	SBIW R28,14
000b05 940e 1def 	CALL SUBOPT_0x9
                 ;	co_y -> Y+18
                 ;	*s -> Y+16
                 ;	text -> Y+2
                 ;	i -> R16,R17
000b07 940e 1e42 	CALL SUBOPT_0x12
000b09 e0ae      	LDI  R26,LOW(14)
000b0a e0b0      	LDI  R27,0
000b0b 940e 1c93 	CALL _memset
                 ;    while (*s) {             //de khong anh huong den cac chu trong menu dang sau
                 _0x59:
000b0d 89a8      	LDD  R26,Y+16
000b0e 89b9      	LDD  R27,Y+16+1
000b0f 91ec      	LD   R30,X
000b10 30e0      	CPI  R30,0
000b11 f079      	BREQ _0x5B
                 ;        text[i] = *s;
000b12 940e 1e49 	CALL SUBOPT_0x13
000b14 89a8      	LDD  R26,Y+16
000b15 89b9      	LDD  R27,Y+16+1
000b16 91ec      	LD   R30,X
000b17 01d0      	MOVW R26,R0
000b18 93ec      	ST   X,R30
                 ;        i++;
                +
000b19 5f0f     +SUBI R16 , LOW ( - 1 )
000b1a 4f1f     +SBCI R17 , HIGH ( - 1 )
                 	__ADDWRN 16,17,1
                 ;        s++;
000b1b 89e8      	LDD  R30,Y+16
000b1c 89f9      	LDD  R31,Y+16+1
000b1d 9631      	ADIW R30,1
000b1e 8be8      	STD  Y+16,R30
000b1f 8bf9      	STD  Y+16+1,R31
                 ;    }
000b20 cfec      	RJMP _0x59
                 _0x5B:
                 ;    glcd_outtextxy(x, co_y, text); //dich chuyen dong chon tiep theo cua menu
000b21 928a      	ST   -Y,R8
000b22 89eb      	LDD  R30,Y+19
000b23 93ea      	ST   -Y,R30
000b24 01de      	MOVW R26,R28
000b25 9614      	ADIW R26,4
000b26 940e 1aea 	CALL _glcd_outtextxy
                 ;}
000b28 8119      	LDD  R17,Y+1
000b29 8108      	LDD  R16,Y+0
000b2a c0b9      	RJMP _0x2160019
                 ; .FEND
                 ;void exe_main_menu(int command) {
                 _exe_main_menu:
                 ; .FSTART _exe_main_menu
                 ;    switch (command) {
000b2b 940e 1e50 	CALL SUBOPT_0x14
                 ;	command -> Y+0
                 ;    case 1:
000b2d 30e1      	CPI  R30,LOW(0x1)
000b2e e0a0      	LDI  R26,HIGH(0x1)
000b2f 07fa      	CPC  R31,R26
000b30 f419      	BRNE _0x5F
                 ;        gui_current_time();
000b31 940e 13a2 	CALL _gui_current_time
                 ;        return;
000b33 c360      	RJMP _0x2160013
                 ;    case 2:
                 _0x5F:
000b34 30e2      	CPI  R30,LOW(0x2)
000b35 e0a0      	LDI  R26,HIGH(0x2)
000b36 07fa      	CPC  R31,R26
000b37 f411      	BRNE _0x60
                 ;        gui_choose_relay();
000b38 d4ff      	RCALL _gui_choose_relay
                 ;        return;
000b39 c35a      	RJMP _0x2160013
                 ;    case 3:
                 _0x60:
000b3a 30e3      	CPI  R30,LOW(0x3)
000b3b e0a0      	LDI  R26,HIGH(0x3)
000b3c 07fa      	CPC  R31,R26
000b3d f409      	BRNE _0x61
                 ;       // is_sim_init_ok = true;
                 ;     //   init_sms();
                 ;      //  init_gprs();
                 ;        return;
000b3e c355      	RJMP _0x2160013
                 ;    case 4:
                 _0x61:
000b3f 30e4      	CPI  R30,LOW(0x4)
000b40 e0a0      	LDI  R26,HIGH(0x4)
000b41 07fa      	CPC  R31,R26
000b42 f411      	BRNE _0x5E
                 ;        gui_gprs_read();
000b43 d0a2      	RCALL _gui_gprs_read
                 ;        return;
000b44 c34f      	RJMP _0x2160013
                 ;    }
                 _0x5E:
                 ;}
000b45 c34e      	RJMP _0x2160013
                 ; .FEND
                 ;void gui_cursor_move(int erase_position) {
                 _gui_cursor_move:
                 ; .FSTART _gui_cursor_move
                 ;    if (erase_position == 0) {
000b46 940e 1e50 	CALL SUBOPT_0x14
                 ;	erase_position -> Y+0
000b48 9730      	SBIW R30,0
000b49 f431      	BRNE _0x63
                 ;        glcd_putcharxy(x - 7,y - NEW_LINE,' ');
000b4a 2de8      	MOV  R30,R8
000b4b 50e7      	SUBI R30,LOW(7)
000b4c 93ea      	ST   -Y,R30
000b4d 2dea      	MOV  R30,R10
000b4e 50e8      	SUBI R30,LOW(8)
000b4f c009      	RJMP _0x2DB
                 ;    } else {
                 _0x63:
                 ;        glcd_putcharxy(x - 7,15 + NEW_LINE * (erase_position - 1), ' ');
000b50 2de8      	MOV  R30,R8
000b51 50e7      	SUBI R30,LOW(7)
000b52 93ea      	ST   -Y,R30
000b53 81e9      	LDD  R30,Y+1
000b54 50e1      	SUBI R30,LOW(1)
000b55 0fee      	LSL  R30
000b56 0fee      	LSL  R30
000b57 0fee      	LSL  R30
000b58 5fe1      	SUBI R30,-LOW(15)
                 _0x2DB:
000b59 93ea      	ST   -Y,R30
000b5a e2a0      	LDI  R26,LOW(32)
000b5b 940e 1ae1 	CALL _glcd_putcharxy
                 ;    }
                 ;    glcd_putcharxy(x - 7, y, '>');
000b5d 940e 1e55 	CALL SUBOPT_0x15
                 ;}
000b5f c334      	RJMP _0x2160013
                 ; .FEND
                 ;void gui_main_menu() {
                 _gui_main_menu:
                 ; .FSTART _gui_main_menu
                 ;    int erase_position = 0;
                 ;    int command;
                 ;     while (1) {
000b60 940e 1e5c 	CALL SUBOPT_0x16
                 ;	erase_position -> R16,R17
                 ;	command -> R18,R19
                 _0x65:
                 ;        clrscr();
000b62 dec7      	RCALL _clrscr
                 ;        gui_set_title("MENU");
                +
000b63 e1aa     +LDI R26 , LOW ( _0x68 + ( 0 ) )
000b64 e0b5     +LDI R27 , HIGH ( _0x68 + ( 0 ) )
                 	__POINTW2MN _0x68,0
000b65 940e 1e61 	CALL SUBOPT_0x17
                 ;        gui_set_choice(y + NEW_LINE * 0, "Set Time");   //NEW_LINE =8, lan luot cac hang menu cach nhau 8 hang
                +
000b67 e1af     +LDI R26 , LOW ( _0x68 + ( 5 ) )
000b68 e0b5     +LDI R27 , HIGH ( _0x68 + ( 5 ) )
                 	__POINTW2MN _0x68,5
000b69 940e 1e68 	CALL SUBOPT_0x18
                 ;        gui_set_choice(y + NEW_LINE * 1, "Set Node");
                +
000b6b e2a8     +LDI R26 , LOW ( _0x68 + ( 14 ) )
000b6c e0b5     +LDI R27 , HIGH ( _0x68 + ( 14 ) )
                 	__POINTW2MN _0x68,14
000b6d 940e 1e6f 	CALL SUBOPT_0x19
                 ;        gui_set_choice(y + NEW_LINE * 2, "Sim Init");
                +
000b6f e3a1     +LDI R26 , LOW ( _0x68 + ( 23 ) )
000b70 e0b5     +LDI R27 , HIGH ( _0x68 + ( 23 ) )
                 	__POINTW2MN _0x68,23
000b71 940e 1e76 	CALL SUBOPT_0x1A
                 ;        gui_set_choice(y + NEW_LINE * 3, "Get GPRS");
                +
000b73 e3aa     +LDI R26 , LOW ( _0x68 + ( 32 ) )
000b74 e0b5     +LDI R27 , HIGH ( _0x68 + ( 32 ) )
                 	__POINTW2MN _0x68,32
000b75 df8c      	RCALL _gui_set_choice
                 ;        command = 1;
                +
000b76 e021     +LDI R18 , LOW ( 1 )
000b77 e030     +LDI R19 , HIGH ( 1 )
                 	__GETWRN 18,19,1
                 ;         while (1) {
                 _0x69:
                 ;            if (btn_enter) {
000b78 99cb      	SBIC 0x19,3
000b79 c005      	RJMP _0x6C
                 ;                while(btn_enter);
                 _0x6D:
000b7a 9bcb      	SBIS 0x19,3
000b7b cffe      	RJMP _0x6D
                 ;                exe_main_menu(command);
000b7c 01d9      	MOVW R26,R18
000b7d dfad      	RCALL _exe_main_menu
                 ;                break;
000b7e c014      	RJMP _0x6B
                 ;            }
                 ;            if (btn_back) {     //next menu when press back button
                 _0x6C:
000b7f 99cc      	SBIC 0x19,4
000b80 c009      	RJMP _0x70
                 ;                while(btn_back);
                 _0x71:
000b81 9bcc      	SBIS 0x19,4
000b82 cffe      	RJMP _0x71
                 ;                command++;                  //increase command
000b83 940e 1e7d 	CALL SUBOPT_0x1B
                 ;                y += NEW_LINE;              //next menu
                 ;                if (command > 4) {          //total 4 command, if lager 4 will return first command
000b85 f014      	BRLT _0x74
                 ;                    erase_position  =   4;
000b86 940e 1e86 	CALL SUBOPT_0x1C
                 ;                    command         =   1;
                 ;                    y               =   15;
                 ;                }
                 ;                gui_cursor_move(erase_position);  //move cursor when press back button
                 _0x74:
000b88 940e 1e8e 	CALL SUBOPT_0x1D
                 ;                erase_position      =   0;
                 ;            }
                 ;            if (btn_menu) {      //show start screen when press menu button
                 _0x70:
000b8a 99cd      	SBIC 0x19,5
000b8b c006      	RJMP _0x75
                 ;                while (btn_menu);
                 _0x76:
000b8c 9bcd      	SBIS 0x19,5
000b8d cffe      	RJMP _0x76
                 ;                gui_init();
000b8e dea5      	RCALL _gui_init
                 ;                is_show_clock = true;
000b8f e0e1      	LDI  R30,LOW(1)
000b90 2e4e      	MOV  R4,R30
                 ;
                 ;                return;
000b91 c002      	RJMP _0x216001A
                 ;            }
                 ;         }
                 _0x75:
000b92 cfe5      	RJMP _0x69
                 _0x6B:
                 ;     }
000b93 cfce      	RJMP _0x65
                 ;}
                 _0x216001A:
000b94 940e 227e 	CALL __LOADLOCR4
000b96 9624      	ADIW R28,4
000b97 9508      	RET
                 ; .FEND
                 
                 	.DSEG
                 _0x68:
00051a           	.BYTE 0x29
                 ;void gui_set_title(unsigned char *s) {
                 
                 	.CSEG
                 _gui_set_title:
                 ; .FSTART _gui_set_title
                 ;    char title[14];
                 ;    int i = 0, co_x;
                 ;    memset(title,'\0',14);
000b98 93ba      	ST   -Y,R27
000b99 93aa      	ST   -Y,R26
000b9a 972e      	SBIW R28,14
000b9b 940e 1e5c 	CALL SUBOPT_0x16
                 ;	*s -> Y+18
                 ;	title -> Y+4
                 ;	i -> R16,R17
                 ;	co_x -> R18,R19
000b9d 940e 1e94 	CALL SUBOPT_0x1E
000b9f e0ae      	LDI  R26,LOW(14)
000ba0 e0b0      	LDI  R27,0
000ba1 940e 1c93 	CALL _memset
                 ;    while (*s) {
                 _0x79:
000ba3 89aa      	LDD  R26,Y+18
000ba4 89bb      	LDD  R27,Y+18+1
000ba5 91ec      	LD   R30,X
000ba6 30e0      	CPI  R30,0
000ba7 f079      	BREQ _0x7B
                 ;        title[i] = *s;
000ba8 940e 1e9b 	CALL SUBOPT_0x1F
000baa 89aa      	LDD  R26,Y+18
000bab 89bb      	LDD  R27,Y+18+1
000bac 91ec      	LD   R30,X
000bad 01d0      	MOVW R26,R0
000bae 93ec      	ST   X,R30
                 ;        i++;
                +
000baf 5f0f     +SUBI R16 , LOW ( - 1 )
000bb0 4f1f     +SBCI R17 , HIGH ( - 1 )
                 	__ADDWRN 16,17,1
                 ;        s++;
000bb1 89ea      	LDD  R30,Y+18
000bb2 89fb      	LDD  R31,Y+18+1
000bb3 9631      	ADIW R30,1
000bb4 8bea      	STD  Y+18,R30
000bb5 8bfb      	STD  Y+18+1,R31
                 ;    }
000bb6 cfec      	RJMP _0x79
                 _0x7B:
                 ;    co_x = (84 - i*6)/2;
000bb7 01f8      	MOVW R30,R16
000bb8 e0a6      	LDI  R26,LOW(6)
000bb9 e0b0      	LDI  R27,HIGH(6)
000bba 940e 21df 	CALL __MULW12
000bbc e5a4      	LDI  R26,LOW(84)
000bbd e0b0      	LDI  R27,HIGH(84)
000bbe 1bae      	SUB  R26,R30
000bbf 0bbf      	SBC  R27,R31
000bc0 e0e2      	LDI  R30,LOW(2)
000bc1 e0f0      	LDI  R31,HIGH(2)
000bc2 940e 21f7 	CALL __DIVW21
000bc4 019f      	MOVW R18,R30
                 ;    glcd_outtextxy(co_x, 2, title);
000bc5 932a      	ST   -Y,R18
000bc6 e0e2      	LDI  R30,LOW(2)
000bc7 93ea      	ST   -Y,R30
000bc8 01de      	MOVW R26,R28
000bc9 9616      	ADIW R26,6
000bca 940e 1aea 	CALL _glcd_outtextxy
                 ;    glcd_line(0,10,84,10);
000bcc e0e0      	LDI  R30,LOW(0)
000bcd 93ea      	ST   -Y,R30
000bce e0ea      	LDI  R30,LOW(10)
000bcf 93ea      	ST   -Y,R30
000bd0 e5e4      	LDI  R30,LOW(84)
000bd1 93ea      	ST   -Y,R30
000bd2 e0aa      	LDI  R26,LOW(10)
000bd3 940e 1b3e 	CALL _glcd_line
                 ;    glcd_rectangle(0,0,84,48);
000bd5 940e 1df4 	CALL SUBOPT_0xA
000bd7 e3a0      	LDI  R26,LOW(48)
000bd8 940e 1c5f 	CALL _glcd_rectangle
                 ;    y = 15;
000bda e0ef      	LDI  R30,LOW(15)
000bdb e0f0      	LDI  R31,HIGH(15)
000bdc 015f      	MOVW R10,R30
                 ;    x = 10;
000bdd e0ea      	LDI  R30,LOW(10)
000bde e0f0      	LDI  R31,HIGH(10)
000bdf 014f      	MOVW R8,R30
                 ;    glcd_putcharxy(x - 7,y,'>');
000be0 940e 1e55 	CALL SUBOPT_0x15
                 ;}
000be2 940e 227e 	CALL __LOADLOCR4
                 _0x2160019:
000be4 9664      	ADIW R28,20
000be5 9508      	RET
                 ; .FEND
                 ;
                 ;void gui_gprs_read() {
                 _gui_gprs_read:
                 ; .FSTART _gui_gprs_read
                 ;    clrscr();
000be6 de43      	RCALL _clrscr
                 ;    gui_set_title("Website CMD ");
                +
000be7 e4a3     +LDI R26 , LOW ( _0x7C + ( 0 ) )
000be8 e0b5     +LDI R27 , HIGH ( _0x7C + ( 0 ) )
                 	__POINTW2MN _0x7C,0
000be9 dfae      	RCALL _gui_set_title
                 ;    glcd_putcharxy(x - 7,y,' '); //xoa dau >
000bea 940e 1ea2 	CALL SUBOPT_0x20
                 ;   //gprs_read();
                 ;    while (1) {
                 _0x7D:
                 ;        if (btn_menu) {
000bec 99cd      	SBIC 0x19,5
000bed c003      	RJMP _0x80
                 ;            while (btn_menu);
                 _0x81:
000bee 9bcd      	SBIS 0x19,5
000bef cffe      	RJMP _0x81
                 ;            return;
000bf0 9508      	RET
                 ;        }
                 ;    }
                 _0x80:
000bf1 cffa      	RJMP _0x7D
                 ;}
                 ; .FEND
                 
                 	.DSEG
                 _0x7C:
000543           	.BYTE 0xD
                 ;
                 ;void node_info_examine(station_info station_receive) {
                 
                 	.CSEG
                 _node_info_examine:
                 ; .FSTART _node_info_examine
                 ;if ((station_receive.light < 70) && (station_receive.sm < 20)) {
                 ;	station_receive -> Y+0
000bf2 81aa      	LDD  R26,Y+2
000bf3 81bb      	LDD  R27,Y+2+1
000bf4 34a6      	CPI  R26,LOW(0x46)
000bf5 e0e0      	LDI  R30,HIGH(0x46)
000bf6 07be      	CPC  R27,R30
000bf7 f424      	BRGE _0x85
000bf8 85a8      	LDD  R26,Y+8
000bf9 85b9      	LDD  R27,Y+8+1
000bfa 9754      	SBIW R26,20
000bfb f00c      	BRLT _0x86
                 _0x85:
000bfc c028      	RJMP _0x84
                 _0x86:
                 ;		switch (station_receive.flag) {
000bfd 81e8      	LD   R30,Y
000bfe 81f9      	LDD  R31,Y+1
                 ;			case 1:
000bff 30e1      	CPI  R30,LOW(0x1)
000c00 e0a0      	LDI  R26,HIGH(0x1)
000c01 07fa      	CPC  R31,R26
000c02 f419      	BRNE _0x8A
                 ;	            relay_1                 =   ON;
000c03 940e 1ea9 	CALL SUBOPT_0x21
                 ;	            node[1].status          =   ON;
                 ;	            node[1].alarm_time_s    =   1 * MIN_TO_SEC;
000c05 c01b      	RJMP _0x2DC
                 ;        	break;
                 ;	        case 2:
                 _0x8A:
000c06 30e2      	CPI  R30,LOW(0x2)
000c07 e0a0      	LDI  R26,HIGH(0x2)
000c08 07fa      	CPC  R31,R26
000c09 f419      	BRNE _0x8D
                 ;	            relay_2                 =   ON;
000c0a 940e 1eb2 	CALL SUBOPT_0x22
                 ;	            node[2].status          =   ON;
                 ;	            node[2].alarm_time_s    =   1 * MIN_TO_SEC;
000c0c c014      	RJMP _0x2DC
                 ;	        break;
                 ;	        case 3:
                 _0x8D:
000c0d 30e3      	CPI  R30,LOW(0x3)
000c0e e0a0      	LDI  R26,HIGH(0x3)
000c0f 07fa      	CPC  R31,R26
000c10 f419      	BRNE _0x90
                 ;	            relay_3                 =   ON;
000c11 940e 1ebb 	CALL SUBOPT_0x23
                 ;	            node[3].status          =   ON;
                 ;	            node[3].alarm_time_s    =   1 * MIN_TO_SEC;
000c13 c00d      	RJMP _0x2DC
                 ;	        break;
                 ;	        case 4:
                 _0x90:
000c14 30e4      	CPI  R30,LOW(0x4)
000c15 e0a0      	LDI  R26,HIGH(0x4)
000c16 07fa      	CPC  R31,R26
000c17 f419      	BRNE _0x93
                 ;	            relay_4                 =   ON;
000c18 940e 1ec4 	CALL SUBOPT_0x24
                 ;	            node[4].status          =   ON;
                 ;	            node[4].alarm_time_s    =   1 * MIN_TO_SEC;
000c1a c006      	RJMP _0x2DC
                 ;	        break;
                 ;	        case 5:
                 _0x93:
000c1b 30e5      	CPI  R30,LOW(0x5)
000c1c e0a0      	LDI  R26,HIGH(0x5)
000c1d 07fa      	CPC  R31,R26
000c1e f431      	BRNE _0x89
                 ;	            relay_5                 =   ON;
000c1f 940e 1ecd 	CALL SUBOPT_0x25
                 ;	            node[5].status          =   ON;
                 ;	            node[5].alarm_time_s    =   1 * MIN_TO_SEC;
                 _0x2DC:
000c21 e3ec      	LDI  R30,LOW(60)
000c22 e0f0      	LDI  R31,HIGH(60)
000c23 940e 224f 	CALL __EEPROMWRW
                 ;	        break;
                 ;		}
                 _0x89:
                 ;	}
                 ;}
                 _0x84:
000c25 962c      	ADIW R28,12
000c26 9508      	RET
                 ; .FEND
                 ;#include <sim_uart1_init.c>
                 ;unsigned char phone_number[13] = "+84983712941";
                 
                 	.DSEG
                 ;unsigned char sim = 0;   //0 la sim vietnam mobile, 1 la sim viettel
                 ;unsigned char money_code[20];
                 ;char money[10];
                 ;bool is_get_money = false;
                 ;
                 ;
                 ;void put_string                         (unsigned char *s);
                 ;void put_command                        (unsigned char *s, int time_out_ms, int max_retry);
                 ;void sms_read                           ();
                 ;bool read_command                       (unsigned char *s);
                 ;bool wait_until                         (unsigned char *s, int time_out_ms);
                 ;void clear_buffer                       ();
                 ;void decrypt                            (unsigned char *s);
                 ;void toggle_relay                       (bool status, unsigned char *s);
                 ;void sms_send                           (unsigned char *s);
                 ;void init_sms                           ();
                 ;void init_gprs                          ();
                 ;void gprs_read                          ();
                 ;void gprs_send                          ();
                 ;void get_money_request                  ();
                 ;void call                               ();
                 ;void get_money_response_vietnammobile   ();
                 ;void get_money_response_viettel         ();
                 ;void put_money                          ();
                 ;
                 ;const int   BUFFER_SIZE         =   500,
                 ;            DEFAULT_MAX_RETRY   =   5,
                 ;            DEFAULT_TIME_OUT_MS =   50;
                 ;
                 ;int buffer_index = 0;
                 ;char receive_buffer[BUFFER_SIZE];
                 ;
                 ;// USART1 Receiver buffer
                 ;#define RX_BUFFER_SIZE1 64
                 ;char rx_buffer1[RX_BUFFER_SIZE1];
                 ;
                 ;#if RX_BUFFER_SIZE1 <= 256
                 ;    unsigned char rx_wr_index1=0,rx_rd_index1=0;
                 ;#else
                 ;    unsigned int rx_wr_index1=0,rx_rd_index1=0;
                 ;#endif
                 ;
                 ;#if RX_BUFFER_SIZE1 < 256
                 ;    unsigned char rx_counter1=0;
                 ;#else
                 ;    unsigned int rx_counter1=0;
                 ;#endif
                 ;
                 ;// This flag is set on USART1 Receiver buffer overflow
                 ;bit rx_buffer_overflow1;
                 ;
                 ;// USART1 Receiver interrupt service routine
                 ;interrupt [USART1_RXC] void usart1_rx_isr(void) {
                 ; 0000 001F interrupt [31] void usart1_rx_isr(void) {
                 
                 	.CSEG
                 _usart1_rx_isr:
                 ; .FSTART _usart1_rx_isr
000c27 940e 1ed6 	CALL SUBOPT_0x26
                 ;    char status,data;
                 ;    status=UCSR1A;
000c29 931a      	ST   -Y,R17
000c2a 930a      	ST   -Y,R16
                 ;	status -> R17
                 ;	data -> R16
000c2b 9110 009b 	LDS  R17,155
                 ;    data=UDR1;
000c2d 9100 009c 	LDS  R16,156
                 ;
                 ;    if ((status & (FRAMING_ERROR | PARITY_ERROR | DATA_OVERRUN))==0) {
000c2f 2fe1      	MOV  R30,R17
000c30 71ec      	ANDI R30,LOW(0x1C)
000c31 f4e9      	BRNE _0x9A
                 ;        rx_buffer1[rx_wr_index1++]=data;
000c32 91e0 0e40 	LDS  R30,_rx_wr_index1
000c34 5fef      	SUBI R30,-LOW(1)
000c35 93e0 0e40 	STS  _rx_wr_index1,R30
000c37 50e1      	SUBI R30,LOW(1)
000c38 e0f0      	LDI  R31,0
000c39 50e0      	SUBI R30,LOW(-_rx_buffer1)
000c3a 4ff2      	SBCI R31,HIGH(-_rx_buffer1)
000c3b 8300      	ST   Z,R16
                 ;        #if RX_BUFFER_SIZE1 == 256
                 ;        // special case for receiver buffer size=256
                 ;            if (++rx_counter1 == 0) rx_buffer_overflow1=1;
                 ;        #else
                 ;            if (rx_wr_index1 == RX_BUFFER_SIZE1) rx_wr_index1=0;
000c3c 91a0 0e40 	LDS  R26,_rx_wr_index1
000c3e 34a0      	CPI  R26,LOW(0x40)
000c3f f419      	BRNE _0x9B
000c40 e0e0      	LDI  R30,LOW(0)
000c41 93e0 0e40 	STS  _rx_wr_index1,R30
                 ;            if (++rx_counter1 == RX_BUFFER_SIZE1) {
                 _0x9B:
000c43 91a0 0e42 	LDS  R26,_rx_counter1
000c45 5faf      	SUBI R26,-LOW(1)
000c46 93a0 0e42 	STS  _rx_counter1,R26
000c48 34a0      	CPI  R26,LOW(0x40)
000c49 f429      	BRNE _0x9C
                 ;                rx_counter1=0;
000c4a e0e0      	LDI  R30,LOW(0)
000c4b 93e0 0e42 	STS  _rx_counter1,R30
                 ;                rx_buffer_overflow1=1;
000c4d 9468      	SET
000c4e f820      	BLD  R2,0
                 ;            }
                 ;        #endif
                 ;    }
                 _0x9C:
                 ;
                 ;    receive_buffer[buffer_index] = data;
                 _0x9A:
000c4f 91e0 0c0a 	LDS  R30,_buffer_index
000c51 91f0 0c0b 	LDS  R31,_buffer_index+1
000c53 5fe4      	SUBI R30,LOW(-_receive_buffer)
000c54 4ff3      	SBCI R31,HIGH(-_receive_buffer)
000c55 8300      	ST   Z,R16
                 ;    if (read_command("CMTI")) sms_read();
                +
000c56 e5a0     +LDI R26 , LOW ( _0x9E + ( 0 ) )
000c57 e0b5     +LDI R27 , HIGH ( _0x9E + ( 0 ) )
                 	__POINTW2MN _0x9E,0
000c58 d0fb      	RCALL _read_command
000c59 30e0      	CPI  R30,0
000c5a f009      	BREQ _0x9D
000c5b d17a      	RCALL _sms_read
                 ;    if (buffer_index == BUFFER_SIZE) buffer_index = 0;
                 _0x9D:
000c5c 91a0 0c0a 	LDS  R26,_buffer_index
000c5e 91b0 0c0b 	LDS  R27,_buffer_index+1
000c60 3fa4      	CPI  R26,LOW(0x1F4)
000c61 e0e1      	LDI  R30,HIGH(0x1F4)
000c62 07be      	CPC  R27,R30
000c63 f429      	BRNE _0x9F
000c64 e0e0      	LDI  R30,LOW(0)
000c65 93e0 0c0a 	STS  _buffer_index,R30
000c67 93e0 0c0b 	STS  _buffer_index+1,R30
                 ;    buffer_index++;
                 _0x9F:
000c69 e0aa      	LDI  R26,LOW(_buffer_index)
000c6a e0bc      	LDI  R27,HIGH(_buffer_index)
000c6b 940e 1ee4 	CALL SUBOPT_0x27
                 ;}
000c6d 9109      	LD   R16,Y+
000c6e 9119      	LD   R17,Y+
000c6f 940e 1eea 	CALL SUBOPT_0x28
000c71 9518      	RETI
                 ; .FEND
                 
                 	.DSEG
                 _0x9E:
000550           	.BYTE 0x5
                 ;
                 ;// Get a character from the USART1 Receiver buffer
                 ;#pragma used+
                 ;    char getchar1(void) {
                 
                 	.CSEG
                 ;        char data;
                 ;        while (rx_counter1==0);
                 ;	data -> R17
                 ;        data=rx_buffer1[rx_rd_index1++];
                 ;    #if RX_BUFFER_SIZE1 != 256
                 ;        if (rx_rd_index1 == RX_BUFFER_SIZE1) rx_rd_index1=0;
                 ;    #endif
                 ;    #asm("cli")
                 ;        --rx_counter1;
                 ;    #asm("sei")
                 ;        return data;
                 ;    }
                 ;#pragma used-
                 ;// USART1 Transmitter buffer
                 ;#define TX_BUFFER_SIZE1 64
                 ;char tx_buffer1[TX_BUFFER_SIZE1];
                 ;
                 ;#if TX_BUFFER_SIZE1 <= 256
                 ;unsigned char tx_wr_index1=0,tx_rd_index1=0;
                 ;#else
                 ;unsigned int tx_wr_index1=0,tx_rd_index1=0;
                 ;#endif
                 ;
                 ;#if TX_BUFFER_SIZE1 < 256
                 ;unsigned char tx_counter1=0;
                 ;#else
                 ;unsigned int tx_counter1=0;
                 ;#endif
                 ;
                 ;// USART1 Transmitter interrupt service routine
                 ;interrupt [USART1_TXC] void usart1_tx_isr(void) {
                 _usart1_tx_isr:
                 ; .FSTART _usart1_tx_isr
000c72 93aa      	ST   -Y,R26
000c73 93ea      	ST   -Y,R30
000c74 93fa      	ST   -Y,R31
000c75 b7ef      	IN   R30,SREG
000c76 93ea      	ST   -Y,R30
                 ;    if (tx_counter1) {
000c77 91e0 0e85 	LDS  R30,_tx_counter1
000c79 30e0      	CPI  R30,0
000c7a f0b1      	BREQ _0xA4
                 ;        --tx_counter1;
000c7b 50e1      	SUBI R30,LOW(1)
000c7c 93e0 0e85 	STS  _tx_counter1,R30
                 ;        UDR1=tx_buffer1[tx_rd_index1++];
000c7e 91e0 0e84 	LDS  R30,_tx_rd_index1
000c80 5fef      	SUBI R30,-LOW(1)
000c81 93e0 0e84 	STS  _tx_rd_index1,R30
000c83 50e1      	SUBI R30,LOW(1)
000c84 e0f0      	LDI  R31,0
000c85 5bed      	SUBI R30,LOW(-_tx_buffer1)
000c86 4ff1      	SBCI R31,HIGH(-_tx_buffer1)
000c87 81e0      	LD   R30,Z
000c88 93e0 009c 	STS  156,R30
                 ;#if TX_BUFFER_SIZE1 != 256
                 ;        if (tx_rd_index1 == TX_BUFFER_SIZE1) tx_rd_index1=0;
000c8a 91a0 0e84 	LDS  R26,_tx_rd_index1
000c8c 34a0      	CPI  R26,LOW(0x40)
000c8d f419      	BRNE _0xA5
000c8e e0e0      	LDI  R30,LOW(0)
000c8f 93e0 0e84 	STS  _tx_rd_index1,R30
                 ;#endif
                 ;    }
                 _0xA5:
                 ;}
                 _0xA4:
000c91 91e9      	LD   R30,Y+
000c92 bfef      	OUT  SREG,R30
000c93 91f9      	LD   R31,Y+
000c94 91e9      	LD   R30,Y+
000c95 91a9      	LD   R26,Y+
000c96 9518      	RETI
                 ; .FEND
                 ;
                 ;// Write a character to the USART1 Transmitter buffer
                 ;#pragma used+
                 ;void putchar1(char c) {
                 _putchar1:
                 ; .FSTART _putchar1
                 ;    while (tx_counter1 == TX_BUFFER_SIZE1);
000c97 93aa      	ST   -Y,R26
                 ;	c -> Y+0
                 _0xA6:
000c98 91a0 0e85 	LDS  R26,_tx_counter1
000c9a 34a0      	CPI  R26,LOW(0x40)
000c9b f3e1      	BREQ _0xA6
                 ;#asm("cli")
000c9c 94f8      	cli
                 ;    if (tx_counter1 || ((UCSR1A & DATA_REGISTER_EMPTY)==0)) {
000c9d 91e0 0e85 	LDS  R30,_tx_counter1
000c9f 30e0      	CPI  R30,0
000ca0 f421      	BRNE _0xAA
000ca1 91e0 009b 	LDS  R30,155
000ca3 72e0      	ANDI R30,LOW(0x20)
000ca4 f4c1      	BRNE _0xA9
                 _0xAA:
                 ;        tx_buffer1[tx_wr_index1++]=c;
000ca5 91e0 0e83 	LDS  R30,_tx_wr_index1
000ca7 5fef      	SUBI R30,-LOW(1)
000ca8 93e0 0e83 	STS  _tx_wr_index1,R30
000caa 50e1      	SUBI R30,LOW(1)
000cab e0f0      	LDI  R31,0
000cac 5bed      	SUBI R30,LOW(-_tx_buffer1)
000cad 4ff1      	SBCI R31,HIGH(-_tx_buffer1)
000cae 81a8      	LD   R26,Y
000caf 83a0      	STD  Z+0,R26
                 ;#if TX_BUFFER_SIZE1 != 256
                 ;        if (tx_wr_index1 == TX_BUFFER_SIZE1) tx_wr_index1=0;
000cb0 91a0 0e83 	LDS  R26,_tx_wr_index1
000cb2 34a0      	CPI  R26,LOW(0x40)
000cb3 f419      	BRNE _0xAC
000cb4 e0e0      	LDI  R30,LOW(0)
000cb5 93e0 0e83 	STS  _tx_wr_index1,R30
                 ;#endif
                 ;        ++tx_counter1;
                 _0xAC:
000cb7 91e0 0e85 	LDS  R30,_tx_counter1
000cb9 5fef      	SUBI R30,-LOW(1)
000cba 93e0 0e85 	STS  _tx_counter1,R30
                 ;    } else
000cbc c003      	RJMP _0xAD
                 _0xA9:
                 ;        UDR1=c;
000cbd 81e8      	LD   R30,Y
000cbe 93e0 009c 	STS  156,R30
                 ;#asm("sei")
                 _0xAD:
000cc0 9478      	sei
                 ;}
                 _0x2160018:
000cc1 9621      	ADIW R28,1
000cc2 9508      	RET
                 ; .FEND
                 ;#pragma used-
                 ;
                 ;void put_string(unsigned char *s) {
                 _put_string:
                 ; .FSTART _put_string
                 ;    while (*s) {
000cc3 93ba      	ST   -Y,R27
000cc4 93aa      	ST   -Y,R26
                 ;	*s -> Y+0
                 _0xAE:
000cc5 81a8      	LD   R26,Y
000cc6 81b9      	LDD  R27,Y+1
000cc7 91ec      	LD   R30,X
000cc8 30e0      	CPI  R30,0
000cc9 f061      	BREQ _0xB0
                 ;        putchar1(*s);
000cca 91ac      	LD   R26,X
000ccb dfcb      	RCALL _putchar1
                 ;        delay_ms(50);
000ccc e3a2      	LDI  R26,LOW(50)
000ccd e0b0      	LDI  R27,0
000cce 940e 219f 	CALL _delay_ms
                 ;        s++;
000cd0 81e8      	LD   R30,Y
000cd1 81f9      	LDD  R31,Y+1
000cd2 9631      	ADIW R30,1
000cd3 83e8      	ST   Y,R30
000cd4 83f9      	STD  Y+1,R31
                 ;    }
000cd5 cfef      	RJMP _0xAE
                 _0xB0:
                 ;}
000cd6 c1bd      	RJMP _0x2160013
                 ; .FEND
                 ;
                 ;void put_command(unsigned char *s, int time_out_ms, int max_retry) {
                 _put_command:
                 ; .FSTART _put_command
                 ;    char    command[50];
                 ;    int     i       =   0;
                 ;
                 ;    memset(command,'\0',50);
000cd7 93ba      	ST   -Y,R27
000cd8 93aa      	ST   -Y,R26
000cd9 97e2      	SBIW R28,50
000cda 940e 1def 	CALL SUBOPT_0x9
                 ;	*s -> Y+56
                 ;	time_out_ms -> Y+54
                 ;	max_retry -> Y+52
                 ;	command -> Y+2
                 ;	i -> R16,R17
000cdc 940e 1e42 	CALL SUBOPT_0x12
000cde e3a2      	LDI  R26,LOW(50)
000cdf e0b0      	LDI  R27,0
000ce0 940e 1c93 	CALL _memset
                 ;    while (*s) {
                 _0xB1:
000ce2 ada8      	LDD  R26,Y+56
000ce3 adb9      	LDD  R27,Y+56+1
000ce4 91ec      	LD   R30,X
000ce5 30e0      	CPI  R30,0
000ce6 f079      	BREQ _0xB3
                 ;        command[i] = *s;
000ce7 940e 1e49 	CALL SUBOPT_0x13
000ce9 ada8      	LDD  R26,Y+56
000cea adb9      	LDD  R27,Y+56+1
000ceb 91ec      	LD   R30,X
000cec 01d0      	MOVW R26,R0
000ced 93ec      	ST   X,R30
                 ;        s++;
000cee ade8      	LDD  R30,Y+56
000cef adf9      	LDD  R31,Y+56+1
000cf0 9631      	ADIW R30,1
000cf1 afe8      	STD  Y+56,R30
000cf2 aff9      	STD  Y+56+1,R31
                 ;        i++;
                +
000cf3 5f0f     +SUBI R16 , LOW ( - 1 )
000cf4 4f1f     +SBCI R17 , HIGH ( - 1 )
                 	__ADDWRN 16,17,1
                 ;    }
000cf5 cfec      	RJMP _0xB1
                 _0xB3:
                 ;    for (i = 0; i < max_retry; i++) {
                +
000cf6 e000     +LDI R16 , LOW ( 0 )
000cf7 e010     +LDI R17 , HIGH ( 0 )
                 	__GETWRN 16,17,0
                 _0xB5:
000cf8 a9ec      	LDD  R30,Y+52
000cf9 a9fd      	LDD  R31,Y+52+1
000cfa 170e      	CP   R16,R30
000cfb 071f      	CPC  R17,R31
000cfc f47c      	BRGE _0xB6
                 ;        put_string(command);
000cfd 01de      	MOVW R26,R28
000cfe 9612      	ADIW R26,2
000cff dfc3      	RCALL _put_string
                 ;        if (wait_until("OK", time_out_ms)) return; //neu khong tra ve "OK" thi lap lai
                +
000d00 e5e5     +LDI R30 , LOW ( _0xB8 + ( 0 ) )
000d01 e0f5     +LDI R31 , HIGH ( _0xB8 + ( 0 ) )
                 	__POINTW1MN _0xB8,0
000d02 93fa      	ST   -Y,R31
000d03 93ea      	ST   -Y,R30
000d04 ada8      	LDD  R26,Y+56
000d05 adb9      	LDD  R27,Y+56+1
000d06 d00a      	RCALL _wait_until
000d07 30e0      	CPI  R30,0
000d08 f421      	BRNE _0x2160017
                 ;    }
                +
000d09 5f0f     +SUBI R16 , LOW ( - 1 )
000d0a 4f1f     +SBCI R17 , HIGH ( - 1 )
                 	__ADDWRN 16,17,1
000d0b cfec      	RJMP _0xB5
                 _0xB6:
                 ;
                 ;    is_sim_init_ok = false;
000d0c 2477      	CLR  R7
                 ;    return;
                 _0x2160017:
000d0d 8119      	LDD  R17,Y+1
000d0e 8108      	LDD  R16,Y+0
000d0f 96ea      	ADIW R28,58
000d10 9508      	RET
                 ;}
                 ; .FEND
                 
                 	.DSEG
                 _0xB8:
000555           	.BYTE 0x3
                 ;
                 ;bool wait_until(unsigned char *s, int time_out_ms) {
                 
                 	.CSEG
                 _wait_until:
                 ; .FSTART _wait_until
                 ;    char keyword[20];
                 ;    int i               =   0,
                 ;        time_start_ms   =   milisec;
                 ;
                 ;    memset(keyword,'\0',20);
000d11 93ba      	ST   -Y,R27
000d12 93aa      	ST   -Y,R26
000d13 9764      	SBIW R28,20
000d14 940e 1e5c 	CALL SUBOPT_0x16
                 ;	*s -> Y+26
                 ;	time_out_ms -> Y+24
                 ;	keyword -> Y+4
                 ;	i -> R16,R17
                 ;	time_start_ms -> R18,R19
                +
000d16 9120 0bd2+LDS R18 , 0 + ( _milisec )
000d18 9130 0bd3+LDS R19 , 0 + ( _milisec ) + 1
                 	__GETWRMN 18,19,0,_milisec
000d1a 940e 1e94 	CALL SUBOPT_0x1E
000d1c e1a4      	LDI  R26,LOW(20)
000d1d e0b0      	LDI  R27,0
000d1e 940e 1c93 	CALL _memset
                 ;    while (*s) {
                 _0xB9:
000d20 8daa      	LDD  R26,Y+26
000d21 8dbb      	LDD  R27,Y+26+1
000d22 91ec      	LD   R30,X
000d23 30e0      	CPI  R30,0
000d24 f079      	BREQ _0xBB
                 ;        keyword[i] = *s;
000d25 940e 1e9b 	CALL SUBOPT_0x1F
000d27 8daa      	LDD  R26,Y+26
000d28 8dbb      	LDD  R27,Y+26+1
000d29 91ec      	LD   R30,X
000d2a 01d0      	MOVW R26,R0
000d2b 93ec      	ST   X,R30
                 ;        s++;
000d2c 8dea      	LDD  R30,Y+26
000d2d 8dfb      	LDD  R31,Y+26+1
000d2e 9631      	ADIW R30,1
000d2f 8fea      	STD  Y+26,R30
000d30 8ffb      	STD  Y+26+1,R31
                 ;        i++;
                +
000d31 5f0f     +SUBI R16 , LOW ( - 1 )
000d32 4f1f     +SBCI R17 , HIGH ( - 1 )
                 	__ADDWRN 16,17,1
                 ;    }
000d33 cfec      	RJMP _0xB9
                 _0xBB:
                 ;
                 ;    while (milisec - time_start_ms < time_out_ms) {
                 _0xBC:
000d34 01f9      	MOVW R30,R18
000d35 940e 1ef8 	CALL SUBOPT_0x29
000d37 940e 21c2 	CALL __CWD1
000d39 940e 21a9 	CALL __SUBD21
000d3b 8de8      	LDD  R30,Y+24
000d3c 8df9      	LDD  R31,Y+24+1
000d3d 940e 21c2 	CALL __CWD1
000d3f 940e 2270 	CALL __CPD21
000d41 f468      	BRSH _0xBE
                 ;        if (strstr(receive_buffer, keyword)) {
000d42 e0ec      	LDI  R30,LOW(_receive_buffer)
000d43 e0fc      	LDI  R31,HIGH(_receive_buffer)
000d44 93fa      	ST   -Y,R31
000d45 93ea      	ST   -Y,R30
000d46 01de      	MOVW R26,R28
000d47 9616      	ADIW R26,6
000d48 940e 1cc1 	CALL _strstr
000d4a 9730      	SBIW R30,0
000d4b f011      	BREQ _0xBF
                 ;            return true;
000d4c e0e1      	LDI  R30,LOW(1)
000d4d c002      	RJMP _0x2160016
                 ;        }
                 ;    }
                 _0xBF:
000d4e cfe5      	RJMP _0xBC
                 _0xBE:
                 ;
                 ;    return false;
000d4f e0e0      	LDI  R30,LOW(0)
                 _0x2160016:
000d50 940e 227e 	CALL __LOADLOCR4
000d52 966c      	ADIW R28,28
000d53 9508      	RET
                 ;}
                 ; .FEND
                 ;
                 ;bool read_command(unsigned char *s) {
                 _read_command:
                 ; .FSTART _read_command
                 ;    char command[4];
                 ;    int i               =   0;
                 ;    memset(command,'\0',4);
000d54 93ba      	ST   -Y,R27
000d55 93aa      	ST   -Y,R26
000d56 9724      	SBIW R28,4
000d57 940e 1def 	CALL SUBOPT_0x9
                 ;	*s -> Y+6
                 ;	command -> Y+2
                 ;	i -> R16,R17
000d59 940e 1e42 	CALL SUBOPT_0x12
000d5b e0a4      	LDI  R26,LOW(4)
000d5c e0b0      	LDI  R27,0
000d5d 940e 1c93 	CALL _memset
                 ;
                 ;    while (*s) {
                 _0xC0:
000d5f 81ae      	LDD  R26,Y+6
000d60 81bf      	LDD  R27,Y+6+1
000d61 91ec      	LD   R30,X
000d62 30e0      	CPI  R30,0
000d63 f049      	BREQ _0xC2
                 ;        command[i] = *s;
000d64 940e 1e49 	CALL SUBOPT_0x13
000d66 81ae      	LDD  R26,Y+6
000d67 81bf      	LDD  R27,Y+6+1
000d68 940e 1f01 	CALL SUBOPT_0x2A
                 ;        s++;
                 ;        i++;
                +
000d6a 5f0f     +SUBI R16 , LOW ( - 1 )
000d6b 4f1f     +SBCI R17 , HIGH ( - 1 )
                 	__ADDWRN 16,17,1
                 ;    }
000d6c cff2      	RJMP _0xC0
                 _0xC2:
                 ;
                 ;    for (i = 0; i < 4; i++) {
                +
000d6d e000     +LDI R16 , LOW ( 0 )
000d6e e010     +LDI R17 , HIGH ( 0 )
                 	__GETWRN 16,17,0
                 _0xC4:
                +
000d6f 3004     +CPI R16 , LOW ( 4 )
000d70 e0e0     +LDI R30 , HIGH ( 4 )
000d71 071e     +CPC R17 , R30
                 	__CPWRN 16,17,4
000d72 f4cc      	BRGE _0xC5
                 ;        if (command[3 - i] != receive_buffer[buffer_index - i]) return false;
000d73 e0e3      	LDI  R30,LOW(3)
000d74 e0f0      	LDI  R31,HIGH(3)
000d75 1be0      	SUB  R30,R16
000d76 0bf1      	SBC  R31,R17
000d77 01de      	MOVW R26,R28
000d78 9612      	ADIW R26,2
000d79 0fae      	ADD  R26,R30
000d7a 1fbf      	ADC  R27,R31
000d7b 91ac      	LD   R26,X
000d7c 91e0 0c0a 	LDS  R30,_buffer_index
000d7e 91f0 0c0b 	LDS  R31,_buffer_index+1
000d80 1be0      	SUB  R30,R16
000d81 0bf1      	SBC  R31,R17
000d82 5fe4      	SUBI R30,LOW(-_receive_buffer)
000d83 4ff3      	SBCI R31,HIGH(-_receive_buffer)
000d84 81e0      	LD   R30,Z
000d85 17ea      	CP   R30,R26
000d86 f011      	BREQ _0xC6
000d87 e0e0      	LDI  R30,LOW(0)
000d88 c004      	RJMP _0x2160015
                 ;    }
                 _0xC6:
                +
000d89 5f0f     +SUBI R16 , LOW ( - 1 )
000d8a 4f1f     +SBCI R17 , HIGH ( - 1 )
                 	__ADDWRN 16,17,1
000d8b cfe3      	RJMP _0xC4
                 _0xC5:
                 ;
                 ;    return true;
000d8c e0e1      	LDI  R30,LOW(1)
                 _0x2160015:
000d8d 8119      	LDD  R17,Y+1
000d8e 8108      	LDD  R16,Y+0
000d8f 9628      	ADIW R28,8
000d90 9508      	RET
                 ;}
                 ; .FEND
                 ;
                 ;
                 ;void clear_buffer() {
                 _clear_buffer:
                 ; .FSTART _clear_buffer
                 ;    memset(receive_buffer, '\0', BUFFER_SIZE);
000d91 e0ec      	LDI  R30,LOW(_receive_buffer)
000d92 e0fc      	LDI  R31,HIGH(_receive_buffer)
000d93 940e 1f0a 	CALL SUBOPT_0x2B
000d95 efa4      	LDI  R26,LOW(500)
000d96 e0b1      	LDI  R27,HIGH(500)
000d97 940e 1c93 	CALL _memset
                 ;    buffer_index = 0;
000d99 e0e0      	LDI  R30,LOW(0)
000d9a 93e0 0c0a 	STS  _buffer_index,R30
000d9c 93e0 0c0b 	STS  _buffer_index+1,R30
                 ;}
000d9e 9508      	RET
                 ; .FEND
                 ;
                 ;void init_gprs() {
                 _init_gprs:
                 ; .FSTART _init_gprs
                 ;    put_command("AT+CIPMODE=0\n\r", DEFAULT_TIME_OUT_MS, DEFAULT_MAX_RETRY);
                +
000d9f e5e8     +LDI R30 , LOW ( _0xC7 + ( 0 ) )
000da0 e0f5     +LDI R31 , HIGH ( _0xC7 + ( 0 ) )
                 	__POINTW1MN _0xC7,0
000da1 940e 1f0f 	CALL SUBOPT_0x2C
                 ;
                 ;    put_command("AT+CIPCSGP=1,\"internet\",\"\",\"\"\n\r", DEFAULT_TIME_OUT_MS, DEFAULT_MAX_RETRY);
                +
000da3 e6e7     +LDI R30 , LOW ( _0xC7 + ( 15 ) )
000da4 e0f5     +LDI R31 , HIGH ( _0xC7 + ( 15 ) )
                 	__POINTW1MN _0xC7,15
000da5 940e 1f0f 	CALL SUBOPT_0x2C
                 ;
                 ;    put_command("AT+CIPHEAD=0\n\r", DEFAULT_TIME_OUT_MS, DEFAULT_MAX_RETRY);
                +
000da7 e8e7     +LDI R30 , LOW ( _0xC7 + ( 47 ) )
000da8 e0f5     +LDI R31 , HIGH ( _0xC7 + ( 47 ) )
                 	__POINTW1MN _0xC7,47
000da9 940e 1f0f 	CALL SUBOPT_0x2C
                 ;
                 ;    put_command("AT+CIPSPRT=1\n\r", DEFAULT_TIME_OUT_MS, DEFAULT_MAX_RETRY);
                +
000dab e9e6     +LDI R30 , LOW ( _0xC7 + ( 62 ) )
000dac e0f5     +LDI R31 , HIGH ( _0xC7 + ( 62 ) )
                 	__POINTW1MN _0xC7,62
000dad 940e 1f0f 	CALL SUBOPT_0x2C
                 ;
                 ;    put_command("AT+CIPSRIP=0\n\r", DEFAULT_TIME_OUT_MS, DEFAULT_MAX_RETRY);
                +
000daf eae5     +LDI R30 , LOW ( _0xC7 + ( 77 ) )
000db0 e0f5     +LDI R31 , HIGH ( _0xC7 + ( 77 ) )
                 	__POINTW1MN _0xC7,77
000db1 940e 1f0f 	CALL SUBOPT_0x2C
                 ;
                 ;    put_command("AT+CIPSCONT\n\r", DEFAULT_TIME_OUT_MS, DEFAULT_MAX_RETRY);
                +
000db3 ebe4     +LDI R30 , LOW ( _0xC7 + ( 92 ) )
000db4 e0f5     +LDI R31 , HIGH ( _0xC7 + ( 92 ) )
                 	__POINTW1MN _0xC7,92
000db5 c016      	RJMP _0x2160014
                 ;}
                 ; .FEND
                 
                 	.DSEG
                 _0xC7:
000558           	.BYTE 0x6A
                 ;
                 ;void init_sms() {
                 
                 	.CSEG
                 _init_sms:
                 ; .FSTART _init_sms
                 ;    put_command("AT+CCALR?\n\r", DEFAULT_TIME_OUT_MS, DEFAULT_MAX_RETRY);
                +
000db6 ece2     +LDI R30 , LOW ( _0xC8 + ( 0 ) )
000db7 e0f5     +LDI R31 , HIGH ( _0xC8 + ( 0 ) )
                 	__POINTW1MN _0xC8,0
000db8 940e 1f0f 	CALL SUBOPT_0x2C
                 ;
                 ;    put_command("ATE0\n\r", DEFAULT_TIME_OUT_MS, DEFAULT_MAX_RETRY);
                +
000dba ecee     +LDI R30 , LOW ( _0xC8 + ( 12 ) )
000dbb e0f5     +LDI R31 , HIGH ( _0xC8 + ( 12 ) )
                 	__POINTW1MN _0xC8,12
000dbc 940e 1f0f 	CALL SUBOPT_0x2C
                 ;
                 ;    put_command("AT+CMGF=1\n\r", DEFAULT_TIME_OUT_MS, DEFAULT_MAX_RETRY);
                +
000dbe ede5     +LDI R30 , LOW ( _0xC8 + ( 19 ) )
000dbf e0f5     +LDI R31 , HIGH ( _0xC8 + ( 19 ) )
                 	__POINTW1MN _0xC8,19
000dc0 940e 1f0f 	CALL SUBOPT_0x2C
                 ;
                 ;    put_command("AT+CNMI=2,1,0,0,0\n\r", DEFAULT_TIME_OUT_MS, DEFAULT_MAX_RETRY);
                +
000dc2 eee1     +LDI R30 , LOW ( _0xC8 + ( 31 ) )
000dc3 e0f5     +LDI R31 , HIGH ( _0xC8 + ( 31 ) )
                 	__POINTW1MN _0xC8,31
000dc4 940e 1f0f 	CALL SUBOPT_0x2C
                 ;
                 ;    put_command("AT+CSAS\n\r", DEFAULT_TIME_OUT_MS, DEFAULT_MAX_RETRY);
                +
000dc6 efe5     +LDI R30 , LOW ( _0xC8 + ( 51 ) )
000dc7 e0f5     +LDI R31 , HIGH ( _0xC8 + ( 51 ) )
                 	__POINTW1MN _0xC8,51
000dc8 940e 1f0f 	CALL SUBOPT_0x2C
                 ;
                 ;    put_command("AT+CMGD=1\n\r", DEFAULT_TIME_OUT_MS, DEFAULT_MAX_RETRY);
                +
000dca efef     +LDI R30 , LOW ( _0xC8 + ( 61 ) )
000dcb e0f5     +LDI R31 , HIGH ( _0xC8 + ( 61 ) )
                 	__POINTW1MN _0xC8,61
                 _0x2160014:
000dcc 93fa      	ST   -Y,R31
000dcd 93ea      	ST   -Y,R30
000dce e3e2      	LDI  R30,LOW(50)
000dcf e0f0      	LDI  R31,HIGH(50)
000dd0 93fa      	ST   -Y,R31
000dd1 93ea      	ST   -Y,R30
000dd2 e0a5      	LDI  R26,LOW(5)
000dd3 e0b0      	LDI  R27,HIGH(5)
000dd4 df02      	RCALL _put_command
                 ;}
000dd5 9508      	RET
                 ; .FEND
                 
                 	.DSEG
                 _0xC8:
0005c2           	.BYTE 0x49
                 ;
                 ;
                 ;void sms_read() {
                 
                 	.CSEG
                 _sms_read:
                 ; .FSTART _sms_read
                 ;    int i = 0, j = 0, quote_count = 0;
                 ;    char    command[10],
                 ;            phone_number[13];
                 ;    const int QUOTES_BEFORE_PHONE_NUMBER = 3;
                 ;
                 ;    memset(command, '\0', 10);
000dd6 9769      	SBIW R28,25
000dd7 e0e3      	LDI  R30,LOW(3)
000dd8 83e8      	ST   Y,R30
000dd9 e0e0      	LDI  R30,LOW(0)
000dda 83e9      	STD  Y+1,R30
000ddb 940e 2275 	CALL __SAVELOCR6
                 ;	i -> R16,R17
                 ;	j -> R18,R19
                 ;	quote_count -> R20,R21
                 ;	command -> Y+21
                 ;	phone_number -> Y+8
                 ;	QUOTES_BEFORE_PHONE_NUMBER -> Y+6
                +
000ddd e000     +LDI R16 , LOW ( 0 )
000dde e010     +LDI R17 , HIGH ( 0 )
                 	__GETWRN 16,17,0
                +
000ddf e020     +LDI R18 , LOW ( 0 )
000de0 e030     +LDI R19 , HIGH ( 0 )
                 	__GETWRN 18,19,0
                +
000de1 e040     +LDI R20 , LOW ( 0 )
000de2 e050     +LDI R21 , HIGH ( 0 )
                 	__GETWRN 20,21,0
000de3 01fe      	MOVW R30,R28
000de4 9675      	ADIW R30,21
000de5 940e 1f0a 	CALL SUBOPT_0x2B
000de7 940e 1f19 	CALL SUBOPT_0x2D
                 ;
                 ;    clear_buffer();
000de9 dfa7      	RCALL _clear_buffer
                 ;
                 ;    is_show_clock = false;
000dea 2444      	CLR  R4
                 ;    glcd_setfont(font5x7);
000deb 940e 1de8 	CALL SUBOPT_0x8
                 ;    glcd_clear();
000ded 940e 176a 	CALL _glcd_clear
                 ;    glcd_outtextxy(0,0,"Got new SMS\n");
000def e0e0      	LDI  R30,LOW(0)
000df0 93ea      	ST   -Y,R30
000df1 93ea      	ST   -Y,R30
                +
000df2 e0ab     +LDI R26 , LOW ( _0xC9 + ( 0 ) )
000df3 e0b6     +LDI R27 , HIGH ( _0xC9 + ( 0 ) )
                 	__POINTW2MN _0xC9,0
000df4 940e 1aea 	CALL _glcd_outtextxy
                 ;
                 ;    put_command("AT+CMGR=1\n\r", DEFAULT_TIME_OUT_MS, DEFAULT_MAX_RETRY);
                +
000df6 e1e8     +LDI R30 , LOW ( _0xC9 + ( 13 ) )
000df7 e0f6     +LDI R31 , HIGH ( _0xC9 + ( 13 ) )
                 	__POINTW1MN _0xC9,13
000df8 940e 1f0f 	CALL SUBOPT_0x2C
                 ;
                 ;    put_command("AT+CMGD=1\n\r", DEFAULT_TIME_OUT_MS, DEFAULT_MAX_RETRY);
                +
000dfa e2e4     +LDI R30 , LOW ( _0xC9 + ( 25 ) )
000dfb e0f6     +LDI R31 , HIGH ( _0xC9 + ( 25 ) )
                 	__POINTW1MN _0xC9,25
000dfc 940e 1f0f 	CALL SUBOPT_0x2C
                 ;
                 ;    for (i = 0; receive_buffer[i] != '\0'; i++) {
                +
000dfe e000     +LDI R16 , LOW ( 0 )
000dff e010     +LDI R17 , HIGH ( 0 )
                 	__GETWRN 16,17,0
                 _0xCB:
000e00 940e 1f1d 	CALL SUBOPT_0x2E
000e02 91ec      	LD   R30,X
000e03 30e0      	CPI  R30,0
000e04 f409      	BRNE PC+2
000e05 c04d      	RJMP _0xCC
                 ;        if (receive_buffer[i] == '\"') {
000e06 940e 1f1d 	CALL SUBOPT_0x2E
000e08 91ac      	LD   R26,X
000e09 32a2      	CPI  R26,LOW(0x22)
000e0a f429      	BRNE _0xCD
                 ;            quote_count++;
                +
000e0b 5f4f     +SUBI R20 , LOW ( - 1 )
000e0c 4f5f     +SBCI R21 , HIGH ( - 1 )
                 	__ADDWRN 20,21,1
                 ;            j = 0;
                +
000e0d e020     +LDI R18 , LOW ( 0 )
000e0e e030     +LDI R19 , HIGH ( 0 )
                 	__GETWRN 18,19,0
                 ;            continue;
000e0f c040      	RJMP _0xCA
                 ;        }
                 ;        if (quote_count == QUOTES_BEFORE_PHONE_NUMBER) {
                 _0xCD:
000e10 e0e3      	LDI  R30,LOW(3)
000e11 e0f0      	LDI  R31,HIGH(3)
000e12 17e4      	CP   R30,R20
000e13 07f5      	CPC  R31,R21
000e14 f469      	BRNE _0xCE
                 ;            phone_number[j++] = receive_buffer[i];
000e15 01f9      	MOVW R30,R18
                +
000e16 5f2f     +SUBI R18 , LOW ( - 1 )
000e17 4f3f     +SBCI R19 , HIGH ( - 1 )
                 	__ADDWRN 18,19,1
000e18 01de      	MOVW R26,R28
000e19 9618      	ADIW R26,8
000e1a 0fea      	ADD  R30,R26
000e1b 1ffb      	ADC  R31,R27
000e1c 010f      	MOVW R0,R30
000e1d 940e 1f1d 	CALL SUBOPT_0x2E
000e1f 91ec      	LD   R30,X
000e20 01d0      	MOVW R26,R0
000e21 93ec      	ST   X,R30
                 ;        }
                 ;        if (receive_buffer[i] == '*') {
                 _0xCE:
000e22 940e 1f1d 	CALL SUBOPT_0x2E
000e24 91ac      	LD   R26,X
000e25 32aa      	CPI  R26,LOW(0x2A)
000e26 f549      	BRNE _0xCF
                 ;            j = 0;
                +
000e27 e020     +LDI R18 , LOW ( 0 )
000e28 e030     +LDI R19 , HIGH ( 0 )
                 	__GETWRN 18,19,0
                 ;            while(receive_buffer[i - 1] != '#') {
                 _0xD0:
000e29 01f8      	MOVW R30,R16
000e2a 9731      	SBIW R30,1
000e2b 5fe4      	SUBI R30,LOW(-_receive_buffer)
000e2c 4ff3      	SBCI R31,HIGH(-_receive_buffer)
000e2d 81a0      	LD   R26,Z
000e2e 32a3      	CPI  R26,LOW(0x23)
000e2f f0e1      	BREQ _0xD2
                 ;                command[j++] = receive_buffer[i++];
000e30 01f9      	MOVW R30,R18
                +
000e31 5f2f     +SUBI R18 , LOW ( - 1 )
000e32 4f3f     +SBCI R19 , HIGH ( - 1 )
                 	__ADDWRN 18,19,1
000e33 01de      	MOVW R26,R28
000e34 9655      	ADIW R26,21
000e35 0fae      	ADD  R26,R30
000e36 1fbf      	ADC  R27,R31
000e37 01f8      	MOVW R30,R16
                +
000e38 5f0f     +SUBI R16 , LOW ( - 1 )
000e39 4f1f     +SBCI R17 , HIGH ( - 1 )
                 	__ADDWRN 16,17,1
000e3a 5fe4      	SUBI R30,LOW(-_receive_buffer)
000e3b 4ff3      	SBCI R31,HIGH(-_receive_buffer)
000e3c 81e0      	LD   R30,Z
000e3d 93ec      	ST   X,R30
                 ;                if ((receive_buffer[i] == '\r') && (receive_buffer[i+1] == '\n')) break; //co ve dong nay bo di cung kho ...
000e3e 940e 1f1d 	CALL SUBOPT_0x2E
000e40 91ac      	LD   R26,X
000e41 30ad      	CPI  R26,LOW(0xD)
000e42 f431      	BRNE _0xD4
000e43 01f8      	MOVW R30,R16
                +
000e44 5fe3     +SUBI R30 , LOW ( - _receive_buffer - ( 1 ) )
000e45 4ff3     +SBCI R31 , HIGH ( - _receive_buffer - ( 1 ) )
                 	__ADDW1MN _receive_buffer,1
000e46 81a0      	LD   R26,Z
000e47 30aa      	CPI  R26,LOW(0xA)
000e48 f009      	BREQ _0xD5
                 _0xD4:
000e49 c001      	RJMP _0xD3
                 _0xD5:
000e4a c001      	RJMP _0xD2
                 ;            }
                 _0xD3:
000e4b cfdd      	RJMP _0xD0
                 _0xD2:
                 ;            decrypt(command);
000e4c 01de      	MOVW R26,R28
000e4d 9655      	ADIW R26,21
000e4e d047      	RCALL _decrypt
                 ;            break;
000e4f c003      	RJMP _0xCC
                 ;        }
                 ;    }
                 _0xCF:
                 _0xCA:
                +
000e50 5f0f     +SUBI R16 , LOW ( - 1 )
000e51 4f1f     +SBCI R17 , HIGH ( - 1 )
                 	__ADDWRN 16,17,1
000e52 cfad      	RJMP _0xCB
                 _0xCC:
                 ;
                 ;    glcd_outtextxy(0,10,command);
000e53 e0e0      	LDI  R30,LOW(0)
000e54 93ea      	ST   -Y,R30
000e55 e0ea      	LDI  R30,LOW(10)
000e56 93ea      	ST   -Y,R30
000e57 01de      	MOVW R26,R28
000e58 9657      	ADIW R26,23
000e59 940e 1aea 	CALL _glcd_outtextxy
                 ;    glcd_outtextxy(0,20,phone_number);
000e5b e0e0      	LDI  R30,LOW(0)
000e5c 93ea      	ST   -Y,R30
000e5d e1e4      	LDI  R30,LOW(20)
000e5e 93ea      	ST   -Y,R30
000e5f 01de      	MOVW R26,R28
000e60 961a      	ADIW R26,10
000e61 940e 1aea 	CALL _glcd_outtextxy
                 ;
                 ;    clear_buffer();
000e63 df2d      	RCALL _clear_buffer
                 ;    memset(command, '\0', 10);
000e64 01fe      	MOVW R30,R28
000e65 9675      	ADIW R30,21
000e66 940e 1f0a 	CALL SUBOPT_0x2B
000e68 940e 1f19 	CALL SUBOPT_0x2D
                 ;}
000e6a 940e 227c 	CALL __LOADLOCR6
000e6c 966f      	ADIW R28,31
000e6d 9508      	RET
                 ; .FEND
                 
                 	.DSEG
                 _0xC9:
00060b           	.BYTE 0x25
                 ;
                 ;
                 ;void sms_send(unsigned char *s) {
                 
                 	.CSEG
                 _sms_send:
                 ; .FSTART _sms_send
                 ;
                 ;    put_command("AT+CMGF=1\r\n", DEFAULT_TIME_OUT_MS, DEFAULT_MAX_RETRY);
000e6e 93ba      	ST   -Y,R27
000e6f 93aa      	ST   -Y,R26
                 ;	*s -> Y+0
                +
000e70 e3e0     +LDI R30 , LOW ( _0xD6 + ( 0 ) )
000e71 e0f6     +LDI R31 , HIGH ( _0xD6 + ( 0 ) )
                 	__POINTW1MN _0xD6,0
000e72 940e 1f0f 	CALL SUBOPT_0x2C
                 ;    wait_until("OK", 2000);
                +
000e74 e3ec     +LDI R30 , LOW ( _0xD6 + ( 12 ) )
000e75 e0f6     +LDI R31 , HIGH ( _0xD6 + ( 12 ) )
                 	__POINTW1MN _0xD6,12
000e76 93fa      	ST   -Y,R31
000e77 93ea      	ST   -Y,R30
000e78 eda0      	LDI  R26,LOW(2000)
000e79 e0b7      	LDI  R27,HIGH(2000)
000e7a de96      	RCALL _wait_until
                 ;
                 ;    put_string("AT+CMGS=\"+84983712941\"\r\n");
                +
000e7b e3af     +LDI R26 , LOW ( _0xD6 + ( 15 ) )
000e7c e0b6     +LDI R27 , HIGH ( _0xD6 + ( 15 ) )
                 	__POINTW2MN _0xD6,15
000e7d de45      	RCALL _put_string
                 ;    wait_until("> ", 5000);
                +
000e7e e5e8     +LDI R30 , LOW ( _0xD6 + ( 40 ) )
000e7f e0f6     +LDI R31 , HIGH ( _0xD6 + ( 40 ) )
                 	__POINTW1MN _0xD6,40
000e80 93fa      	ST   -Y,R31
000e81 93ea      	ST   -Y,R30
000e82 e8a8      	LDI  R26,LOW(5000)
000e83 e1b3      	LDI  R27,HIGH(5000)
000e84 de8c      	RCALL _wait_until
                 ;
                 ;    while (*s) {
                 _0xD7:
000e85 81a8      	LD   R26,Y
000e86 81b9      	LDD  R27,Y+1
000e87 91ec      	LD   R30,X
000e88 30e0      	CPI  R30,0
000e89 f041      	BREQ _0xD9
                 ;        putchar1(*s);
000e8a 91ac      	LD   R26,X
000e8b de0b      	RCALL _putchar1
                 ;        // delay_ms(50);
                 ;        s++;
000e8c 81e8      	LD   R30,Y
000e8d 81f9      	LDD  R31,Y+1
000e8e 9631      	ADIW R30,1
000e8f 83e8      	ST   Y,R30
000e90 83f9      	STD  Y+1,R31
                 ;    }
000e91 cff3      	RJMP _0xD7
                 _0xD9:
                 ;    putchar1(0x1A);
000e92 e1aa      	LDI  R26,LOW(26)
000e93 de03      	RCALL _putchar1
                 ;}
                 _0x2160013:
000e94 9622      	ADIW R28,2
000e95 9508      	RET
                 ; .FEND
                 
                 	.DSEG
                 _0xD6:
000630           	.BYTE 0x2B
                 ;void decrypt(unsigned char *s) {
                 
                 	.CSEG
                 _decrypt:
                 ; .FSTART _decrypt
                 ;    char message[160], command[10];
                 ;    int i = 0;
                 ;    memset(command, '\0', 10);
000e96 93ba      	ST   -Y,R27
000e97 93aa      	ST   -Y,R26
000e98 97ef      	SBIW R28,63
000e99 97ef      	SBIW R28,63
000e9a 97ac      	SBIW R28,44
000e9b 940e 1def 	CALL SUBOPT_0x9
                 ;	*s -> Y+172
                 ;	message -> Y+12
                 ;	command -> Y+2
                 ;	i -> R16,R17
000e9d 940e 1e42 	CALL SUBOPT_0x12
000e9f 940e 1f19 	CALL SUBOPT_0x2D
                 ;    memset(message, '\0', 160);
000ea1 01fe      	MOVW R30,R28
000ea2 963c      	ADIW R30,12
000ea3 940e 1f0a 	CALL SUBOPT_0x2B
000ea5 eaa0      	LDI  R26,LOW(160)
000ea6 e0b0      	LDI  R27,0
000ea7 940e 1c93 	CALL _memset
                 ;     while (*s) {
                 _0xDA:
000ea9 940e 1f22 	CALL SUBOPT_0x2F
000eab 30e0      	CPI  R30,0
000eac f091      	BREQ _0xDC
                 ;        command[i] = *s;
000ead 01f8      	MOVW R30,R16
000eae 01de      	MOVW R26,R28
000eaf 9612      	ADIW R26,2
000eb0 0fea      	ADD  R30,R26
000eb1 1ffb      	ADC  R31,R27
000eb2 01bf      	MOVW R22,R30
000eb3 940e 1f22 	CALL SUBOPT_0x2F
000eb5 01db      	MOVW R26,R22
000eb6 93ec      	ST   X,R30
                 ;        s++;
000eb7 01de      	MOVW R26,R28
000eb8 55a4      	SUBI R26,LOW(-(172))
000eb9 4fbf      	SBCI R27,HIGH(-(172))
000eba 940e 1ee4 	CALL SUBOPT_0x27
                 ;        i++;
                +
000ebc 5f0f     +SUBI R16 , LOW ( - 1 )
000ebd 4f1f     +SBCI R17 , HIGH ( - 1 )
                 	__ADDWRN 16,17,1
                 ;    }
000ebe cfea      	RJMP _0xDA
                 _0xDC:
                 ;    if (strstr(command, "on")) toggle_relay(ON, command);     //find string "on" in command and excute relay
000ebf 940e 1f2a 	CALL SUBOPT_0x30
                +
000ec1 e5ab     +LDI R26 , LOW ( _0xDE + ( 0 ) )
000ec2 e0b6     +LDI R27 , HIGH ( _0xDE + ( 0 ) )
                 	__POINTW2MN _0xDE,0
000ec3 940e 1cc1 	CALL _strstr
000ec5 9730      	SBIW R30,0
000ec6 f029      	BREQ _0xDD
000ec7 e0e0      	LDI  R30,LOW(0)
000ec8 93ea      	ST   -Y,R30
000ec9 01de      	MOVW R26,R28
000eca 9613      	ADIW R26,3
000ecb d07e      	RCALL _toggle_relay
                 ;    if (strstr(command, "off")) toggle_relay(OFF, command);
                 _0xDD:
000ecc 940e 1f2a 	CALL SUBOPT_0x30
                +
000ece e5ae     +LDI R26 , LOW ( _0xDE + ( 3 ) )
000ecf e0b6     +LDI R27 , HIGH ( _0xDE + ( 3 ) )
                 	__POINTW2MN _0xDE,3
000ed0 940e 1cc1 	CALL _strstr
000ed2 9730      	SBIW R30,0
000ed3 f029      	BREQ _0xDF
000ed4 e0e1      	LDI  R30,LOW(1)
000ed5 93ea      	ST   -Y,R30
000ed6 01de      	MOVW R26,R28
000ed7 9613      	ADIW R26,3
000ed8 d071      	RCALL _toggle_relay
                 ;    if (strstr(command, "info")) {
                 _0xDF:
000ed9 940e 1f2a 	CALL SUBOPT_0x30
                +
000edb e6a2     +LDI R26 , LOW ( _0xDE + ( 7 ) )
000edc e0b6     +LDI R27 , HIGH ( _0xDE + ( 7 ) )
                 	__POINTW2MN _0xDE,7
000edd 940e 1cc1 	CALL _strstr
000edf 9730      	SBIW R30,0
000ee0 f409      	BRNE PC+2
000ee1 c062      	RJMP _0xE0
                 ;        strcat(message, "1: ");
000ee2 940e 1f2f 	CALL SUBOPT_0x31
                +
000ee4 e6a7     +LDI R26 , LOW ( _0xDE + ( 12 ) )
000ee5 e0b6     +LDI R27 , HIGH ( _0xDE + ( 12 ) )
                 	__POINTW2MN _0xDE,12
000ee6 940e 1ca3 	CALL _strcat
                 ;        if (relay_1 == ON) {
000ee8 9994      	SBIC 0x12,4
000ee9 c005      	RJMP _0xE1
                 ;            strcat(message, "on");
000eea 940e 1f2f 	CALL SUBOPT_0x31
                +
000eec e6ab     +LDI R26 , LOW ( _0xDE + ( 16 ) )
000eed e0b6     +LDI R27 , HIGH ( _0xDE + ( 16 ) )
                 	__POINTW2MN _0xDE,16
000eee c004      	RJMP _0x2DD
                 ;        } else {
                 _0xE1:
                 ;            strcat(message, "off");
000eef 940e 1f2f 	CALL SUBOPT_0x31
                +
000ef1 e6ae     +LDI R26 , LOW ( _0xDE + ( 19 ) )
000ef2 e0b6     +LDI R27 , HIGH ( _0xDE + ( 19 ) )
                 	__POINTW2MN _0xDE,19
                 _0x2DD:
000ef3 940e 1ca3 	CALL _strcat
                 ;        }
                 ;         strcat(message, "\r2: ");
000ef5 940e 1f2f 	CALL SUBOPT_0x31
                +
000ef7 e7a2     +LDI R26 , LOW ( _0xDE + ( 23 ) )
000ef8 e0b6     +LDI R27 , HIGH ( _0xDE + ( 23 ) )
                 	__POINTW2MN _0xDE,23
000ef9 940e 1ca3 	CALL _strcat
                 ;        if (relay_2 == ON) {
000efb 9997      	SBIC 0x12,7
000efc c005      	RJMP _0xE3
                 ;            strcat(message, " on");
000efd 940e 1f2f 	CALL SUBOPT_0x31
                +
000eff e7a7     +LDI R26 , LOW ( _0xDE + ( 28 ) )
000f00 e0b6     +LDI R27 , HIGH ( _0xDE + ( 28 ) )
                 	__POINTW2MN _0xDE,28
000f01 c004      	RJMP _0x2DE
                 ;        } else {
                 _0xE3:
                 ;            strcat(message, " off");
000f02 940e 1f2f 	CALL SUBOPT_0x31
                +
000f04 e7ab     +LDI R26 , LOW ( _0xDE + ( 32 ) )
000f05 e0b6     +LDI R27 , HIGH ( _0xDE + ( 32 ) )
                 	__POINTW2MN _0xDE,32
                 _0x2DE:
000f06 940e 1ca3 	CALL _strcat
                 ;        }
                 ;        strcat(message, "\r3: ");
000f08 940e 1f2f 	CALL SUBOPT_0x31
                +
000f0a e8a0     +LDI R26 , LOW ( _0xDE + ( 37 ) )
000f0b e0b6     +LDI R27 , HIGH ( _0xDE + ( 37 ) )
                 	__POINTW2MN _0xDE,37
000f0c 940e 1ca3 	CALL _strcat
                 ;        if (relay_3 == ON) {
000f0e 99af      	SBIC 0x15,7
000f0f c005      	RJMP _0xE5
                 ;            strcat(message, " on");
000f10 940e 1f2f 	CALL SUBOPT_0x31
                +
000f12 e8a5     +LDI R26 , LOW ( _0xDE + ( 42 ) )
000f13 e0b6     +LDI R27 , HIGH ( _0xDE + ( 42 ) )
                 	__POINTW2MN _0xDE,42
000f14 c004      	RJMP _0x2DF
                 ;        } else {
                 _0xE5:
                 ;            strcat(message, " off");
000f15 940e 1f2f 	CALL SUBOPT_0x31
                +
000f17 e8a9     +LDI R26 , LOW ( _0xDE + ( 46 ) )
000f18 e0b6     +LDI R27 , HIGH ( _0xDE + ( 46 ) )
                 	__POINTW2MN _0xDE,46
                 _0x2DF:
000f19 940e 1ca3 	CALL _strcat
                 ;        }
                 ;        strcat(message, "\r4: ");
000f1b 940e 1f2f 	CALL SUBOPT_0x31
                +
000f1d e8ae     +LDI R26 , LOW ( _0xDE + ( 51 ) )
000f1e e0b6     +LDI R27 , HIGH ( _0xDE + ( 51 ) )
                 	__POINTW2MN _0xDE,51
000f1f 940e 1ca3 	CALL _strcat
                 ;        if (relay_4 == ON) {
000f21 99df      	SBIC 0x1B,7
000f22 c005      	RJMP _0xE7
                 ;            strcat(message, " on");
000f23 940e 1f2f 	CALL SUBOPT_0x31
                +
000f25 e9a3     +LDI R26 , LOW ( _0xDE + ( 56 ) )
000f26 e0b6     +LDI R27 , HIGH ( _0xDE + ( 56 ) )
                 	__POINTW2MN _0xDE,56
000f27 c004      	RJMP _0x2E0
                 ;        } else {
                 _0xE7:
                 ;            strcat(message, " off");
000f28 940e 1f2f 	CALL SUBOPT_0x31
                +
000f2a e9a7     +LDI R26 , LOW ( _0xDE + ( 60 ) )
000f2b e0b6     +LDI R27 , HIGH ( _0xDE + ( 60 ) )
                 	__POINTW2MN _0xDE,60
                 _0x2E0:
000f2c 940e 1ca3 	CALL _strcat
                 ;        }
                 ;        strcat(message, "\r5: ");
000f2e 940e 1f2f 	CALL SUBOPT_0x31
                +
000f30 e9ac     +LDI R26 , LOW ( _0xDE + ( 65 ) )
000f31 e0b6     +LDI R27 , HIGH ( _0xDE + ( 65 ) )
                 	__POINTW2MN _0xDE,65
000f32 940e 1ca3 	CALL _strcat
                 ;        if (relay_5 == ON) {
000f34 99da      	SBIC 0x1B,2
000f35 c005      	RJMP _0xE9
                 ;            strcat(message, " on");
000f36 940e 1f2f 	CALL SUBOPT_0x31
                +
000f38 eaa1     +LDI R26 , LOW ( _0xDE + ( 70 ) )
000f39 e0b6     +LDI R27 , HIGH ( _0xDE + ( 70 ) )
                 	__POINTW2MN _0xDE,70
000f3a c004      	RJMP _0x2E1
                 ;        } else {
                 _0xE9:
                 ;            strcat(message, " off");
000f3b 940e 1f2f 	CALL SUBOPT_0x31
                +
000f3d eaa5     +LDI R26 , LOW ( _0xDE + ( 74 ) )
000f3e e0b6     +LDI R27 , HIGH ( _0xDE + ( 74 ) )
                 	__POINTW2MN _0xDE,74
                 _0x2E1:
000f3f 940e 1ca3 	CALL _strcat
                 ;        }
                 ;         sms_send(message);
000f41 01de      	MOVW R26,R28
000f42 961c      	ADIW R26,12
000f43 df2a      	RCALL _sms_send
                 ;    }
                 ;}
                 _0xE0:
000f44 8119      	LDD  R17,Y+1
000f45 8108      	LDD  R16,Y+0
000f46 96ef      	ADIW R28,63
000f47 96ef      	ADIW R28,63
000f48 96e0      	ADIW R28,48
000f49 9508      	RET
                 ; .FEND
                 
                 	.DSEG
                 _0xDE:
00065b           	.BYTE 0x4F
                 ;
                 ;void toggle_relay (bool status, unsigned char *s) {
                 
                 	.CSEG
                 _toggle_relay:
                 ; .FSTART _toggle_relay
                 ;	int DEFAULT_ALARM_DURATION = 1;
                 ;    //vd:*1on#
                 ;    char command[10], duration_in_minute[4], relay_name;
                 ;    int alarm_time_m = DEFAULT_ALARM_DURATION;
                 ;    int i = 0, j = 0;
                 ;
                 ;    memset(command, '\0', 10);
000f4a 93ba      	ST   -Y,R27
000f4b 93aa      	ST   -Y,R26
000f4c 9762      	SBIW R28,18
000f4d e0e0      	LDI  R30,LOW(0)
000f4e 83e8      	ST   Y,R30
000f4f 83e9      	STD  Y+1,R30
000f50 83ea      	STD  Y+2,R30
000f51 83eb      	STD  Y+3,R30
000f52 940e 2275 	CALL __SAVELOCR6
                 ;	status -> Y+26
                 ;	*s -> Y+24
                 ;	DEFAULT_ALARM_DURATION -> R16,R17
                 ;	command -> Y+14
                 ;	duration_in_minute -> Y+10
                 ;	relay_name -> R19
                 ;	alarm_time_m -> R20,R21
                 ;	i -> Y+8
                 ;	j -> Y+6
                +
000f54 e001     +LDI R16 , LOW ( 1 )
000f55 e010     +LDI R17 , HIGH ( 1 )
                 	__GETWRN 16,17,1
000f56 01a8      	MOVW R20,R16
000f57 01fe      	MOVW R30,R28
000f58 963e      	ADIW R30,14
000f59 940e 1f0a 	CALL SUBOPT_0x2B
000f5b 940e 1f19 	CALL SUBOPT_0x2D
                 ;    memset(duration_in_minute, '\0', 10);
000f5d 01fe      	MOVW R30,R28
000f5e 963a      	ADIW R30,10
000f5f 940e 1f0a 	CALL SUBOPT_0x2B
000f61 940e 1f19 	CALL SUBOPT_0x2D
                 ;
                 ;    while (*s) {
                 _0xEB:
000f63 8da8      	LDD  R26,Y+24
000f64 8db9      	LDD  R27,Y+24+1
000f65 91ec      	LD   R30,X
000f66 30e0      	CPI  R30,0
000f67 f091      	BREQ _0xED
                 ;        command[i] = *s;
000f68 940e 1f34 	CALL SUBOPT_0x32
000f6a 0fea      	ADD  R30,R26
000f6b 1ffb      	ADC  R31,R27
000f6c 010f      	MOVW R0,R30
000f6d 8da8      	LDD  R26,Y+24
000f6e 8db9      	LDD  R27,Y+24+1
000f6f 91ec      	LD   R30,X
000f70 01d0      	MOVW R26,R0
000f71 93ec      	ST   X,R30
                 ;        s++;
000f72 8de8      	LDD  R30,Y+24
000f73 8df9      	LDD  R31,Y+24+1
000f74 9631      	ADIW R30,1
000f75 8fe8      	STD  Y+24,R30
000f76 8ff9      	STD  Y+24+1,R31
                 ;        i++;
000f77 940e 1f39 	CALL SUBOPT_0x33
                 ;    }
000f79 cfe9      	RJMP _0xEB
                 _0xED:
                 ;
                 ;    for (i = 1; command[i] != '#'; i++) {
000f7a e0e1      	LDI  R30,LOW(1)
000f7b e0f0      	LDI  R31,HIGH(1)
000f7c 87e8      	STD  Y+8,R30
000f7d 87f9      	STD  Y+8+1,R31
                 _0xEF:
000f7e 940e 1f34 	CALL SUBOPT_0x32
000f80 0fae      	ADD  R26,R30
000f81 1fbf      	ADC  R27,R31
000f82 91ac      	LD   R26,X
000f83 32a3      	CPI  R26,LOW(0x23)
000f84 f109      	BREQ _0xF0
                 ;        if ((command[i - 1] == 'n') || (command[i - 1] == 'f')) { //on hoac off
000f85 85e8      	LDD  R30,Y+8
000f86 85f9      	LDD  R31,Y+8+1
000f87 9731      	SBIW R30,1
000f88 01de      	MOVW R26,R28
000f89 961e      	ADIW R26,14
000f8a 0fae      	ADD  R26,R30
000f8b 1fbf      	ADC  R27,R31
000f8c 91ac      	LD   R26,X
000f8d 36ae      	CPI  R26,LOW(0x6E)
000f8e f039      	BREQ _0xF2
000f8f 01de      	MOVW R26,R28
000f90 961e      	ADIW R26,14
000f91 0fae      	ADD  R26,R30
000f92 1fbf      	ADC  R27,R31
000f93 91ac      	LD   R26,X
000f94 36a6      	CPI  R26,LOW(0x66)
000f95 f469      	BRNE _0xF1
                 _0xF2:
                 ;            duration_in_minute[j] = command[i];
000f96 81ee      	LDD  R30,Y+6
000f97 81ff      	LDD  R31,Y+6+1
000f98 01de      	MOVW R26,R28
000f99 961a      	ADIW R26,10
000f9a 0fea      	ADD  R30,R26
000f9b 1ffb      	ADC  R31,R27
000f9c 010f      	MOVW R0,R30
000f9d 940e 1f34 	CALL SUBOPT_0x32
000f9f 0fae      	ADD  R26,R30
000fa0 1fbf      	ADC  R27,R31
000fa1 940e 1f01 	CALL SUBOPT_0x2A
                 ;            j++;
                 ;        }
                 ;    }
                 _0xF1:
000fa3 940e 1f39 	CALL SUBOPT_0x33
000fa5 cfd8      	RJMP _0xEF
                 _0xF0:
                 ;
                 ;    //if (duration_in_minute[0]) alarm_time_m = atoi(duration_in_minute); //neu doc duoc cai dat gio thi doi, khong thi  ...
                 ;    alarm_time_m = atoi(duration_in_minute);
000fa6 01de      	MOVW R26,R28
000fa7 961a      	ADIW R26,10
000fa8 940e 1cd8 	CALL _atoi
000faa 01af      	MOVW R20,R30
                 ;    if (alarm_time_m == 0) alarm_time_m = DEFAULT_ALARM_DURATION; //neu khong co thi cho no bang mac dinh
000fab 2e04      	MOV  R0,R20
000fac 2a05      	OR   R0,R21
000fad f409      	BRNE _0xF4
000fae 01a8      	MOVW R20,R16
                 ;
                 ;    relay_name = command[1];
                 _0xF4:
000faf 853f      	LDD  R19,Y+15
                 ;
                 ;    switch (relay_name) {
000fb0 2fe3      	MOV  R30,R19
000fb1 e0f0      	LDI  R31,0
                 ;        case '1':
000fb2 33e1      	CPI  R30,LOW(0x31)
000fb3 e0a0      	LDI  R26,HIGH(0x31)
000fb4 07fa      	CPC  R31,R26
000fb5 f481      	BRNE _0xF8
                 ;            relay_1                 =   status;
000fb6 8dea      	LDD  R30,Y+26
000fb7 30e0      	CPI  R30,0
000fb8 f411      	BRNE _0xF9
000fb9 9894      	CBI  0x12,4
000fba c001      	RJMP _0xFA
                 _0xF9:
000fbb 9a94      	SBI  0x12,4
                 _0xFA:
                 ;            node[1].status          =   status;
                +
000fbc e2aa     +LDI R26 , LOW ( _node + ( 42 ) )
000fbd e0b0     +LDI R27 , HIGH ( _node + ( 42 ) )
                 	__POINTW2MN _node,42
000fbe 8dea      	LDD  R30,Y+26
000fbf 940e 2257 	CALL __EEPROMWRB
                 ;            node[1].alarm_time_s    =   alarm_time_m  * MIN_TO_SEC;
                +
000fc1 e562     +LDI R22 , LOW ( _node + ( 82 ) )
000fc2 e070     +LDI R23 , HIGH ( _node + ( 82 ) )
                 	__POINTWRMN 22,23,_node,82
000fc3 940e 1f3f 	CALL SUBOPT_0x34
                 ;        break;
000fc5 c06a      	RJMP _0xF7
                 ;
                 ;        case '2':
                 _0xF8:
000fc6 33e2      	CPI  R30,LOW(0x32)
000fc7 e0a0      	LDI  R26,HIGH(0x32)
000fc8 07fa      	CPC  R31,R26
000fc9 f481      	BRNE _0xFB
                 ;            relay_2                 =   status;
000fca 8dea      	LDD  R30,Y+26
000fcb 30e0      	CPI  R30,0
000fcc f411      	BRNE _0xFC
000fcd 9897      	CBI  0x12,7
000fce c001      	RJMP _0xFD
                 _0xFC:
000fcf 9a97      	SBI  0x12,7
                 _0xFD:
                 ;            node[2].status          =   status;
                +
000fd0 e5a4     +LDI R26 , LOW ( _node + ( 84 ) )
000fd1 e0b0     +LDI R27 , HIGH ( _node + ( 84 ) )
                 	__POINTW2MN _node,84
000fd2 8dea      	LDD  R30,Y+26
000fd3 940e 2257 	CALL __EEPROMWRB
                 ;            node[2].alarm_time_s    =   alarm_time_m * MIN_TO_SEC;
                +
000fd5 e76c     +LDI R22 , LOW ( _node + ( 124 ) )
000fd6 e070     +LDI R23 , HIGH ( _node + ( 124 ) )
                 	__POINTWRMN 22,23,_node,124
000fd7 940e 1f3f 	CALL SUBOPT_0x34
                 ;        break;
000fd9 c056      	RJMP _0xF7
                 ;
                 ;        case '3':
                 _0xFB:
000fda 33e3      	CPI  R30,LOW(0x33)
000fdb e0a0      	LDI  R26,HIGH(0x33)
000fdc 07fa      	CPC  R31,R26
000fdd f481      	BRNE _0xFE
                 ;            relay_3                 =   status;
000fde 8dea      	LDD  R30,Y+26
000fdf 30e0      	CPI  R30,0
000fe0 f411      	BRNE _0xFF
000fe1 98af      	CBI  0x15,7
000fe2 c001      	RJMP _0x100
                 _0xFF:
000fe3 9aaf      	SBI  0x15,7
                 _0x100:
                 ;            node[3].status          =   status;
                +
000fe4 e7ae     +LDI R26 , LOW ( _node + ( 126 ) )
000fe5 e0b0     +LDI R27 , HIGH ( _node + ( 126 ) )
                 	__POINTW2MN _node,126
000fe6 8dea      	LDD  R30,Y+26
000fe7 940e 2257 	CALL __EEPROMWRB
                 ;            node[3].alarm_time_s    =   alarm_time_m * MIN_TO_SEC;
                +
000fe9 ea66     +LDI R22 , LOW ( _node + ( 166 ) )
000fea e070     +LDI R23 , HIGH ( _node + ( 166 ) )
                 	__POINTWRMN 22,23,_node,166
000feb 940e 1f3f 	CALL SUBOPT_0x34
                 ;        break;
000fed c042      	RJMP _0xF7
                 ;
                 ;        case '4':
                 _0xFE:
000fee 33e4      	CPI  R30,LOW(0x34)
000fef e0a0      	LDI  R26,HIGH(0x34)
000ff0 07fa      	CPC  R31,R26
000ff1 f481      	BRNE _0x104
                 ;            relay_4                 =   status;
000ff2 8dea      	LDD  R30,Y+26
000ff3 30e0      	CPI  R30,0
000ff4 f411      	BRNE _0x102
000ff5 98df      	CBI  0x1B,7
000ff6 c001      	RJMP _0x103
                 _0x102:
000ff7 9adf      	SBI  0x1B,7
                 _0x103:
                 ;            node[4].status          =   status;
                +
000ff8 eaa8     +LDI R26 , LOW ( _node + ( 168 ) )
000ff9 e0b0     +LDI R27 , HIGH ( _node + ( 168 ) )
                 	__POINTW2MN _node,168
000ffa 8dea      	LDD  R30,Y+26
000ffb 940e 2257 	CALL __EEPROMWRB
                 ;            node[4].alarm_time_s    =   alarm_time_m * MIN_TO_SEC;
                +
000ffd ed60     +LDI R22 , LOW ( _node + ( 208 ) )
000ffe e070     +LDI R23 , HIGH ( _node + ( 208 ) )
                 	__POINTWRMN 22,23,_node,208
000fff 940e 1f3f 	CALL SUBOPT_0x34
                 ;        break;
001001 c02e      	RJMP _0xF7
                 ;
                 ;        default:
                 _0x104:
                 ;            relay_1                 =   status;
001002 8dea      	LDD  R30,Y+26
001003 30e0      	CPI  R30,0
001004 f411      	BRNE _0x105
001005 9894      	CBI  0x12,4
001006 c001      	RJMP _0x106
                 _0x105:
001007 9a94      	SBI  0x12,4
                 _0x106:
                 ;            relay_2                 =   status;
001008 8dea      	LDD  R30,Y+26
001009 30e0      	CPI  R30,0
00100a f411      	BRNE _0x107
00100b 9897      	CBI  0x12,7
00100c c001      	RJMP _0x108
                 _0x107:
00100d 9a97      	SBI  0x12,7
                 _0x108:
                 ;            relay_3                 =   status;
00100e 8dea      	LDD  R30,Y+26
00100f 30e0      	CPI  R30,0
001010 f411      	BRNE _0x109
001011 98af      	CBI  0x15,7
001012 c001      	RJMP _0x10A
                 _0x109:
001013 9aaf      	SBI  0x15,7
                 _0x10A:
                 ;            relay_4                 =   status;
001014 8dea      	LDD  R30,Y+26
001015 30e0      	CPI  R30,0
001016 f411      	BRNE _0x10B
001017 98df      	CBI  0x1B,7
001018 c001      	RJMP _0x10C
                 _0x10B:
001019 9adf      	SBI  0x1B,7
                 _0x10C:
                 ;            for (i = 1; i < 5; i++)
00101a e0e1      	LDI  R30,LOW(1)
00101b e0f0      	LDI  R31,HIGH(1)
00101c 87e8      	STD  Y+8,R30
00101d 87f9      	STD  Y+8+1,R31
                 _0x10E:
00101e 85a8      	LDD  R26,Y+8
00101f 85b9      	LDD  R27,Y+8+1
001020 9715      	SBIW R26,5
001021 f474      	BRGE _0x10F
                 ;                node[i].status      =   status;
001022 85a8      	LDD  R26,Y+8
001023 85b9      	LDD  R27,Y+8+1
001024 e2ea      	LDI  R30,LOW(42)
001025 940e 21d9 	CALL __MULB1W2U
001027 50e0      	SUBI R30,LOW(-_node)
001028 40f0      	SBCI R31,HIGH(-_node)
001029 01df      	MOVW R26,R30
00102a 8dea      	LDD  R30,Y+26
00102b 940e 2257 	CALL __EEPROMWRB
00102d 940e 1f39 	CALL SUBOPT_0x33
00102f cfee      	RJMP _0x10E
                 _0x10F:
                 ;    }
                 _0xF7:
                 ;}
001030 940e 227c 	CALL __LOADLOCR6
001032 966b      	ADIW R28,27
001033 9508      	RET
                 ; .FEND
                 ;/*
                 ;void sms_send(unsigned char *s) {
                 ;    put_command("AT+CMGF=1\r\n", DEFAULT_TIME_OUT_MS, DEFAULT_MAX_RETRY);
                 ;    wait_until("OK", 2000);
                 ;    put_string("AT+CMGS=");
                 ;    putchar1(34);
                 ;    put_string(phone_number);
                 ;    putchar1(34);
                 ;    put_string("\r\n");
                 ;    wait_until("> ", 5000);
                 ;    while (*s) {
                 ;        putchar1(*s);
                 ;        s++;
                 ;    }
                 ;    putchar1(0x1A);
                 ;}
                 ;*/
                 ;
                 ;void gprs_read() {
                 ;    int i = 0, j = 0;
                 ;    char command[10];
                 ;    memset(command, '\0', 10);
                 ;	i -> R16,R17
                 ;	j -> R18,R19
                 ;	command -> Y+4
                 ;    clear_buffer();
                 ;    put_string("AT+CIPSTART=\"TCP\",\"api.thingspeak.com\",80\r");
                 ;    wait_until("CONNECT OK", 20000);
                 ;    put_string("AT+CIPSEND\r");
                 ;    wait_until("> ", 4000);
                 ;    put_string("GET /channels/329406/fields/1.json?api_key=HRAVJJT0LQYBSJNA&results=1 HTTP/1.1\r\n");
                 ;    delay_ms(100);
                 ;    put_string("HOST: www.api.thingspeak.com\r\n");
                 ;    delay_ms(100);
                 ;    put_string("Connection: close\r\n\r\n");
                 ;    clear_buffer();
                 ;    putchar1(0x1A);
                 ;    wait_until("OK", 10000);
                 ;    delay_ms(5000);
                 ;    for (i = 0; receive_buffer[i] != '\0'; i++) {
                 ;        if (receive_buffer[i] == '*') {
                 ;            for (j = 0; receive_buffer[i] != '"'; j++, i++) {
                 ;                command[j] = receive_buffer[i];
                 ;            }
                 ;        }
                 ;    }
                 ;    strcat(command, "#");
                 ;    // glcd_outtext(command);
                 ;    decrypt(command);
                 ;    put_command("AT+CIPSHUT\r\n",DEFAULT_TIME_OUT_MS,DEFAULT_MAX_RETRY);
                 ;}
                 
                 	.DSEG
                 _0x110:
0006aa           	.BYTE 0xDD
                 ;
                 ;/*
                 ;void gprs_send() {
                 ;    put_string("AT+CIPSTART=\"TCP\",\"api.thingspeak.com\",80\r");
                 ;    wait_until("CONNECT OK", 20000);
                 ;    put_string("AT+CIPSEND\r");
                 ;    wait_until("> ", 4000);
                 ;    put_string("GET /update?api_key=7R6NSYFHBFRUAR6K&field2=14 HTTP/1.1\r\n");
                 ;    put_string("HOST: www.api.thingspeak.com\r\n");
                 ;    delay_ms(100);
                 ;    put_string("Connection: close\r\n\r\n");
                 ;    putchar1(0x1A);
                 ;    wait_until("OK", 10000);
                 ;    put_command("AT+CIPSHUT\r\n",DEFAULT_TIME_OUT_MS,DEFAULT_MAX_RETRY);
                 ;}
                 ;
                 ; */
                 ;
                 ;
                 ;
                 ;void gprs_send() {
                 
                 	.CSEG
                 ;    int node_name=3;
                 ;    char temp[]="15", humi[]="45", sm[]="45", l[]="78";
                 ;    put_string("AT+CIPSTART=\"TCP\",\"api.thingspeak.com\",80\r");
                 ;	node_name -> R16,R17
                 ;	temp -> Y+11
                 ;	humi -> Y+8
                 ;	sm -> Y+5
                 ;	l -> Y+2
                 ;    wait_until("CONNECT OK", 20000);
                 ;    put_string("AT+CIPSEND\r");
                 ;    wait_until("> ", 4000);
                 ;    put_string("GET /update?key=");
                 ;    switch (node_name) {
                 ;                case 1:
                 ;                   put_string("7R6NSYFHBFRUAR6K");
                 ;                break;
                 ;
                 ;                case 2:
                 ;                    put_string("5I000WROXOFS0V85");
                 ;                break;
                 ;
                 ;                case 3:
                 ;                   put_string("6NHFXH076SC02DZ0");
                 ;                break;
                 ;
                 ;                case 4:
                 ;                    put_string("WUIT8LX7N92X8J4W");
                 ;                break;
                 ;            }
                 ;    put_string("&field1=");
                 ;    //itoa(station_receive.humi, temp);
                 ;	put_string(temp);
                 ;   put_string("&field2=");
                 ;	put_string(humi);
                 ;    put_string( "&field3=");
                 ;	put_string(sm);
                 ;   put_string( "&field4=");
                 ;	put_string(l);
                 ;	put_string( "HTTP/1.1\r\n");
                 ;
                 ;
                 ;	put_string("HOST: www.api.thingspeak.com\r\n");
                 ;    delay_ms(100);
                 ;    put_string("Connection: close\r\n\r\n");
                 ;    putchar1(0x1A);
                 ;    wait_until("OK", 10000);
                 ;  //   put_command("AT+CIPSHUT\r\n",DEFAULT_TIME_OUT_MS,DEFAULT_MAX_RETRY);
                 ;}
                 
                 	.DSEG
                 _0x119:
000787           	.BYTE 0x101
                 ;void call(){
                 
                 	.CSEG
                 _call:
                 ; .FSTART _call
                 ;    put_string("ATD+84983712941;\r\n");
                +
001034 e8a8     +LDI R26 , LOW ( _0x121 + ( 0 ) )
001035 e0b8     +LDI R27 , HIGH ( _0x121 + ( 0 ) )
                 	__POINTW2MN _0x121,0
001036 dc8c      	RCALL _put_string
                 ;}
001037 9508      	RET
                 ; .FEND
                 
                 	.DSEG
                 _0x121:
000888           	.BYTE 0x13
                 ;void get_money_request(){
                 
                 	.CSEG
                 ;    is_get_money = true;
                 ;    glcd_clear();
                 ;    glcd_outtext("start get money\n");
                 ;    put_string("AT+CUSD=1,");
                 ;    putchar1('"');
                 ;    put_string("*101#");
                 ;    putchar1('"');
                 ;    put_string("\r\n");
                 ;    if(sim == 0)
                 ;        get_money_response_vietnammobile();
                 ;    else if(sim == 1)
                 ;        get_money_response_viettel();
                 ;}
                 
                 	.DSEG
                 _0x122:
00089b           	.BYTE 0x25
                 ;
                 ;void get_money_response_vietnammobile(){
                 
                 	.CSEG
                 ;    bool is_money = true;
                 ;    unsigned char buff_money;
                 ;    int count=0, j=0;
                 ;    glcd_clear();
                 ;	is_money -> R17
                 ;	buff_money -> R16
                 ;	count -> R18,R19
                 ;	j -> R20,R21
                 ;    glcd_outtext("get money response");
                 ;    while(is_money){
                 ;        buff_money = getchar1();
                 ;        if(buff_money == ':'){
                 ;            count++;
                 ;        }
                 ;        if(count == 2){
                 ;            money[j] = buff_money;
                 ;            j++;
                 ;        }
                 ;        if(count == 2 && buff_money == 'd')
                 ;            is_money = false;
                 ;    }
                 ;    sms_send(money);
                 ;    delay_ms(2000);
                 ;    is_get_money = false;
                 ;}
                 
                 	.DSEG
                 _0x126:
0008c0           	.BYTE 0x13
                 ;
                 ;void get_money_response_viettel(){
                 
                 	.CSEG
                 ;    bool is_money = true;
                 ;    unsigned char buff_money;
                 ;    int count=0, j=0;
                 ;    glcd_clear();
                 ;	is_money -> R17
                 ;	buff_money -> R16
                 ;	count -> R18,R19
                 ;	j -> R20,R21
                 ;    glcd_outtext("get money response");
                 ;    while(is_money){
                 ;        buff_money = getchar1();
                 ;        if(buff_money == '"'){
                 ;            count++;
                 ;        }
                 ;        if(count == 1 && buff_money > 45 && buff_money < 58){
                 ;            money[j] = buff_money;
                 ;            j++;
                 ;        }
                 ;        if(count == 1 && buff_money == 'd')
                 ;            is_money = false;
                 ;    }
                 ;    /*glcd_clear();
                 ;    glcd_outtext("money: ");
                 ;    glcd_outtext(money);*/
                 ;    sms_send(money);
                 ;    delay_ms(2000);
                 ;    is_get_money = false;
                 ;}
                 
                 	.DSEG
                 _0x12F:
0008d3           	.BYTE 0x13
                 ;
                 ;void put_money(){
                 
                 	.CSEG
                 ;    glcd_clear();
                 ;    glcd_outtext("put money on phone\n");
                 ;    glcd_outtext(money_code);
                 ;    put_string("AT+CUSD=1,");
                 ;    putchar1('"');
                 ;    put_string("*100*");
                 ;    put_string(money_code);
                 ;    putchar1('#');
                 ;    putchar1('"');
                 ;    put_string("\r\n");
                 ;    delay_ms(4000);
                 ;    get_money_request();
                 ;}
                 
                 	.DSEG
                 _0x13A:
0008e6           	.BYTE 0x28
                 ;
                 ;
                 ;#include <relay_setting.c>
                 ;void gui_choose_relay           ();	//setup for relay timer
                 ;void gui_relay_setting          (int node_name);
                 ;
                 ;void exe_relay                  (int command, int node_name);
                 ;
                 ;void choose_multiple_hour       (int node_name);
                 ;void choose_multiple_week_day   (int node_name);
                 ;
                 ;void gui_choose_relay() {
                 ; 0000 0021 void gui_choose_relay() {
                 
                 	.CSEG
                 _gui_choose_relay:
                 ; .FSTART _gui_choose_relay
                 ;    int i;
                 ;
                 ;    while (1) {
001038 931a      	ST   -Y,R17
001039 930a      	ST   -Y,R16
                 ;	i -> R16,R17
                 _0x13B:
                 ;        i = 1;
00103a 940e 1f48 	CALL SUBOPT_0x35
                 ;        clrscr();
                 ;        gui_set_title("SET NODE");
                +
00103c e0ae     +LDI R26 , LOW ( _0x13E + ( 0 ) )
00103d e0b9     +LDI R27 , HIGH ( _0x13E + ( 0 ) )
                 	__POINTW2MN _0x13E,0
00103e 940e 1f4c 	CALL SUBOPT_0x36
                 ;        glcd_setfont(relay_icon_10x14);
                 ;        glcd_putcharxy(5, 22, node[1].status);
001040 940e 1f51 	CALL SUBOPT_0x37
                +
001042 e2aa     +LDI R26 , LOW ( _node + ( 42 ) )
001043 e0b0     +LDI R27 , HIGH ( _node + ( 42 ) )
                 	__POINTW2MN _node,42
001044 940e 1f56 	CALL SUBOPT_0x38
                 ;        glcd_setfont(big_letter_10x14);
                 ;        glcd_outtextxyf(25,22, name_relay[i]);
001046 940e 1f5c 	CALL SUBOPT_0x39
                 ;       // glcd_outtext("@ "); //dau mui ten xuong
                 ;        glcd_setfont(font5x7);
001048 940e 1de8 	CALL SUBOPT_0x8
                 ;        glcd_putcharxy(x - 7,y,' '); //xoa dau >
00104a 940e 1ea2 	CALL SUBOPT_0x20
                 ;        while(1) {
                 _0x13F:
                 ;            if (btn_enter) {
00104c 99cb      	SBIC 0x19,3
00104d c031      	RJMP _0x142
                 ;                while (btn_enter);
                 _0x143:
00104e 9bcb      	SBIS 0x19,3
00104f cffe      	RJMP _0x143
                 ;                if (i == 6) { //ALL
001050 e0e6      	LDI  R30,LOW(6)
001051 e0f0      	LDI  R31,HIGH(6)
001052 17e0      	CP   R30,R16
001053 07f1      	CPC  R31,R17
001054 f539      	BRNE _0x146
                 ;                    relay_1 = !relay_1;
001055 9b94      	SBIS 0x12,4
001056 c002      	RJMP _0x147
001057 9894      	CBI  0x12,4
001058 c001      	RJMP _0x148
                 _0x147:
001059 9a94      	SBI  0x12,4
                 _0x148:
                 ;                    relay_2 = !relay_2;
00105a 9b97      	SBIS 0x12,7
00105b c002      	RJMP _0x149
00105c 9897      	CBI  0x12,7
00105d c001      	RJMP _0x14A
                 _0x149:
00105e 9a97      	SBI  0x12,7
                 _0x14A:
                 ;                    relay_3 = !relay_3;
00105f 9baf      	SBIS 0x15,7
001060 c002      	RJMP _0x14B
001061 98af      	CBI  0x15,7
001062 c001      	RJMP _0x14C
                 _0x14B:
001063 9aaf      	SBI  0x15,7
                 _0x14C:
                 ;                    relay_4 = !relay_4;
001064 9bdf      	SBIS 0x1B,7
001065 c002      	RJMP _0x14D
001066 98df      	CBI  0x1B,7
001067 c001      	RJMP _0x14E
                 _0x14D:
001068 9adf      	SBI  0x1B,7
                 _0x14E:
                 ;                    relay_5 = !relay_5;
001069 9bda      	SBIS 0x1B,2
00106a c002      	RJMP _0x14F
00106b 98da      	CBI  0x1B,2
00106c c001      	RJMP _0x150
                 _0x14F:
00106d 9ada      	SBI  0x1B,2
                 _0x150:
                 ;                    for (i = 1; i <= 5; i++) {
                +
00106e e001     +LDI R16 , LOW ( 1 )
00106f e010     +LDI R17 , HIGH ( 1 )
                 	__GETWRN 16,17,1
                 _0x152:
                +
001070 3006     +CPI R16 , LOW ( 6 )
001071 e0e0     +LDI R30 , HIGH ( 6 )
001072 071e     +CPC R17 , R30
                 	__CPWRN 16,17,6
001073 f43c      	BRGE _0x153
                 ;                        node[i].status = !node[i].status;
001074 940e 1f6c 	CALL SUBOPT_0x3A
001076 940e 1f74 	CALL SUBOPT_0x3B
                 ;                    }
                +
001078 5f0f     +SUBI R16 , LOW ( - 1 )
001079 4f1f     +SBCI R17 , HIGH ( - 1 )
                 	__ADDWRN 16,17,1
00107a cff5      	RJMP _0x152
                 _0x153:
                 ;                } else {
00107b c002      	RJMP _0x154
                 _0x146:
                 ;                    gui_relay_setting(i);
00107c 01d8      	MOVW R26,R16
00107d d025      	RCALL _gui_relay_setting
                 ;                }
                 _0x154:
                 ;
                 ;                break; //break khoi vong while trong thi no se chay lai vong while ngoai tu dau, khong phai init lai gui
00107e c023      	RJMP _0x141
                 ;            }
                 ;            if (btn_back) {
                 _0x142:
00107f 99cc      	SBIC 0x19,4
001080 c01b      	RJMP _0x155
                 ;                while (btn_back);
                 _0x156:
001081 9bcc      	SBIS 0x19,4
001082 cffe      	RJMP _0x156
                 ;                if (i == 6) {
001083 e0e6      	LDI  R30,LOW(6)
001084 e0f0      	LDI  R31,HIGH(6)
001085 17e0      	CP   R30,R16
001086 07f1      	CPC  R31,R17
001087 f419      	BRNE _0x159
                 ;                    i = 1;
                +
001088 e001     +LDI R16 , LOW ( 1 )
001089 e010     +LDI R17 , HIGH ( 1 )
                 	__GETWRN 16,17,1
                 ;                } else {
00108a c002      	RJMP _0x15A
                 _0x159:
                 ;                    i++;
                +
00108b 5f0f     +SUBI R16 , LOW ( - 1 )
00108c 4f1f     +SBCI R17 , HIGH ( - 1 )
                 	__ADDWRN 16,17,1
                 ;                }
                 _0x15A:
                 ;
                 ;                glcd_setfont(relay_icon_10x14);
00108d 940e 1f7e 	CALL SUBOPT_0x3C
                 ;
                 ;                    glcd_putcharxy(5, 22, node[i].status);
00108f 940e 1f51 	CALL SUBOPT_0x37
001091 940e 1f6c 	CALL SUBOPT_0x3A
001093 01df      	MOVW R26,R30
001094 940e 1f56 	CALL SUBOPT_0x38
                 ;
                 ;                glcd_setfont(big_letter_10x14);
                 ;
                 ;                    glcd_outtextxyf(25,22,name_relay[i]);
001096 940e 1f5c 	CALL SUBOPT_0x39
                 ;                    glcd_outtext("@"); //dau mui ten xuong
                +
001098 e1a7     +LDI R26 , LOW ( _0x13E + ( 9 ) )
001099 e0b9     +LDI R27 , HIGH ( _0x13E + ( 9 ) )
                 	__POINTW2MN _0x13E,9
00109a 940e 1f81 	CALL SUBOPT_0x3D
                 ;
                 ;                glcd_setfont(font5x7);
                 ;
                 ;            }
                 ;            if (btn_menu) {        //move to main menu
                 _0x155:
00109c 99cd      	SBIC 0x19,5
00109d c003      	RJMP _0x15B
                 ;                while (btn_menu);
                 _0x15C:
00109e 9bcd      	SBIS 0x19,5
00109f cffe      	RJMP _0x15C
                 ;                return;
0010a0 c2fe      	RJMP _0x216000F
                 ;            }
                 ;        }
                 _0x15B:
0010a1 cfaa      	RJMP _0x13F
                 _0x141:
                 ;    }
0010a2 cf97      	RJMP _0x13B
                 ;}
                 ; .FEND
                 
                 	.DSEG
                 _0x13E:
00090e           	.BYTE 0xB
                 ;
                 ;void gui_relay_setting(int node_name) {
                 
                 	.CSEG
                 _gui_relay_setting:
                 ; .FSTART _gui_relay_setting
                 ;    int erase_position = 0;
                 ;    int command;
                 ;    char title[10];
                 ;    memset(title, '\0', 10);
0010a3 93ba      	ST   -Y,R27
0010a4 93aa      	ST   -Y,R26
0010a5 972a      	SBIW R28,10
0010a6 940e 1e5c 	CALL SUBOPT_0x16
                 ;	node_name -> Y+14
                 ;	erase_position -> R16,R17
                 ;	command -> R18,R19
                 ;	title -> Y+4
0010a8 940e 1e94 	CALL SUBOPT_0x1E
0010aa 940e 1f19 	CALL SUBOPT_0x2D
                 ;    strcpy(title, "NODE ");
0010ac 01fe      	MOVW R30,R28
0010ad 9634      	ADIW R30,4
0010ae 93fa      	ST   -Y,R31
0010af 93ea      	ST   -Y,R30
                +
0010b0 e1a9     +LDI R26 , LOW ( _0x15F + ( 0 ) )
0010b1 e0b9     +LDI R27 , HIGH ( _0x15F + ( 0 ) )
                 	__POINTW2MN _0x15F,0
0010b2 940e 1cb4 	CALL _strcpy
                 ;    title[6] = '0' + node_name;
0010b4 85ee      	LDD  R30,Y+14
0010b5 5de0      	SUBI R30,-LOW(48)
0010b6 87ea      	STD  Y+10,R30
                 ;    while (1) {
                 _0x160:
                 ;        clrscr();
0010b7 940e 0a2a 	CALL _clrscr
                 ;        gui_set_title(title);
0010b9 01de      	MOVW R26,R28
0010ba 9614      	ADIW R26,4
0010bb 940e 1e61 	CALL SUBOPT_0x17
                 ;        gui_set_choice(y + NEW_LINE * 0, "On/Off");
                +
0010bd e1af     +LDI R26 , LOW ( _0x15F + ( 6 ) )
0010be e0b9     +LDI R27 , HIGH ( _0x15F + ( 6 ) )
                 	__POINTW2MN _0x15F,6
0010bf 940e 1e68 	CALL SUBOPT_0x18
                 ;        gui_set_choice(y + NEW_LINE * 1, "Set Hour");
                +
0010c1 e2a6     +LDI R26 , LOW ( _0x15F + ( 13 ) )
0010c2 e0b9     +LDI R27 , HIGH ( _0x15F + ( 13 ) )
                 	__POINTW2MN _0x15F,13
0010c3 940e 1e6f 	CALL SUBOPT_0x19
                 ;        gui_set_choice(y + NEW_LINE * 2, "Set Week Day");
                +
0010c5 e2af     +LDI R26 , LOW ( _0x15F + ( 22 ) )
0010c6 e0b9     +LDI R27 , HIGH ( _0x15F + ( 22 ) )
                 	__POINTW2MN _0x15F,22
0010c7 940e 1e76 	CALL SUBOPT_0x1A
                 ;        gui_set_choice(y + NEW_LINE * 3, "Status");
                +
0010c9 e3ac     +LDI R26 , LOW ( _0x15F + ( 35 ) )
0010ca e0b9     +LDI R27 , HIGH ( _0x15F + ( 35 ) )
                 	__POINTW2MN _0x15F,35
0010cb da36      	RCALL _gui_set_choice
                 ;        command = 1;
                +
0010cc e021     +LDI R18 , LOW ( 1 )
0010cd e030     +LDI R19 , HIGH ( 1 )
                 	__GETWRN 18,19,1
                 ;        while (1) {
                 _0x163:
                 ;
                 ;            if (btn_enter) {           //excute role menu when press enter button
0010ce 99cb      	SBIC 0x19,3
0010cf c008      	RJMP _0x166
                 ;                while(btn_enter);
                 _0x167:
0010d0 9bcb      	SBIS 0x19,3
0010d1 cffe      	RJMP _0x167
                 ;                exe_relay(command, node_name);   //in function exe_relay
0010d2 933a      	ST   -Y,R19
0010d3 932a      	ST   -Y,R18
0010d4 89a8      	LDD  R26,Y+16
0010d5 89b9      	LDD  R27,Y+16+1
0010d6 d017      	RCALL _exe_relay
                 ;                break;
0010d7 c011      	RJMP _0x165
                 ;            }
                 ;            if (btn_back) {            //next command when press back button
                 _0x166:
0010d8 99cc      	SBIC 0x19,4
0010d9 c009      	RJMP _0x16A
                 ;                while(btn_back);
                 _0x16B:
0010da 9bcc      	SBIS 0x19,4
0010db cffe      	RJMP _0x16B
                 ;                command++;
0010dc 940e 1e7d 	CALL SUBOPT_0x1B
                 ;                y += NEW_LINE;
                 ;                if (command > 4) {
0010de f014      	BRLT _0x16E
                 ;                    erase_position  =   4;
0010df 940e 1e86 	CALL SUBOPT_0x1C
                 ;                    command         =   1;
                 ;                    y               =   15;
                 ;                }
                 ;                gui_cursor_move(erase_position);    //move cursor position
                 _0x16E:
0010e1 940e 1e8e 	CALL SUBOPT_0x1D
                 ;                erase_position      =   0;
                 ;            }
                 ;
                 ;            if (btn_menu) {         //back to main screen when press menu button
                 _0x16A:
0010e3 99cd      	SBIC 0x19,5
0010e4 c003      	RJMP _0x16F
                 ;                while (btn_menu);
                 _0x170:
0010e5 9bcd      	SBIS 0x19,5
0010e6 cffe      	RJMP _0x170
                 ;                return;
0010e7 c002      	RJMP _0x2160012
                 ;            }
                 ;        }
                 _0x16F:
0010e8 cfe5      	RJMP _0x163
                 _0x165:
                 ;    }
0010e9 cfcd      	RJMP _0x160
                 ;}
                 _0x2160012:
0010ea 940e 227e 	CALL __LOADLOCR4
0010ec 9660      	ADIW R28,16
0010ed 9508      	RET
                 ; .FEND
                 
                 	.DSEG
                 _0x15F:
000919           	.BYTE 0x2A
                 ;
                 ;void exe_relay(int command, int node_name) {
                 
                 	.CSEG
                 _exe_relay:
                 ; .FSTART _exe_relay
                 ;    switch (command) {
0010ee 93ba      	ST   -Y,R27
0010ef 93aa      	ST   -Y,R26
                 ;	command -> Y+2
                 ;	node_name -> Y+0
0010f0 81ea      	LDD  R30,Y+2
0010f1 81fb      	LDD  R31,Y+2+1
                 ;        case 1:
0010f2 30e1      	CPI  R30,LOW(0x1)
0010f3 e0a0      	LDI  R26,HIGH(0x1)
0010f4 07fa      	CPC  R31,R26
0010f5 f009      	BREQ PC+2
0010f6 c058      	RJMP _0x176
                 ;            switch (node_name) {
0010f7 81e8      	LD   R30,Y
0010f8 81f9      	LDD  R31,Y+1
                 ;                case 1:
0010f9 30e1      	CPI  R30,LOW(0x1)
0010fa e0a0      	LDI  R26,HIGH(0x1)
0010fb 07fa      	CPC  R31,R26
0010fc f461      	BRNE _0x17A
                 ;                    relay_1 = !relay_1;
0010fd 9b94      	SBIS 0x12,4
0010fe c002      	RJMP _0x17B
0010ff 9894      	CBI  0x12,4
001100 c001      	RJMP _0x17C
                 _0x17B:
001101 9a94      	SBI  0x12,4
                 _0x17C:
                 ;                    node[1].status = '0' + (relay_1 == ON);
001102 940e 1f84 	CALL SUBOPT_0x3E
001104 e0f0      	LDI  R31,0
001105 96f0      	ADIW R30,48
                +
001106 e2aa     +LDI R26 , LOW ( _node + ( 42 ) )
001107 e0b0     +LDI R27 , HIGH ( _node + ( 42 ) )
                 	__POINTW2MN _node,42
001108 c03f      	RJMP _0x2E3
                 ;                break;
                 ;
                 ;                case 2:
                 _0x17A:
001109 30e2      	CPI  R30,LOW(0x2)
00110a e0a0      	LDI  R26,HIGH(0x2)
00110b 07fa      	CPC  R31,R26
00110c f461      	BRNE _0x17D
                 ;                    relay_2 = !relay_2;
00110d 9b97      	SBIS 0x12,7
00110e c002      	RJMP _0x17E
00110f 9897      	CBI  0x12,7
001110 c001      	RJMP _0x17F
                 _0x17E:
001111 9a97      	SBI  0x12,7
                 _0x17F:
                 ;                    node[2].status = '0' + (relay_2 == ON);
001112 940e 1f8b 	CALL SUBOPT_0x3F
001114 e0f0      	LDI  R31,0
001115 96f0      	ADIW R30,48
                +
001116 e5a4     +LDI R26 , LOW ( _node + ( 84 ) )
001117 e0b0     +LDI R27 , HIGH ( _node + ( 84 ) )
                 	__POINTW2MN _node,84
001118 c02f      	RJMP _0x2E3
                 ;                break;
                 ;
                 ;                case 3:
                 _0x17D:
001119 30e3      	CPI  R30,LOW(0x3)
00111a e0a0      	LDI  R26,HIGH(0x3)
00111b 07fa      	CPC  R31,R26
00111c f461      	BRNE _0x180
                 ;                    relay_3 = !relay_3;
00111d 9baf      	SBIS 0x15,7
00111e c002      	RJMP _0x181
00111f 98af      	CBI  0x15,7
001120 c001      	RJMP _0x182
                 _0x181:
001121 9aaf      	SBI  0x15,7
                 _0x182:
                 ;                    node[3].status = '0' + (relay_3 == ON);
001122 940e 1f92 	CALL SUBOPT_0x40
001124 e0f0      	LDI  R31,0
001125 96f0      	ADIW R30,48
                +
001126 e7ae     +LDI R26 , LOW ( _node + ( 126 ) )
001127 e0b0     +LDI R27 , HIGH ( _node + ( 126 ) )
                 	__POINTW2MN _node,126
001128 c01f      	RJMP _0x2E3
                 ;                break;
                 ;
                 ;                case 4:
                 _0x180:
001129 30e4      	CPI  R30,LOW(0x4)
00112a e0a0      	LDI  R26,HIGH(0x4)
00112b 07fa      	CPC  R31,R26
00112c f461      	BRNE _0x183
                 ;                    relay_4 = !relay_4;
00112d 9bdf      	SBIS 0x1B,7
00112e c002      	RJMP _0x184
00112f 98df      	CBI  0x1B,7
001130 c001      	RJMP _0x185
                 _0x184:
001131 9adf      	SBI  0x1B,7
                 _0x185:
                 ;                    node[4].status = '0' + (relay_4 == ON);
001132 940e 1f99 	CALL SUBOPT_0x41
001134 e0f0      	LDI  R31,0
001135 96f0      	ADIW R30,48
                +
001136 eaa8     +LDI R26 , LOW ( _node + ( 168 ) )
001137 e0b0     +LDI R27 , HIGH ( _node + ( 168 ) )
                 	__POINTW2MN _node,168
001138 c00f      	RJMP _0x2E3
                 ;                break;
                 ;
                 ;                case 5:
                 _0x183:
001139 30e5      	CPI  R30,LOW(0x5)
00113a e0a0      	LDI  R26,HIGH(0x5)
00113b 07fa      	CPC  R31,R26
00113c f489      	BRNE _0x179
                 ;                    relay_5 = !relay_5;
00113d 9bda      	SBIS 0x1B,2
00113e c002      	RJMP _0x187
00113f 98da      	CBI  0x1B,2
001140 c001      	RJMP _0x188
                 _0x187:
001141 9ada      	SBI  0x1B,2
                 _0x188:
                 ;                    node[5].status = '0' + (relay_5 == ON);
001142 940e 1fa0 	CALL SUBOPT_0x42
001144 e0f0      	LDI  R31,0
001145 96f0      	ADIW R30,48
                +
001146 eda2     +LDI R26 , LOW ( _node + ( 210 ) )
001147 e0b0     +LDI R27 , HIGH ( _node + ( 210 ) )
                 	__POINTW2MN _node,210
                 _0x2E3:
001148 2bef      	OR   R30,R31
001149 e0e1      	LDI  R30,1
00114a f409      	BRBC 0x1,PC+2
00114b e0e0      	LDI  R30,0
00114c 940e 2257 	CALL __EEPROMWRB
                 ;                break;
                 ;            }
                 _0x179:
                 ;        break;
00114e c00f      	RJMP _0x175
                 ;
                 ;        case 2:
                 _0x176:
00114f 30e2      	CPI  R30,LOW(0x2)
001150 e0a0      	LDI  R26,HIGH(0x2)
001151 07fa      	CPC  R31,R26
001152 f421      	BRNE _0x189
                 ;            choose_multiple_hour(node_name);
001153 81a8      	LD   R26,Y
001154 81b9      	LDD  R27,Y+1
001155 d009      	RCALL _choose_multiple_hour
                 ;        break;
001156 c007      	RJMP _0x175
                 ;
                 ;        case 3:
                 _0x189:
001157 30e3      	CPI  R30,LOW(0x3)
001158 e0a0      	LDI  R26,HIGH(0x3)
001159 07fa      	CPC  R31,R26
00115a f419      	BRNE _0x18A
                 ;            choose_multiple_week_day(node_name);
00115b 81a8      	LD   R26,Y
00115c 81b9      	LDD  R27,Y+1
00115d d052      	RCALL _choose_multiple_week_day
                 ;        break;
                 ;
                 ;        case 4:
                 _0x18A:
                 ;            // gui_set_title("STATUS");
                 ;
                 ;            // glcd_putcharxy(x - 7,y,' '); //xoa dau >
                 ;
                 ;
                 ;
                 ;        break;
                 ;    }
                 _0x175:
                 ;}
00115e c0aa      	RJMP _0x2160011
                 ; .FEND
                 ;
                 ;void choose_multiple_hour(int node_name) {
                 _choose_multiple_hour:
                 ; .FSTART _choose_multiple_hour
                 ;    int i;
                 ;
                 ;    while (1) {
00115f 93ba      	ST   -Y,R27
001160 93aa      	ST   -Y,R26
001161 931a      	ST   -Y,R17
001162 930a      	ST   -Y,R16
                 ;	node_name -> Y+2
                 ;	i -> R16,R17
                 ;        i = 0;
001163 940e 1fa7 	CALL SUBOPT_0x43
                 ;        clrscr();
                 ;        gui_set_title("HOUR");
                +
001165 e4a3     +LDI R26 , LOW ( _0x18F + ( 0 ) )
001166 e0b9     +LDI R27 , HIGH ( _0x18F + ( 0 ) )
                 	__POINTW2MN _0x18F,0
001167 940e 1f4c 	CALL SUBOPT_0x36
                 ;
                 ;        glcd_setfont(relay_icon_10x14);
                 ;
                 ;            glcd_putcharxy(5, 22, '0' + node[node_name].active_hour[0]);
001169 940e 1f51 	CALL SUBOPT_0x37
00116b 940e 1fab 	CALL SUBOPT_0x44
00116d 940e 1fb3 	CALL SUBOPT_0x45
                 ;
                 ;
                 ;        glcd_setfont(big_letter_10x14);
00116f 940e 1e2b 	CALL SUBOPT_0xF
                 ;
                 ;            glcd_outtextxyf(25,22,name_hour[i]); // 0h
001171 940e 1fba 	CALL SUBOPT_0x46
                 ;            glcd_outtext("@"); //dau mui ten xuong
                +
001173 e4a8     +LDI R26 , LOW ( _0x18F + ( 5 ) )
001174 e0b9     +LDI R27 , HIGH ( _0x18F + ( 5 ) )
                 	__POINTW2MN _0x18F,5
001175 940e 1f81 	CALL SUBOPT_0x3D
                 ;
                 ;        glcd_setfont(font5x7);
                 ;
                 ;        glcd_putcharxy(x - 7,y,' '); //xoa dau >
001177 940e 1ea2 	CALL SUBOPT_0x20
                 ;
                 ;        while(1) {
                 _0x190:
                 ;            if (btn_enter) {
001179 99cb      	SBIC 0x19,3
00117a c011      	RJMP _0x193
                 ;                while (btn_enter);
                 _0x194:
00117b 9bcb      	SBIS 0x19,3
00117c cffe      	RJMP _0x194
                 ;                node[node_name].active_hour[i] = !node[node_name].active_hour[i];
00117d 81aa      	LDD  R26,Y+2
00117e 81bb      	LDD  R27,Y+2+1
00117f e2ea      	LDI  R30,LOW(42)
001180 940e 21d9 	CALL __MULB1W2U
                +
001182 5fef     +SUBI R30 , LOW ( - _node - ( 1 ) )
001183 4fff     +SBCI R31 , HIGH ( - _node - ( 1 ) )
                 	__ADDW1MN _node,1
001184 940e 1fca 	CALL SUBOPT_0x47
                 ;
                 ;                glcd_setfont(relay_icon_10x14);
                 ;
                 ;                    glcd_putcharxy(5, 22, '0' + node[node_name].active_hour[i]);
001186 940e 1f51 	CALL SUBOPT_0x37
001188 940e 1fab 	CALL SUBOPT_0x44
00118a 940e 1fd8 	CALL SUBOPT_0x48
                 ;
                 ;            }
                 ;            if (btn_back) {
                 _0x193:
00118c 99cc      	SBIC 0x19,4
00118d c01c      	RJMP _0x197
                 ;                while (btn_back);
                 _0x198:
00118e 9bcc      	SBIS 0x19,4
00118f cffe      	RJMP _0x198
                 ;                if (i == 23) {
001190 e1e7      	LDI  R30,LOW(23)
001191 e0f0      	LDI  R31,HIGH(23)
001192 17e0      	CP   R30,R16
001193 07f1      	CPC  R31,R17
001194 f419      	BRNE _0x19B
                 ;                    i = 0;
                +
001195 e000     +LDI R16 , LOW ( 0 )
001196 e010     +LDI R17 , HIGH ( 0 )
                 	__GETWRN 16,17,0
                 ;                } else {
001197 c002      	RJMP _0x19C
                 _0x19B:
                 ;                    i++;
                +
001198 5f0f     +SUBI R16 , LOW ( - 1 )
001199 4f1f     +SBCI R17 , HIGH ( - 1 )
                 	__ADDWRN 16,17,1
                 ;                }
                 _0x19C:
                 ;
                 ;                glcd_setfont(relay_icon_10x14);
00119a 940e 1f7e 	CALL SUBOPT_0x3C
                 ;
                 ;                    glcd_putcharxy(5, 22, '0' + node[node_name].active_hour[i]);
00119c 940e 1f51 	CALL SUBOPT_0x37
00119e 940e 1fab 	CALL SUBOPT_0x44
0011a0 940e 1fd8 	CALL SUBOPT_0x48
                 ;
                 ;                glcd_setfont(big_letter_10x14);
0011a2 940e 1e2b 	CALL SUBOPT_0xF
                 ;
                 ;                    glcd_outtextxyf(25,22,name_hour[i]);
0011a4 940e 1fba 	CALL SUBOPT_0x46
                 ;                    glcd_outtext("@"); //dau mui ten xuong
                +
0011a6 e4aa     +LDI R26 , LOW ( _0x18F + ( 7 ) )
0011a7 e0b9     +LDI R27 , HIGH ( _0x18F + ( 7 ) )
                 	__POINTW2MN _0x18F,7
0011a8 940e 1f81 	CALL SUBOPT_0x3D
                 ;
                 ;                glcd_setfont(font5x7);
                 ;            }
                 ;            if (btn_menu) {
                 _0x197:
0011aa 99cd      	SBIC 0x19,5
0011ab c003      	RJMP _0x19D
                 ;                while (btn_menu);
                 _0x19E:
0011ac 9bcd      	SBIS 0x19,5
0011ad cffe      	RJMP _0x19E
                 ;                return;
0011ae c058      	RJMP _0x2160010
                 ;            }
                 ;        }
                 _0x19D:
0011af cfc9      	RJMP _0x190
                 ;    }
                 ;}
                 ; .FEND
                 
                 	.DSEG
                 _0x18F:
000943           	.BYTE 0x9
                 ;
                 ;void choose_multiple_week_day(int node_name) {
                 
                 	.CSEG
                 _choose_multiple_week_day:
                 ; .FSTART _choose_multiple_week_day
                 ;    int i;
                 ;
                 ;    while (1) {
0011b0 93ba      	ST   -Y,R27
0011b1 93aa      	ST   -Y,R26
0011b2 931a      	ST   -Y,R17
0011b3 930a      	ST   -Y,R16
                 ;	node_name -> Y+2
                 ;	i -> R16,R17
                 ;        i = 1;
0011b4 940e 1f48 	CALL SUBOPT_0x35
                 ;        clrscr();
                 ;        gui_set_title("WEEK DAY");
                +
0011b6 e4ac     +LDI R26 , LOW ( _0x1A4 + ( 0 ) )
0011b7 e0b9     +LDI R27 , HIGH ( _0x1A4 + ( 0 ) )
                 	__POINTW2MN _0x1A4,0
0011b8 940e 1f4c 	CALL SUBOPT_0x36
                 ;
                 ;        glcd_setfont(relay_icon_10x14);
                 ;
                 ;            glcd_putcharxy(5, 22, '0' + node[node_name].active_week_day[1]);
0011ba 940e 1f51 	CALL SUBOPT_0x37
0011bc 940e 1fdb 	CALL SUBOPT_0x49
                +
0011be 5ee6     +SUBI R30 , LOW ( - _node - ( 26 ) )
0011bf 4fff     +SBCI R31 , HIGH ( - _node - ( 26 ) )
                 	__ADDW1MN _node,26
0011c0 940e 1fb3 	CALL SUBOPT_0x45
                 ;
                 ;        glcd_setfont(big_letter_10x14);
0011c2 940e 1e2b 	CALL SUBOPT_0xF
                 ;
                 ;            glcd_outtextxyf(25,22,name_week_day[i]); //sunday
0011c4 940e 1fe1 	CALL SUBOPT_0x4A
                 ;            glcd_outtext("@"); //dau mui ten xuong
                +
0011c6 e5a5     +LDI R26 , LOW ( _0x1A4 + ( 9 ) )
0011c7 e0b9     +LDI R27 , HIGH ( _0x1A4 + ( 9 ) )
                 	__POINTW2MN _0x1A4,9
0011c8 940e 1f81 	CALL SUBOPT_0x3D
                 ;
                 ;        glcd_setfont(font5x7);
                 ;
                 ;        glcd_putcharxy(x - 7,y,' '); //xoa dau >
0011ca 940e 1ea2 	CALL SUBOPT_0x20
                 ;
                 ;        while(1) {
                 _0x1A5:
                 ;            if (btn_enter) {
0011cc 99cb      	SBIC 0x19,3
0011cd c013      	RJMP _0x1A8
                 ;                while (btn_enter);
                 _0x1A9:
0011ce 9bcb      	SBIS 0x19,3
0011cf cffe      	RJMP _0x1A9
                 ;                node[node_name].active_week_day[i] = !node[node_name].active_week_day[i];
0011d0 81aa      	LDD  R26,Y+2
0011d1 81bb      	LDD  R27,Y+2+1
0011d2 e2ea      	LDI  R30,LOW(42)
0011d3 940e 21d9 	CALL __MULB1W2U
                +
0011d5 5ee7     +SUBI R30 , LOW ( - _node - ( 25 ) )
0011d6 4fff     +SBCI R31 , HIGH ( - _node - ( 25 ) )
                 	__ADDW1MN _node,25
0011d7 940e 1fca 	CALL SUBOPT_0x47
                 ;
                 ;                glcd_setfont(relay_icon_10x14);
                 ;
                 ;                    glcd_putcharxy(5, 22, '0' + node[node_name].active_week_day[i]);
0011d9 940e 1f51 	CALL SUBOPT_0x37
0011db 940e 1fdb 	CALL SUBOPT_0x49
                +
0011dd 5ee7     +SUBI R30 , LOW ( - _node - ( 25 ) )
0011de 4fff     +SBCI R31 , HIGH ( - _node - ( 25 ) )
                 	__ADDW1MN _node,25
0011df 940e 1fd8 	CALL SUBOPT_0x48
                 ;
                 ;            }
                 ;            if (btn_back) {
                 _0x1A8:
0011e1 99cc      	SBIC 0x19,4
0011e2 c01e      	RJMP _0x1AC
                 ;                while (btn_back);
                 _0x1AD:
0011e3 9bcc      	SBIS 0x19,4
0011e4 cffe      	RJMP _0x1AD
                 ;                if (i == 7) {
0011e5 e0e7      	LDI  R30,LOW(7)
0011e6 e0f0      	LDI  R31,HIGH(7)
0011e7 17e0      	CP   R30,R16
0011e8 07f1      	CPC  R31,R17
0011e9 f419      	BRNE _0x1B0
                 ;                    i = 1;
                +
0011ea e001     +LDI R16 , LOW ( 1 )
0011eb e010     +LDI R17 , HIGH ( 1 )
                 	__GETWRN 16,17,1
                 ;                } else {
0011ec c002      	RJMP _0x1B1
                 _0x1B0:
                 ;                    i++;
                +
0011ed 5f0f     +SUBI R16 , LOW ( - 1 )
0011ee 4f1f     +SBCI R17 , HIGH ( - 1 )
                 	__ADDWRN 16,17,1
                 ;                }
                 _0x1B1:
                 ;
                 ;                glcd_setfont(relay_icon_10x14);
0011ef 940e 1f7e 	CALL SUBOPT_0x3C
                 ;
                 ;                    glcd_putcharxy(5, 22, '0' + node[node_name].active_week_day[i]);
0011f1 940e 1f51 	CALL SUBOPT_0x37
0011f3 940e 1fdb 	CALL SUBOPT_0x49
                +
0011f5 5ee7     +SUBI R30 , LOW ( - _node - ( 25 ) )
0011f6 4fff     +SBCI R31 , HIGH ( - _node - ( 25 ) )
                 	__ADDW1MN _node,25
0011f7 940e 1fd8 	CALL SUBOPT_0x48
                 ;
                 ;                glcd_setfont(big_letter_10x14);
0011f9 940e 1e2b 	CALL SUBOPT_0xF
                 ;
                 ;                    glcd_outtextxyf(25,22,name_week_day[i]);
0011fb 940e 1fe1 	CALL SUBOPT_0x4A
                 ;                    glcd_outtext("@"); //dau mui ten xuong
                +
0011fd e5a7     +LDI R26 , LOW ( _0x1A4 + ( 11 ) )
0011fe e0b9     +LDI R27 , HIGH ( _0x1A4 + ( 11 ) )
                 	__POINTW2MN _0x1A4,11
0011ff 940e 1f81 	CALL SUBOPT_0x3D
                 ;
                 ;                glcd_setfont(font5x7);
                 ;
                 ;            }
                 ;            if (btn_menu) {
                 _0x1AC:
001201 99cd      	SBIC 0x19,5
001202 c003      	RJMP _0x1B2
                 ;                while (btn_menu);
                 _0x1B3:
001203 9bcd      	SBIS 0x19,5
001204 cffe      	RJMP _0x1B3
                 ;                return;
001205 c001      	RJMP _0x2160010
                 ;            }
                 ;        }
                 _0x1B2:
001206 cfc5      	RJMP _0x1A5
                 ;    }
                 ;}
                 _0x2160010:
001207 8119      	LDD  R17,Y+1
001208 8108      	LDD  R16,Y+0
                 _0x2160011:
001209 9624      	ADIW R28,4
00120a 9508      	RET
                 ; .FEND
                 
                 	.DSEG
                 _0x1A4:
00094c           	.BYTE 0xD
                 ;
                 ;void get_relay_status() {      //show relay status in screen
                 
                 	.CSEG
                 _get_relay_status:
                 ; .FSTART _get_relay_status
                 ;	node[1].status = (relay_1 == ON) + '0';
                +
00120b e2ea     +LDI R30 , LOW ( _node + ( 42 ) )
00120c e0f0     +LDI R31 , HIGH ( _node + ( 42 ) )
                 	__POINTW1MN _node,42
00120d 010f      	MOVW R0,R30
00120e 940e 1f84 	CALL SUBOPT_0x3E
001210 940e 1ff1 	CALL SUBOPT_0x4B
                 ;	node[2].status = (relay_2 == ON) + '0';
                +
001212 e5e4     +LDI R30 , LOW ( _node + ( 84 ) )
001213 e0f0     +LDI R31 , HIGH ( _node + ( 84 ) )
                 	__POINTW1MN _node,84
001214 010f      	MOVW R0,R30
001215 940e 1f8b 	CALL SUBOPT_0x3F
001217 940e 1ff1 	CALL SUBOPT_0x4B
                 ;	node[3].status = (relay_3 == ON) + '0';
                +
001219 e7ee     +LDI R30 , LOW ( _node + ( 126 ) )
00121a e0f0     +LDI R31 , HIGH ( _node + ( 126 ) )
                 	__POINTW1MN _node,126
00121b 010f      	MOVW R0,R30
00121c 940e 1f92 	CALL SUBOPT_0x40
00121e 940e 1ff1 	CALL SUBOPT_0x4B
                 ;	node[4].status = (relay_4 == ON) + '0';
                +
001220 eae8     +LDI R30 , LOW ( _node + ( 168 ) )
001221 e0f0     +LDI R31 , HIGH ( _node + ( 168 ) )
                 	__POINTW1MN _node,168
001222 010f      	MOVW R0,R30
001223 940e 1f99 	CALL SUBOPT_0x41
001225 940e 1ff1 	CALL SUBOPT_0x4B
                 ;	node[5].status = (relay_5 == ON) + '0';
                +
001227 ede2     +LDI R30 , LOW ( _node + ( 210 ) )
001228 e0f0     +LDI R31 , HIGH ( _node + ( 210 ) )
                 	__POINTW1MN _node,210
001229 010f      	MOVW R0,R30
00122a 940e 1fa0 	CALL SUBOPT_0x42
00122c 940e 1ff1 	CALL SUBOPT_0x4B
                 ;}
00122e 9508      	RET
                 ; .FEND
                 ;#include <time_date_setting.c>
                 ;int choose_week_day             (); //setup current week
                 ;int choose_day                  (); //setup current day
                 ;int choose_month                ();	//setup current month
                 ;int choose_year                 (); //setup current year
                 ;int choose_hour                 (); //setup current hour
                 ;int choose_minute               ();	//setup current minute
                 ;int choose_second               ();	//setup current second
                 ;void gui_current_time           (); //setup time function
                 ;void gui_current_time_set_date  ();	//setup date function
                 ;void gui_current_time_set_time  ();	//setup time function
                 ;void exe_current_time           (int command);	//excute choosen command
                 ;void exe_set_date               (int command);	//put current setup date to ds1307 register
                 ;void exe_set_time               (int command);	//put current setup time to ds1307 register
                 ;
                 ;int choose_week_day() {
                 ; 0000 0022 int choose_week_day() {
                 _choose_week_day:
                 ; .FSTART _choose_week_day
                 ;    int i;
                 ;    while (1) {
00122f 931a      	ST   -Y,R17
001230 930a      	ST   -Y,R16
                 ;	i -> R16,R17
                 ;        i = 1;
001231 940e 1f48 	CALL SUBOPT_0x35
                 ;        clrscr();
                 ;        gui_set_title("WEEK DAY");
                +
001233 e5a9     +LDI R26 , LOW ( _0x1B9 + ( 0 ) )
001234 e0b9     +LDI R27 , HIGH ( _0x1B9 + ( 0 ) )
                 	__POINTW2MN _0x1B9,0
001235 940e 1ff6 	CALL SUBOPT_0x4C
                 ;        glcd_setfont(big_letter_10x14);
                 ;        glcd_outtextxyf(25,22,name_week_day[i]); //sunday
001237 940e 1fe1 	CALL SUBOPT_0x4A
                 ;        glcd_outtext("@"); //dau mui ten xuong
                +
001239 e6a2     +LDI R26 , LOW ( _0x1B9 + ( 9 ) )
00123a e0b9     +LDI R27 , HIGH ( _0x1B9 + ( 9 ) )
                 	__POINTW2MN _0x1B9,9
00123b 940e 1f81 	CALL SUBOPT_0x3D
                 ;        glcd_setfont(font5x7);
                 ;        glcd_putcharxy(x - 7,y,' '); //xoa dau >
00123d 940e 1ea2 	CALL SUBOPT_0x20
                 ;        while(1) {
                 _0x1BA:
                 ;            if (btn_enter) {
00123f 99cb      	SBIC 0x19,3
001240 c004      	RJMP _0x1BD
                 ;                while (btn_enter);
                 _0x1BE:
001241 9bcb      	SBIS 0x19,3
001242 cffe      	RJMP _0x1BE
                 ;                return i;
001243 01f8      	MOVW R30,R16
001244 c15a      	RJMP _0x216000F
                 ;            }
                 ;            if (btn_back) {
                 _0x1BD:
001245 99cc      	SBIC 0x19,4
001246 c014      	RJMP _0x1C1
                 ;                while (btn_back);
                 _0x1C2:
001247 9bcc      	SBIS 0x19,4
001248 cffe      	RJMP _0x1C2
                 ;                if (i == 7) {
001249 e0e7      	LDI  R30,LOW(7)
00124a e0f0      	LDI  R31,HIGH(7)
00124b 17e0      	CP   R30,R16
00124c 07f1      	CPC  R31,R17
00124d f419      	BRNE _0x1C5
                 ;                    i = 1;
                +
00124e e001     +LDI R16 , LOW ( 1 )
00124f e010     +LDI R17 , HIGH ( 1 )
                 	__GETWRN 16,17,1
                 ;                } else {
001250 c002      	RJMP _0x1C6
                 _0x1C5:
                 ;                    i++;
                +
001251 5f0f     +SUBI R16 , LOW ( - 1 )
001252 4f1f     +SBCI R17 , HIGH ( - 1 )
                 	__ADDWRN 16,17,1
                 ;                }
                 _0x1C6:
                 ;                glcd_setfont(big_letter_10x14);
001253 940e 1e2b 	CALL SUBOPT_0xF
                 ;                glcd_outtextxyf(25,22,name_week_day[i]);
001255 940e 1fe1 	CALL SUBOPT_0x4A
                 ;                glcd_outtext("@"); //dau mui ten xuong
                +
001257 e6a4     +LDI R26 , LOW ( _0x1B9 + ( 11 ) )
001258 e0b9     +LDI R27 , HIGH ( _0x1B9 + ( 11 ) )
                 	__POINTW2MN _0x1B9,11
001259 940e 1f81 	CALL SUBOPT_0x3D
                 ;                glcd_setfont(font5x7);
                 ;            }
                 ;            if (btn_menu) {
                 _0x1C1:
00125b 99cd      	SBIC 0x19,5
00125c c005      	RJMP _0x1C7
                 ;                while (btn_menu);
                 _0x1C8:
00125d 9bcd      	SBIS 0x19,5
00125e cffe      	RJMP _0x1C8
                 ;                return week_day;
00125f 2de6      	MOV  R30,R6
001260 e0f0      	LDI  R31,0
001261 c13d      	RJMP _0x216000F
                 ;            }
                 ;        }
                 _0x1C7:
001262 cfdc      	RJMP _0x1BA
                 ;    }
                 ;}
                 ; .FEND
                 
                 	.DSEG
                 _0x1B9:
000959           	.BYTE 0xD
                 ;int choose_day() {
                 
                 	.CSEG
                 _choose_day:
                 ; .FSTART _choose_day
                 ;    int i;
                 ;    while (1) {
001263 931a      	ST   -Y,R17
001264 930a      	ST   -Y,R16
                 ;	i -> R16,R17
                 ;        i = 1;
001265 940e 1f48 	CALL SUBOPT_0x35
                 ;        clrscr();
                 ;        gui_set_title("DAY");
                +
001267 e6a6     +LDI R26 , LOW ( _0x1CE + ( 0 ) )
001268 e0b9     +LDI R27 , HIGH ( _0x1CE + ( 0 ) )
                 	__POINTW2MN _0x1CE,0
001269 940e 1ff6 	CALL SUBOPT_0x4C
                 ;        glcd_setfont(big_letter_10x14);
                 ;            glcd_outtextxyf(25,22,name_day[i]); //01
00126b 940e 1ff9 	CALL SUBOPT_0x4D
                 ;            glcd_outtext("@"); //dau mui ten xuong
                +
00126d e6aa     +LDI R26 , LOW ( _0x1CE + ( 4 ) )
00126e e0b9     +LDI R27 , HIGH ( _0x1CE + ( 4 ) )
                 	__POINTW2MN _0x1CE,4
00126f 940e 1f81 	CALL SUBOPT_0x3D
                 ;        glcd_setfont(font5x7);
                 ;        glcd_putcharxy(x - 7,y,' '); //xoa dau >
001271 940e 1ea2 	CALL SUBOPT_0x20
                 ;        while(1) {
                 _0x1CF:
                 ;            if (btn_enter) {
001273 99cb      	SBIC 0x19,3
001274 c004      	RJMP _0x1D2
                 ;                while (btn_enter);
                 _0x1D3:
001275 9bcb      	SBIS 0x19,3
001276 cffe      	RJMP _0x1D3
                 ;                return i;
001277 01f8      	MOVW R30,R16
001278 c126      	RJMP _0x216000F
                 ;            }
                 ;            if (btn_back) {
                 _0x1D2:
001279 99cc      	SBIC 0x19,4
00127a c014      	RJMP _0x1D6
                 ;                while (btn_back);
                 _0x1D7:
00127b 9bcc      	SBIS 0x19,4
00127c cffe      	RJMP _0x1D7
                 ;                if (i == 31) {
00127d e1ef      	LDI  R30,LOW(31)
00127e e0f0      	LDI  R31,HIGH(31)
00127f 17e0      	CP   R30,R16
001280 07f1      	CPC  R31,R17
001281 f419      	BRNE _0x1DA
                 ;                    i = 1;
                +
001282 e001     +LDI R16 , LOW ( 1 )
001283 e010     +LDI R17 , HIGH ( 1 )
                 	__GETWRN 16,17,1
                 ;                } else {
001284 c002      	RJMP _0x1DB
                 _0x1DA:
                 ;                    i++;
                +
001285 5f0f     +SUBI R16 , LOW ( - 1 )
001286 4f1f     +SBCI R17 , HIGH ( - 1 )
                 	__ADDWRN 16,17,1
                 ;                }
                 _0x1DB:
                 ;                glcd_setfont(big_letter_10x14);
001287 940e 1e2b 	CALL SUBOPT_0xF
                 ;                    glcd_outtextxyf(25,22,name_day[i]);
001289 940e 1ff9 	CALL SUBOPT_0x4D
                 ;                    glcd_outtext("@"); //dau mui ten xuong
                +
00128b e6ac     +LDI R26 , LOW ( _0x1CE + ( 6 ) )
00128c e0b9     +LDI R27 , HIGH ( _0x1CE + ( 6 ) )
                 	__POINTW2MN _0x1CE,6
00128d 940e 1f81 	CALL SUBOPT_0x3D
                 ;                glcd_setfont(font5x7);
                 ;            }
                 ;            if (btn_menu) {
                 _0x1D6:
00128f 99cd      	SBIC 0x19,5
001290 c005      	RJMP _0x1DC
                 ;                while (btn_menu);
                 _0x1DD:
001291 9bcd      	SBIS 0x19,5
001292 cffe      	RJMP _0x1DD
                 ;                return day;
001293 2ded      	MOV  R30,R13
001294 e0f0      	LDI  R31,0
001295 c109      	RJMP _0x216000F
                 ;            }
                 ;        }
                 _0x1DC:
001296 cfdc      	RJMP _0x1CF
                 ;    }
                 ;}
                 ; .FEND
                 
                 	.DSEG
                 _0x1CE:
000966           	.BYTE 0x8
                 ;int choose_month() {
                 
                 	.CSEG
                 _choose_month:
                 ; .FSTART _choose_month
                 ;    int i;
                 ;    while (1) {
001297 931a      	ST   -Y,R17
001298 930a      	ST   -Y,R16
                 ;	i -> R16,R17
                 ;        i = 1;
001299 940e 1f48 	CALL SUBOPT_0x35
                 ;        clrscr();
                 ;        gui_set_title("MONTH");
                +
00129b e6ae     +LDI R26 , LOW ( _0x1E3 + ( 0 ) )
00129c e0b9     +LDI R27 , HIGH ( _0x1E3 + ( 0 ) )
                 	__POINTW2MN _0x1E3,0
00129d 940e 1ff6 	CALL SUBOPT_0x4C
                 ;        glcd_setfont(big_letter_10x14);
                 ;            glcd_outtextxyf(25,22,name_month[i]); //01
00129f 940e 2009 	CALL SUBOPT_0x4E
                 ;            glcd_outtext("@"); //dau mui ten xuong
                +
0012a1 e7a4     +LDI R26 , LOW ( _0x1E3 + ( 6 ) )
0012a2 e0b9     +LDI R27 , HIGH ( _0x1E3 + ( 6 ) )
                 	__POINTW2MN _0x1E3,6
0012a3 940e 1f81 	CALL SUBOPT_0x3D
                 ;        glcd_setfont(font5x7);
                 ;        glcd_putcharxy(x - 7,y,' '); //xoa dau >
0012a5 940e 1ea2 	CALL SUBOPT_0x20
                 ;        while(1) {
                 _0x1E4:
                 ;            if (btn_enter) {
0012a7 99cb      	SBIC 0x19,3
0012a8 c004      	RJMP _0x1E7
                 ;                while (btn_enter);
                 _0x1E8:
0012a9 9bcb      	SBIS 0x19,3
0012aa cffe      	RJMP _0x1E8
                 ;                return i;
0012ab 01f8      	MOVW R30,R16
0012ac c0f2      	RJMP _0x216000F
                 ;            }
                 ;            if (btn_back) {
                 _0x1E7:
0012ad 99cc      	SBIC 0x19,4
0012ae c014      	RJMP _0x1EB
                 ;                while (btn_back);
                 _0x1EC:
0012af 9bcc      	SBIS 0x19,4
0012b0 cffe      	RJMP _0x1EC
                 ;                if (i == 12) {
0012b1 e0ec      	LDI  R30,LOW(12)
0012b2 e0f0      	LDI  R31,HIGH(12)
0012b3 17e0      	CP   R30,R16
0012b4 07f1      	CPC  R31,R17
0012b5 f419      	BRNE _0x1EF
                 ;                    i = 1;
                +
0012b6 e001     +LDI R16 , LOW ( 1 )
0012b7 e010     +LDI R17 , HIGH ( 1 )
                 	__GETWRN 16,17,1
                 ;                } else {
0012b8 c002      	RJMP _0x1F0
                 _0x1EF:
                 ;                    i++;
                +
0012b9 5f0f     +SUBI R16 , LOW ( - 1 )
0012ba 4f1f     +SBCI R17 , HIGH ( - 1 )
                 	__ADDWRN 16,17,1
                 ;                }
                 _0x1F0:
                 ;                glcd_setfont(big_letter_10x14);
0012bb 940e 1e2b 	CALL SUBOPT_0xF
                 ;                    glcd_outtextxyf(25,22,name_month[i]);
0012bd 940e 2009 	CALL SUBOPT_0x4E
                 ;                    glcd_outtext("@"); //dau mui ten xuong
                +
0012bf e7a6     +LDI R26 , LOW ( _0x1E3 + ( 8 ) )
0012c0 e0b9     +LDI R27 , HIGH ( _0x1E3 + ( 8 ) )
                 	__POINTW2MN _0x1E3,8
0012c1 940e 1f81 	CALL SUBOPT_0x3D
                 ;                glcd_setfont(font5x7);
                 ;            }
                 ;            if (btn_menu) {
                 _0x1EB:
0012c3 99cd      	SBIC 0x19,5
0012c4 c005      	RJMP _0x1F1
                 ;                while (btn_menu);
                 _0x1F2:
0012c5 9bcd      	SBIS 0x19,5
0012c6 cffe      	RJMP _0x1F2
                 ;                return month;
0012c7 2dec      	MOV  R30,R12
0012c8 e0f0      	LDI  R31,0
0012c9 c0d5      	RJMP _0x216000F
                 ;            }
                 ;
                 ;        }
                 _0x1F1:
0012ca cfdc      	RJMP _0x1E4
                 ;    }
                 ;}
                 ; .FEND
                 
                 	.DSEG
                 _0x1E3:
00096e           	.BYTE 0xA
                 ;int choose_year() {
                 
                 	.CSEG
                 _choose_year:
                 ; .FSTART _choose_year
                 ;    int i;
                 ;    while (1) {
0012cb 931a      	ST   -Y,R17
0012cc 930a      	ST   -Y,R16
                 ;	i -> R16,R17
                 ;        i = 0;
0012cd 940e 1fa7 	CALL SUBOPT_0x43
                 ;        clrscr();
                 ;        gui_set_title("YEAR");
                +
0012cf e7a8     +LDI R26 , LOW ( _0x1F8 + ( 0 ) )
0012d0 e0b9     +LDI R27 , HIGH ( _0x1F8 + ( 0 ) )
                 	__POINTW2MN _0x1F8,0
0012d1 940e 1ff6 	CALL SUBOPT_0x4C
                 ;        glcd_setfont(big_letter_10x14);
                 ;            glcd_outtextxyf(15,22,name_year[i]); //2017
0012d3 940e 2019 	CALL SUBOPT_0x4F
                 ;            glcd_outtext("@"); //dau mui ten xuong
                +
0012d5 e7ad     +LDI R26 , LOW ( _0x1F8 + ( 5 ) )
0012d6 e0b9     +LDI R27 , HIGH ( _0x1F8 + ( 5 ) )
                 	__POINTW2MN _0x1F8,5
0012d7 940e 1f81 	CALL SUBOPT_0x3D
                 ;        glcd_setfont(font5x7);
                 ;        glcd_putcharxy(x - 7,y,' '); //xoa dau >
0012d9 940e 1ea2 	CALL SUBOPT_0x20
                 ;        while(1) {
                 _0x1F9:
                 ;            if (btn_enter) {
0012db 99cb      	SBIC 0x19,3
0012dc c004      	RJMP _0x1FC
                 ;                while (btn_enter);
                 _0x1FD:
0012dd 9bcb      	SBIS 0x19,3
0012de cffe      	RJMP _0x1FD
                 ;                return i;
0012df 01f8      	MOVW R30,R16
0012e0 c0be      	RJMP _0x216000F
                 ;            }
                 ;            if (btn_back) {
                 _0x1FC:
0012e1 99cc      	SBIC 0x19,4
0012e2 c014      	RJMP _0x200
                 ;                while (btn_back);
                 _0x201:
0012e3 9bcc      	SBIS 0x19,4
0012e4 cffe      	RJMP _0x201
                 ;                if (i == (2032 - 2017)) {
0012e5 e0ef      	LDI  R30,LOW(15)
0012e6 e0f0      	LDI  R31,HIGH(15)
0012e7 17e0      	CP   R30,R16
0012e8 07f1      	CPC  R31,R17
0012e9 f419      	BRNE _0x204
                 ;                    i = 0;
                +
0012ea e000     +LDI R16 , LOW ( 0 )
0012eb e010     +LDI R17 , HIGH ( 0 )
                 	__GETWRN 16,17,0
                 ;                } else {
0012ec c002      	RJMP _0x205
                 _0x204:
                 ;                    i++;
                +
0012ed 5f0f     +SUBI R16 , LOW ( - 1 )
0012ee 4f1f     +SBCI R17 , HIGH ( - 1 )
                 	__ADDWRN 16,17,1
                 ;                }
                 _0x205:
                 ;                glcd_setfont(big_letter_10x14);
0012ef 940e 1e2b 	CALL SUBOPT_0xF
                 ;                    glcd_outtextxyf(15,22,name_year[i]);
0012f1 940e 2019 	CALL SUBOPT_0x4F
                 ;                    glcd_outtext("@"); //dau mui ten xuong
                +
0012f3 e7af     +LDI R26 , LOW ( _0x1F8 + ( 7 ) )
0012f4 e0b9     +LDI R27 , HIGH ( _0x1F8 + ( 7 ) )
                 	__POINTW2MN _0x1F8,7
0012f5 940e 1f81 	CALL SUBOPT_0x3D
                 ;                glcd_setfont(font5x7);
                 ;            }
                 ;            if (btn_menu) {
                 _0x200:
0012f7 99cd      	SBIC 0x19,5
0012f8 c006      	RJMP _0x206
                 ;                while (btn_menu);
                 _0x207:
0012f9 9bcd      	SBIS 0x19,5
0012fa cffe      	RJMP _0x207
                 ;                return year;
0012fb 91e0 0bd6 	LDS  R30,_year
0012fd e0f0      	LDI  R31,0
0012fe c0a0      	RJMP _0x216000F
                 ;            }
                 ;        }
                 _0x206:
0012ff cfdb      	RJMP _0x1F9
                 ;    }
                 ;}
                 ; .FEND
                 
                 	.DSEG
                 _0x1F8:
000978           	.BYTE 0x9
                 ;int choose_hour() {
                 
                 	.CSEG
                 _choose_hour:
                 ; .FSTART _choose_hour
                 ;    int i;
                 ;    while (1) {
001300 931a      	ST   -Y,R17
001301 930a      	ST   -Y,R16
                 ;	i -> R16,R17
                 ;        i = 0;
001302 940e 1fa7 	CALL SUBOPT_0x43
                 ;        clrscr();
                 ;        gui_set_title("HOUR");
                +
001304 e8a1     +LDI R26 , LOW ( _0x20D + ( 0 ) )
001305 e0b9     +LDI R27 , HIGH ( _0x20D + ( 0 ) )
                 	__POINTW2MN _0x20D,0
001306 940e 1ff6 	CALL SUBOPT_0x4C
                 ;        glcd_setfont(big_letter_10x14);
                 ;            glcd_outtextxyf(25,22,name_hour[i]); // 0h
001308 940e 1fba 	CALL SUBOPT_0x46
                 ;            glcd_outtext("@"); //dau mui ten xuong
                +
00130a e8a6     +LDI R26 , LOW ( _0x20D + ( 5 ) )
00130b e0b9     +LDI R27 , HIGH ( _0x20D + ( 5 ) )
                 	__POINTW2MN _0x20D,5
00130c 940e 1f81 	CALL SUBOPT_0x3D
                 ;        glcd_setfont(font5x7);
                 ;        glcd_putcharxy(x - 7,y,' '); //xoa dau >
00130e 940e 1ea2 	CALL SUBOPT_0x20
                 ;        while(1) {
                 _0x20E:
                 ;            if (btn_enter) {
001310 99cb      	SBIC 0x19,3
001311 c004      	RJMP _0x211
                 ;                while (btn_enter);
                 _0x212:
001312 9bcb      	SBIS 0x19,3
001313 cffe      	RJMP _0x212
                 ;                return i;
001314 01f8      	MOVW R30,R16
001315 c089      	RJMP _0x216000F
                 ;            }
                 ;            if (btn_back) {
                 _0x211:
001316 99cc      	SBIC 0x19,4
001317 c014      	RJMP _0x215
                 ;                while (btn_back);
                 _0x216:
001318 9bcc      	SBIS 0x19,4
001319 cffe      	RJMP _0x216
                 ;                if (i == 23) {
00131a e1e7      	LDI  R30,LOW(23)
00131b e0f0      	LDI  R31,HIGH(23)
00131c 17e0      	CP   R30,R16
00131d 07f1      	CPC  R31,R17
00131e f419      	BRNE _0x219
                 ;                    i = 0;
                +
00131f e000     +LDI R16 , LOW ( 0 )
001320 e010     +LDI R17 , HIGH ( 0 )
                 	__GETWRN 16,17,0
                 ;                } else {
001321 c002      	RJMP _0x21A
                 _0x219:
                 ;                    i++;
                +
001322 5f0f     +SUBI R16 , LOW ( - 1 )
001323 4f1f     +SBCI R17 , HIGH ( - 1 )
                 	__ADDWRN 16,17,1
                 ;                }
                 _0x21A:
                 ;                glcd_setfont(big_letter_10x14);
001324 940e 1e2b 	CALL SUBOPT_0xF
                 ;                    glcd_outtextxyf(25,22,name_hour[i]);
001326 940e 1fba 	CALL SUBOPT_0x46
                 ;                    glcd_outtext("@"); //dau mui ten xuong
                +
001328 e8a8     +LDI R26 , LOW ( _0x20D + ( 7 ) )
001329 e0b9     +LDI R27 , HIGH ( _0x20D + ( 7 ) )
                 	__POINTW2MN _0x20D,7
00132a 940e 1f81 	CALL SUBOPT_0x3D
                 ;                glcd_setfont(font5x7);
                 ;            }
                 ;            if (btn_menu) {
                 _0x215:
00132c 99cd      	SBIC 0x19,5
00132d c006      	RJMP _0x21B
                 ;                while (btn_menu);
                 _0x21C:
00132e 9bcd      	SBIS 0x19,5
00132f cffe      	RJMP _0x21C
                 ;                return hour;
001330 91e0 0bd7 	LDS  R30,_hour
001332 e0f0      	LDI  R31,0
001333 c06b      	RJMP _0x216000F
                 ;            }
                 ;        }
                 _0x21B:
001334 cfdb      	RJMP _0x20E
                 ;    }
                 ;}
                 ; .FEND
                 
                 	.DSEG
                 _0x20D:
000981           	.BYTE 0x9
                 ;int choose_minute() {
                 
                 	.CSEG
                 _choose_minute:
                 ; .FSTART _choose_minute
                 ;    int i;
                 ;    while (1) {
001335 931a      	ST   -Y,R17
001336 930a      	ST   -Y,R16
                 ;	i -> R16,R17
                 ;        i = 0;
001337 940e 1fa7 	CALL SUBOPT_0x43
                 ;        clrscr();
                 ;        gui_set_title("MINUTE");
                +
001339 e8aa     +LDI R26 , LOW ( _0x222 + ( 0 ) )
00133a e0b9     +LDI R27 , HIGH ( _0x222 + ( 0 ) )
                 	__POINTW2MN _0x222,0
00133b 940e 1ff6 	CALL SUBOPT_0x4C
                 ;        glcd_setfont(big_letter_10x14);
                 ;            glcd_outtextxyf(25,22,name_minute[i]); // 0h
00133d 940e 2029 	CALL SUBOPT_0x50
                 ;            glcd_outtext("@"); //dau mui ten xuong
                +
00133f e9a1     +LDI R26 , LOW ( _0x222 + ( 7 ) )
001340 e0b9     +LDI R27 , HIGH ( _0x222 + ( 7 ) )
                 	__POINTW2MN _0x222,7
001341 940e 1f81 	CALL SUBOPT_0x3D
                 ;        glcd_setfont(font5x7);
                 ;        glcd_putcharxy(x - 7,y,' '); //xoa dau >
001343 940e 1ea2 	CALL SUBOPT_0x20
                 ;        while(1) {
                 _0x223:
                 ;            if (btn_enter) {
001345 99cb      	SBIC 0x19,3
001346 c004      	RJMP _0x226
                 ;                while (btn_enter);
                 _0x227:
001347 9bcb      	SBIS 0x19,3
001348 cffe      	RJMP _0x227
                 ;                return i;
001349 01f8      	MOVW R30,R16
00134a c054      	RJMP _0x216000F
                 ;            }
                 ;            if (btn_back) {
                 _0x226:
00134b 99cc      	SBIC 0x19,4
00134c c014      	RJMP _0x22A
                 ;                while (btn_back);
                 _0x22B:
00134d 9bcc      	SBIS 0x19,4
00134e cffe      	RJMP _0x22B
                 ;                if (i == 59) {
00134f e3eb      	LDI  R30,LOW(59)
001350 e0f0      	LDI  R31,HIGH(59)
001351 17e0      	CP   R30,R16
001352 07f1      	CPC  R31,R17
001353 f419      	BRNE _0x22E
                 ;                    i = 0;
                +
001354 e000     +LDI R16 , LOW ( 0 )
001355 e010     +LDI R17 , HIGH ( 0 )
                 	__GETWRN 16,17,0
                 ;                } else {
001356 c002      	RJMP _0x22F
                 _0x22E:
                 ;                    i++;
                +
001357 5f0f     +SUBI R16 , LOW ( - 1 )
001358 4f1f     +SBCI R17 , HIGH ( - 1 )
                 	__ADDWRN 16,17,1
                 ;                }
                 _0x22F:
                 ;                glcd_setfont(big_letter_10x14);
001359 940e 1e2b 	CALL SUBOPT_0xF
                 ;                    glcd_outtextxyf(25,22,name_minute[i]);
00135b 940e 2029 	CALL SUBOPT_0x50
                 ;                    glcd_outtext("@"); //dau mui ten xuong
                +
00135d e9a3     +LDI R26 , LOW ( _0x222 + ( 9 ) )
00135e e0b9     +LDI R27 , HIGH ( _0x222 + ( 9 ) )
                 	__POINTW2MN _0x222,9
00135f 940e 1f81 	CALL SUBOPT_0x3D
                 ;                glcd_setfont(font5x7);
                 ;            }
                 ;            if (btn_menu) {
                 _0x22A:
001361 99cd      	SBIC 0x19,5
001362 c006      	RJMP _0x230
                 ;                while (btn_menu);
                 _0x231:
001363 9bcd      	SBIS 0x19,5
001364 cffe      	RJMP _0x231
                 ;                return minute;
001365 91e0 0bd8 	LDS  R30,_minute
001367 e0f0      	LDI  R31,0
001368 c036      	RJMP _0x216000F
                 ;            }
                 ;        }
                 _0x230:
001369 cfdb      	RJMP _0x223
                 ;    }
                 ;}
                 ; .FEND
                 
                 	.DSEG
                 _0x222:
00098a           	.BYTE 0xB
                 ;int choose_second() {
                 
                 	.CSEG
                 _choose_second:
                 ; .FSTART _choose_second
                 ;    int i;
                 ;    while (1) {
00136a 931a      	ST   -Y,R17
00136b 930a      	ST   -Y,R16
                 ;	i -> R16,R17
                 ;        i = 0;
00136c 940e 1fa7 	CALL SUBOPT_0x43
                 ;        clrscr();
                 ;        gui_set_title("SECOND");
                +
00136e e9a5     +LDI R26 , LOW ( _0x237 + ( 0 ) )
00136f e0b9     +LDI R27 , HIGH ( _0x237 + ( 0 ) )
                 	__POINTW2MN _0x237,0
001370 940e 1ff6 	CALL SUBOPT_0x4C
                 ;        glcd_setfont(big_letter_10x14);
                 ;            glcd_outtextxyf(25,22,name_second[i]); // 0s
001372 940e 2039 	CALL SUBOPT_0x51
                 ;            glcd_outtext("@"); //dau mui ten xuong
                +
001374 e9ac     +LDI R26 , LOW ( _0x237 + ( 7 ) )
001375 e0b9     +LDI R27 , HIGH ( _0x237 + ( 7 ) )
                 	__POINTW2MN _0x237,7
001376 940e 1f81 	CALL SUBOPT_0x3D
                 ;        glcd_setfont(font5x7);
                 ;        glcd_putcharxy(x - 7,y,' '); //xoa dau >
001378 940e 1ea2 	CALL SUBOPT_0x20
                 ;        while(1) {
                 _0x238:
                 ;            if (btn_enter) {
00137a 99cb      	SBIC 0x19,3
00137b c004      	RJMP _0x23B
                 ;                while (btn_enter);
                 _0x23C:
00137c 9bcb      	SBIS 0x19,3
00137d cffe      	RJMP _0x23C
                 ;                return i;
00137e 01f8      	MOVW R30,R16
00137f c01f      	RJMP _0x216000F
                 ;            }
                 ;            if (btn_back) {
                 _0x23B:
001380 99cc      	SBIC 0x19,4
001381 c014      	RJMP _0x23F
                 ;                while (btn_back);
                 _0x240:
001382 9bcc      	SBIS 0x19,4
001383 cffe      	RJMP _0x240
                 ;                if (i == 59) {
001384 e3eb      	LDI  R30,LOW(59)
001385 e0f0      	LDI  R31,HIGH(59)
001386 17e0      	CP   R30,R16
001387 07f1      	CPC  R31,R17
001388 f419      	BRNE _0x243
                 ;                    i = 0;
                +
001389 e000     +LDI R16 , LOW ( 0 )
00138a e010     +LDI R17 , HIGH ( 0 )
                 	__GETWRN 16,17,0
                 ;                } else {
00138b c002      	RJMP _0x244
                 _0x243:
                 ;                    i++;
                +
00138c 5f0f     +SUBI R16 , LOW ( - 1 )
00138d 4f1f     +SBCI R17 , HIGH ( - 1 )
                 	__ADDWRN 16,17,1
                 ;                }
                 _0x244:
                 ;                glcd_setfont(big_letter_10x14);
00138e 940e 1e2b 	CALL SUBOPT_0xF
                 ;                    glcd_outtextxyf(25,22,name_second[i]);
001390 940e 2039 	CALL SUBOPT_0x51
                 ;                    glcd_outtext("@"); //dau mui ten xuong
                +
001392 e9ae     +LDI R26 , LOW ( _0x237 + ( 9 ) )
001393 e0b9     +LDI R27 , HIGH ( _0x237 + ( 9 ) )
                 	__POINTW2MN _0x237,9
001394 940e 1f81 	CALL SUBOPT_0x3D
                 ;                glcd_setfont(font5x7);
                 ;            }
                 ;            if (btn_menu) {
                 _0x23F:
001396 99cd      	SBIC 0x19,5
001397 c006      	RJMP _0x245
                 ;                while (btn_menu);
                 _0x246:
001398 9bcd      	SBIS 0x19,5
001399 cffe      	RJMP _0x246
                 ;                return second;
00139a 91e0 0bd9 	LDS  R30,_second
00139c e0f0      	LDI  R31,0
00139d c001      	RJMP _0x216000F
                 ;            }
                 ;        }
                 _0x245:
00139e cfdb      	RJMP _0x238
                 ;    }
                 ;}
                 _0x216000F:
00139f 9109      	LD   R16,Y+
0013a0 9119      	LD   R17,Y+
0013a1 9508      	RET
                 ; .FEND
                 
                 	.DSEG
                 _0x237:
000995           	.BYTE 0xB
                 ;void gui_current_time() {
                 
                 	.CSEG
                 _gui_current_time:
                 ; .FSTART _gui_current_time
                 ;    int erase_position = 0;
                 ;    int command;
                 ;    while (1) {
0013a2 940e 1e5c 	CALL SUBOPT_0x16
                 ;	erase_position -> R16,R17
                 ;	command -> R18,R19
                 _0x249:
                 ;        command = 1;
0013a4 940e 2049 	CALL SUBOPT_0x52
                 ;        clrscr();
                 ;        gui_set_title("SET TIME");
                +
0013a6 eaa0     +LDI R26 , LOW ( _0x24C + ( 0 ) )
0013a7 e0b9     +LDI R27 , HIGH ( _0x24C + ( 0 ) )
                 	__POINTW2MN _0x24C,0
0013a8 940e 1e61 	CALL SUBOPT_0x17
                 ;        gui_set_choice(y + NEW_LINE * 0, "Set Date");
                +
0013aa eaa9     +LDI R26 , LOW ( _0x24C + ( 9 ) )
0013ab e0b9     +LDI R27 , HIGH ( _0x24C + ( 9 ) )
                 	__POINTW2MN _0x24C,9
0013ac 940e 1e68 	CALL SUBOPT_0x18
                 ;        gui_set_choice(y + NEW_LINE * 1, "Set Time");
                +
0013ae eba2     +LDI R26 , LOW ( _0x24C + ( 18 ) )
0013af e0b9     +LDI R27 , HIGH ( _0x24C + ( 18 ) )
                 	__POINTW2MN _0x24C,18
0013b0 940e 0b02 	CALL _gui_set_choice
                 ;        while (1) {
                 _0x24D:
                 ;            if (btn_enter) {
0013b2 99cb      	SBIC 0x19,3
0013b3 c005      	RJMP _0x250
                 ;                while (btn_enter);
                 _0x251:
0013b4 9bcb      	SBIS 0x19,3
0013b5 cffe      	RJMP _0x251
                 ;                exe_current_time(command);
0013b6 01d9      	MOVW R26,R18
0013b7 d08d      	RCALL _exe_current_time
                 ;                break;
0013b8 c01e      	RJMP _0x24F
                 ;            }
                 ;            if (btn_back) {
                 _0x250:
0013b9 99cc      	SBIC 0x19,4
0013ba c014      	RJMP _0x254
                 ;                while (btn_back);
                 _0x255:
0013bb 9bcc      	SBIS 0x19,4
0013bc cffe      	RJMP _0x255
                 ;                command++;
                +
0013bd 5f2f     +SUBI R18 , LOW ( - 1 )
0013be 4f3f     +SBCI R19 , HIGH ( - 1 )
                 	__ADDWRN 18,19,1
                 ;                y += NEW_LINE;
0013bf 01f5      	MOVW R30,R10
0013c0 9638      	ADIW R30,8
0013c1 015f      	MOVW R10,R30
                 ;
                 ;                if (command > 2) {
                +
0013c2 3023     +CPI R18 , LOW ( 3 )
0013c3 e0e0     +LDI R30 , HIGH ( 3 )
0013c4 073e     +CPC R19 , R30
                 	__CPWRN 18,19,3
0013c5 f03c      	BRLT _0x258
                 ;                    erase_position  =   2;
                +
0013c6 e002     +LDI R16 , LOW ( 2 )
0013c7 e010     +LDI R17 , HIGH ( 2 )
                 	__GETWRN 16,17,2
                 ;                    command         =   1;
                +
0013c8 e021     +LDI R18 , LOW ( 1 )
0013c9 e030     +LDI R19 , HIGH ( 1 )
                 	__GETWRN 18,19,1
                 ;                    y               =   15;
0013ca e0ef      	LDI  R30,LOW(15)
0013cb e0f0      	LDI  R31,HIGH(15)
0013cc 015f      	MOVW R10,R30
                 ;                }
                 ;                gui_cursor_move(erase_position);
                 _0x258:
0013cd 940e 1e8e 	CALL SUBOPT_0x1D
                 ;                erase_position      =   0;
                 ;            }
                 ;            if (btn_menu) {
                 _0x254:
0013cf 99cd      	SBIC 0x19,5
0013d0 c005      	RJMP _0x259
                 ;                while(btn_menu);
                 _0x25A:
0013d1 9bcd      	SBIS 0x19,5
0013d2 cffe      	RJMP _0x25A
                 ;                return;
0013d3 940e 227e 	CALL __LOADLOCR4
0013d5 c2ab      	RJMP _0x216000D
                 ;            }
                 ;        }
                 _0x259:
0013d6 cfdb      	RJMP _0x24D
                 _0x24F:
                 ;
                 ;    }
0013d7 cfcc      	RJMP _0x249
                 ;}
                 ; .FEND
                 
                 	.DSEG
                 _0x24C:
0009a0           	.BYTE 0x1B
                 ;void gui_current_time_set_date() {
                 
                 	.CSEG
                 _gui_current_time_set_date:
                 ; .FSTART _gui_current_time_set_date
                 ;    int erase_position = 0;
                 ;    int command;
                 ;    while (1) {
0013d8 940e 1e5c 	CALL SUBOPT_0x16
                 ;	erase_position -> R16,R17
                 ;	command -> R18,R19
                 _0x25D:
                 ;        command = 1;
0013da 940e 2049 	CALL SUBOPT_0x52
                 ;        clrscr();
                 ;        gui_set_title("SET DATE");
                +
0013dc ebab     +LDI R26 , LOW ( _0x260 + ( 0 ) )
0013dd e0b9     +LDI R27 , HIGH ( _0x260 + ( 0 ) )
                 	__POINTW2MN _0x260,0
0013de 940e 1e61 	CALL SUBOPT_0x17
                 ;        gui_set_choice(y + NEW_LINE * 0, "Week day");
                +
0013e0 eca4     +LDI R26 , LOW ( _0x260 + ( 9 ) )
0013e1 e0b9     +LDI R27 , HIGH ( _0x260 + ( 9 ) )
                 	__POINTW2MN _0x260,9
0013e2 940e 1e68 	CALL SUBOPT_0x18
                 ;        gui_set_choice(y + NEW_LINE * 1, "Day");
                +
0013e4 ecad     +LDI R26 , LOW ( _0x260 + ( 18 ) )
0013e5 e0b9     +LDI R27 , HIGH ( _0x260 + ( 18 ) )
                 	__POINTW2MN _0x260,18
0013e6 940e 1e6f 	CALL SUBOPT_0x19
                 ;        gui_set_choice(y + NEW_LINE * 2, "Month");
                +
0013e8 eda1     +LDI R26 , LOW ( _0x260 + ( 22 ) )
0013e9 e0b9     +LDI R27 , HIGH ( _0x260 + ( 22 ) )
                 	__POINTW2MN _0x260,22
0013ea 940e 1e76 	CALL SUBOPT_0x1A
                 ;        gui_set_choice(y + NEW_LINE * 3, "Year");
                +
0013ec eda7     +LDI R26 , LOW ( _0x260 + ( 28 ) )
0013ed e0b9     +LDI R27 , HIGH ( _0x260 + ( 28 ) )
                 	__POINTW2MN _0x260,28
0013ee 940e 0b02 	CALL _gui_set_choice
                 ;        while (1) {
                 _0x261:
                 ;            if (btn_enter) {
0013f0 99cb      	SBIC 0x19,3
0013f1 c005      	RJMP _0x264
                 ;                while(btn_enter);
                 _0x265:
0013f2 9bcb      	SBIS 0x19,3
0013f3 cffe      	RJMP _0x265
                 ;                exe_set_date(command);
0013f4 01d9      	MOVW R26,R18
0013f5 d061      	RCALL _exe_set_date
                 ;                break;
0013f6 c013      	RJMP _0x263
                 ;            }
                 ;            if (btn_back) {
                 _0x264:
0013f7 99cc      	SBIC 0x19,4
0013f8 c009      	RJMP _0x268
                 ;                while(btn_back);
                 _0x269:
0013f9 9bcc      	SBIS 0x19,4
0013fa cffe      	RJMP _0x269
                 ;
                 ;                command++;
0013fb 940e 1e7d 	CALL SUBOPT_0x1B
                 ;                y += NEW_LINE;
                 ;                if (command > 4) {
0013fd f014      	BRLT _0x26C
                 ;                    erase_position      =   4;
0013fe 940e 1e86 	CALL SUBOPT_0x1C
                 ;                    command             =   1;
                 ;                    y                   =   15;
                 ;                }
                 ;                gui_cursor_move(erase_position);
                 _0x26C:
001400 940e 1e8e 	CALL SUBOPT_0x1D
                 ;                erase_position          =   0;
                 ;            }
                 ;            if (btn_menu) {
                 _0x268:
001402 99cd      	SBIC 0x19,5
001403 c005      	RJMP _0x26D
                 ;                while(btn_menu);
                 _0x26E:
001404 9bcd      	SBIS 0x19,5
001405 cffe      	RJMP _0x26E
                 ;                return;
001406 940e 227e 	CALL __LOADLOCR4
001408 c278      	RJMP _0x216000D
                 ;            }
                 ;        }
                 _0x26D:
001409 cfe6      	RJMP _0x261
                 _0x263:
                 ;    }
00140a cfcf      	RJMP _0x25D
                 ;}
                 ; .FEND
                 
                 	.DSEG
                 _0x260:
0009bb           	.BYTE 0x21
                 ;void gui_current_time_set_time() {
                 
                 	.CSEG
                 _gui_current_time_set_time:
                 ; .FSTART _gui_current_time_set_time
                 ;    int erase_position = 0;
                 ;    int command;
                 ;    while (1) {
00140b 940e 1e5c 	CALL SUBOPT_0x16
                 ;	erase_position -> R16,R17
                 ;	command -> R18,R19
                 _0x271:
                 ;        command = 1;
00140d 940e 2049 	CALL SUBOPT_0x52
                 ;        clrscr();
                 ;        gui_set_title("SET TIME");
                +
00140f edac     +LDI R26 , LOW ( _0x274 + ( 0 ) )
001410 e0b9     +LDI R27 , HIGH ( _0x274 + ( 0 ) )
                 	__POINTW2MN _0x274,0
001411 940e 1e61 	CALL SUBOPT_0x17
                 ;        gui_set_choice(y + NEW_LINE * 0, "Hour");
                +
001413 eea5     +LDI R26 , LOW ( _0x274 + ( 9 ) )
001414 e0b9     +LDI R27 , HIGH ( _0x274 + ( 9 ) )
                 	__POINTW2MN _0x274,9
001415 940e 1e68 	CALL SUBOPT_0x18
                 ;        gui_set_choice(y + NEW_LINE * 1, "Minute");
                +
001417 eeaa     +LDI R26 , LOW ( _0x274 + ( 14 ) )
001418 e0b9     +LDI R27 , HIGH ( _0x274 + ( 14 ) )
                 	__POINTW2MN _0x274,14
001419 940e 1e6f 	CALL SUBOPT_0x19
                 ;        gui_set_choice(y + NEW_LINE * 2, "Second");
                +
00141b efa1     +LDI R26 , LOW ( _0x274 + ( 21 ) )
00141c e0b9     +LDI R27 , HIGH ( _0x274 + ( 21 ) )
                 	__POINTW2MN _0x274,21
00141d 940e 0b02 	CALL _gui_set_choice
                 ;        while (1) {
                 _0x275:
                 ;            if (btn_enter) {
00141f 99cb      	SBIC 0x19,3
001420 c005      	RJMP _0x278
                 ;                while(btn_enter);
                 _0x279:
001421 9bcb      	SBIS 0x19,3
001422 cffe      	RJMP _0x279
                 ;                exe_set_time(command);
001423 01d9      	MOVW R26,R18
001424 d05c      	RCALL _exe_set_time
                 ;                break;
001425 c01e      	RJMP _0x277
                 ;            }
                 ;            if (btn_back) {
                 _0x278:
001426 99cc      	SBIC 0x19,4
001427 c014      	RJMP _0x27C
                 ;                while(btn_back);
                 _0x27D:
001428 9bcc      	SBIS 0x19,4
001429 cffe      	RJMP _0x27D
                 ;                command++;
                +
00142a 5f2f     +SUBI R18 , LOW ( - 1 )
00142b 4f3f     +SBCI R19 , HIGH ( - 1 )
                 	__ADDWRN 18,19,1
                 ;                y += NEW_LINE;
00142c 01f5      	MOVW R30,R10
00142d 9638      	ADIW R30,8
00142e 015f      	MOVW R10,R30
                 ;                if (command > 3) {
                +
00142f 3024     +CPI R18 , LOW ( 4 )
001430 e0e0     +LDI R30 , HIGH ( 4 )
001431 073e     +CPC R19 , R30
                 	__CPWRN 18,19,4
001432 f03c      	BRLT _0x280
                 ;                    erase_position = 3;
                +
001433 e003     +LDI R16 , LOW ( 3 )
001434 e010     +LDI R17 , HIGH ( 3 )
                 	__GETWRN 16,17,3
                 ;                    command = 1;
                +
001435 e021     +LDI R18 , LOW ( 1 )
001436 e030     +LDI R19 , HIGH ( 1 )
                 	__GETWRN 18,19,1
                 ;                    y = 15;
001437 e0ef      	LDI  R30,LOW(15)
001438 e0f0      	LDI  R31,HIGH(15)
001439 015f      	MOVW R10,R30
                 ;                }
                 ;                gui_cursor_move(erase_position);
                 _0x280:
00143a 940e 1e8e 	CALL SUBOPT_0x1D
                 ;                erase_position = 0;
                 ;            }
                 ;            if (btn_menu) {
                 _0x27C:
00143c 99cd      	SBIC 0x19,5
00143d c005      	RJMP _0x281
                 ;                while(btn_menu);
                 _0x282:
00143e 9bcd      	SBIS 0x19,5
00143f cffe      	RJMP _0x282
                 ;                return;
001440 940e 227e 	CALL __LOADLOCR4
001442 c23e      	RJMP _0x216000D
                 ;            }
                 ;        }
                 _0x281:
001443 cfdb      	RJMP _0x275
                 _0x277:
                 ;    }
001444 cfc8      	RJMP _0x271
                 ;}
                 ; .FEND
                 
                 	.DSEG
                 _0x274:
0009dc           	.BYTE 0x1C
                 ;void exe_current_time(int command) {
                 
                 	.CSEG
                 _exe_current_time:
                 ; .FSTART _exe_current_time
                 ;    switch (command) {
001445 940e 1e50 	CALL SUBOPT_0x14
                 ;	command -> Y+0
                 ;        case 1:
001447 30e1      	CPI  R30,LOW(0x1)
001448 e0a0      	LDI  R26,HIGH(0x1)
001449 07fa      	CPC  R31,R26
00144a f419      	BRNE _0x288
                 ;            gui_current_time_set_date();
00144b df8c      	RCALL _gui_current_time_set_date
                 ;            return;
00144c 940c 16d5 	JMP  _0x216000B
                 ;        case 2:
                 _0x288:
00144e 30e2      	CPI  R30,LOW(0x2)
00144f e0a0      	LDI  R26,HIGH(0x2)
001450 07fa      	CPC  R31,R26
001451 f419      	BRNE _0x287
                 ;            gui_current_time_set_time();
001452 dfb8      	RCALL _gui_current_time_set_time
                 ;            return;
001453 940c 16d5 	JMP  _0x216000B
                 ;    }
                 _0x287:
                 ;}
001455 940c 16d5 	JMP  _0x216000B
                 ; .FEND
                 ;void exe_set_date(int command) {
                 _exe_set_date:
                 ; .FSTART _exe_set_date
                 ;    switch (command) {
001457 940e 1e50 	CALL SUBOPT_0x14
                 ;	command -> Y+0
                 ;        case 1:
001459 30e1      	CPI  R30,LOW(0x1)
00145a e0a0      	LDI  R26,HIGH(0x1)
00145b 07fa      	CPC  R31,R26
00145c f431      	BRNE _0x28D
                 ;            week_day    =   choose_week_day();
00145d ddd1      	RCALL _choose_week_day
00145e 2e6e      	MOV  R6,R30
                 ;            rtc_set_date(week_day, day, month, year);
00145f 940e 204d 	CALL SUBOPT_0x53
                 ;            return;
001461 940c 16d5 	JMP  _0x216000B
                 ;        case 2:
                 _0x28D:
001463 30e2      	CPI  R30,LOW(0x2)
001464 e0a0      	LDI  R26,HIGH(0x2)
001465 07fa      	CPC  R31,R26
001466 f431      	BRNE _0x28E
                 ;            day         =   choose_day();
001467 ddfb      	RCALL _choose_day
001468 2ede      	MOV  R13,R30
                 ;            rtc_set_date(week_day, day, month, year);
001469 940e 204d 	CALL SUBOPT_0x53
                 ;            return;
00146b 940c 16d5 	JMP  _0x216000B
                 ;        case 3:
                 _0x28E:
00146d 30e3      	CPI  R30,LOW(0x3)
00146e e0a0      	LDI  R26,HIGH(0x3)
00146f 07fa      	CPC  R31,R26
001470 f429      	BRNE _0x28F
                 ;            month       =   choose_month();
001471 de25      	RCALL _choose_month
001472 2ece      	MOV  R12,R30
                 ;            rtc_set_date(week_day, day, month, year);
001473 940e 204d 	CALL SUBOPT_0x53
                 ;            return;
001475 c25f      	RJMP _0x216000B
                 ;        case 4:
                 _0x28F:
001476 30e4      	CPI  R30,LOW(0x4)
001477 e0a0      	LDI  R26,HIGH(0x4)
001478 07fa      	CPC  R31,R26
001479 f431      	BRNE _0x28C
                 ;            year        =   choose_year();
00147a de50      	RCALL _choose_year
00147b 93e0 0bd6 	STS  _year,R30
                 ;            rtc_set_date(week_day, day, month, year);
00147d 940e 204d 	CALL SUBOPT_0x53
                 ;            return;
00147f c255      	RJMP _0x216000B
                 ;    }
                 _0x28C:
                 ;}
001480 c254      	RJMP _0x216000B
                 ; .FEND
                 ;void exe_set_time(int command) {
                 _exe_set_time:
                 ; .FSTART _exe_set_time
                 ;    switch (command) {
001481 940e 1e50 	CALL SUBOPT_0x14
                 ;	command -> Y+0
                 ;        case 1:
001483 30e1      	CPI  R30,LOW(0x1)
001484 e0a0      	LDI  R26,HIGH(0x1)
001485 07fa      	CPC  R31,R26
001486 f431      	BRNE _0x294
                 ;            hour        =   choose_hour();	//renew hour to ds1307 register
001487 de78      	RCALL _choose_hour
001488 93e0 0bd7 	STS  _hour,R30
                 ;            rtc_set_time(hour, minute, second);
00148a 940e 2054 	CALL SUBOPT_0x54
                 ;            return;
00148c c248      	RJMP _0x216000B
                 ;        case 2:
                 _0x294:
00148d 30e2      	CPI  R30,LOW(0x2)
00148e e0a0      	LDI  R26,HIGH(0x2)
00148f 07fa      	CPC  R31,R26
001490 f431      	BRNE _0x295
                 ;            minute      =   choose_minute();
001491 dea3      	RCALL _choose_minute
001492 93e0 0bd8 	STS  _minute,R30
                 ;            rtc_set_time(hour, minute, second);
001494 940e 2054 	CALL SUBOPT_0x54
                 ;            return;
001496 c23e      	RJMP _0x216000B
                 ;        case 3:
                 _0x295:
001497 30e3      	CPI  R30,LOW(0x3)
001498 e0a0      	LDI  R26,HIGH(0x3)
001499 07fa      	CPC  R31,R26
00149a f431      	BRNE _0x293
                 ;            second      =   choose_second();
00149b dece      	RCALL _choose_second
00149c 93e0 0bd9 	STS  _second,R30
                 ;            rtc_set_time(hour, minute, second);
00149e 940e 2054 	CALL SUBOPT_0x54
                 ;            return;
0014a0 c234      	RJMP _0x216000B
                 ;    }
                 _0x293:
                 ;}
0014a1 c233      	RJMP _0x216000B
                 ; .FEND
                 ;#include <init.c>
                 ;interrupt [TIM0_OVF] void timer0_ovf_isr(void);
                 ;void init_system(){
                 ; 0000 0023 void init_system(){
                 _init_system:
                 ; .FSTART _init_system
                 ;GLCDINIT_t glcd_init_data;
                 ;    {
0014a2 9728      	SBIW R28,8
                 ;	glcd_init_data -> Y+0
                 ;
                 ;        DDRA=(1<<DDA7) | (1<<DDA6) | (0<<DDA5) | (0<<DDA4) | (0<<DDA3) | (1<<DDA2) | (0<<DDA1) | (0<<DDA0);
0014a3 ece4      	LDI  R30,LOW(196)
0014a4 bbea      	OUT  0x1A,R30
                 ;        PORTA=(1<<PORTA7) | (1<<PORTA6) | (1<<PORTA5) | (1<<PORTA4) | (1<<PORTA3) | (1<<PORTA2) | (0<<PORTA1) | (0<<PORT ...
0014a5 efec      	LDI  R30,LOW(252)
0014a6 bbeb      	OUT  0x1B,R30
                 ;
                 ;
                 ;        DDRB=(0<<DDB7) | (1<<DDB6) | (1<<DDB5) | (1<<DDB4) | (1<<DDB3) | (0<<DDB2) | (0<<DDB1) | (0<<DDB0);
0014a7 e7e8      	LDI  R30,LOW(120)
0014a8 bbe7      	OUT  0x17,R30
                 ;        PORTB=(1<<PORTB7) | (1<<PORTB6) | (1<<PORTB5) | (1<<PORTB4) | (1<<PORTB3) | (1<<PORTB2) | (0<<PORTB1) | (0<<PORT ...
0014a9 efec      	LDI  R30,LOW(252)
0014aa bbe8      	OUT  0x18,R30
                 ;
                 ;        DDRC=(1<<DDC7) | (1<<DDC6) | (0<<DDC5) | (0<<DDC4) | (0<<DDC3) | (0<<DDC2) | (0<<DDC1) | (0<<DDC0);
0014ab ece0      	LDI  R30,LOW(192)
0014ac bbe4      	OUT  0x14,R30
                 ;        PORTC=(1<<PORTC7) | (0<<PORTC6) | (0<<PORTC5) | (0<<PORTC4) | (0<<PORTC3) | (0<<PORTC2) | (0<<PORTC1) | (0<<PORT ...
0014ad e8e0      	LDI  R30,LOW(128)
0014ae bbe5      	OUT  0x15,R30
                 ;
                 ;        DDRD=(1<<DDD7) | (0<<DDD6) | (0<<DDD5) | (1<<DDD4) | (0<<DDD3) | (0<<DDD2) | (0<<DDD1) | (0<<DDD0);
0014af e9e0      	LDI  R30,LOW(144)
0014b0 bbe1      	OUT  0x11,R30
                 ;        PORTD=(1<<PORTD7) | (0<<PORTD6) | (0<<PORTD5) | (1<<PORTD4) | (0<<PORTD3) | (0<<PORTD2) | (0<<PORTD1) | (0<<PORT ...
0014b1 bbe2      	OUT  0x12,R30
                 ;
                 ;        DDRE=(0<<DDE7) | (0<<DDE6) | (0<<DDE5) | (0<<DDE4) | (0<<DDE3) | (0<<DDE2) | (0<<DDE1) | (0<<DDE0);
0014b2 e0e0      	LDI  R30,LOW(0)
0014b3 b9e2      	OUT  0x2,R30
                 ;        PORTE=(0<<PORTE7) | (0<<PORTE6) | (0<<PORTE5) | (0<<PORTE4) | (0<<PORTE3) | (0<<PORTE2) | (0<<PORTE1) | (0<<PORT ...
0014b4 b9e3      	OUT  0x3,R30
                 ;
                 ;        DDRF=(0<<DDF7) | (0<<DDF6) | (0<<DDF5) | (0<<DDF4) | (0<<DDF3) | (0<<DDF2) | (0<<DDF1) | (0<<DDF0);
0014b5 93e0 0061 	STS  97,R30
                 ;        PORTF=(0<<PORTF7) | (0<<PORTF6) | (0<<PORTF5) | (0<<PORTF4) | (0<<PORTF3) | (0<<PORTF2) | (0<<PORTF1) | (0<<PORT ...
0014b7 93e0 0062 	STS  98,R30
                 ;
                 ;        DDRG=(0<<DDG4) | (0<<DDG3) | (0<<DDG2) | (0<<DDG1) | (0<<DDG0);
0014b9 93e0 0064 	STS  100,R30
                 ;        PORTG=(0<<PORTG4) | (0<<PORTG3) | (0<<PORTG2) | (0<<PORTG1) | (0<<PORTG0);
0014bb 93e0 0065 	STS  101,R30
                 ;
                 ;        // Timer Period: 20 ms
                 ;        ASSR=0<<AS0;
0014bd bfe0      	OUT  0x30,R30
                 ;        TCCR0=(0<<WGM00) | (0<<COM01) | (0<<COM00) | (0<<WGM01) | (1<<CS02) | (1<<CS01) | (1<<CS00);
0014be e0e7      	LDI  R30,LOW(7)
0014bf bfe3      	OUT  0x33,R30
                 ;        TCNT0=0x64;
0014c0 e6e4      	LDI  R30,LOW(100)
0014c1 bfe2      	OUT  0x32,R30
                 ;        OCR0=0x00;
0014c2 e0e0      	LDI  R30,LOW(0)
0014c3 bfe1      	OUT  0x31,R30
                 ;
                 ;
                 ;        TIMSK=(0<<OCIE2) | (0<<TOIE2) | (0<<TICIE1) | (0<<OCIE1A) | (0<<OCIE1B) | (0<<TOIE1) | (0<<OCIE0) | (1<<TOIE0);
0014c4 e0e1      	LDI  R30,LOW(1)
0014c5 bfe7      	OUT  0x37,R30
                 ;        ETIMSK=(0<<TICIE3) | (0<<OCIE3A) | (0<<OCIE3B) | (0<<TOIE3) | (0<<OCIE3C) | (0<<OCIE1C);
0014c6 e0e0      	LDI  R30,LOW(0)
0014c7 93e0 007d 	STS  125,R30
                 ;
                 ;        // USART1 2400 double
                 ;        UCSR1A=(0<<RXC1) | (0<<TXC1) | (0<<UDRE1) | (0<<FE1) | (0<<DOR1) | (0<<UPE1) | (0<<U2X1) | (0<<MPCM1);
0014c9 93e0 009b 	STS  155,R30
                 ;        UCSR1B=(1<<RXCIE1) | (1<<TXCIE1) | (0<<UDRIE1) | (1<<RXEN1) | (1<<TXEN1) | (0<<UCSZ12) | (0<<RXB81) | (0<<TXB81) ...
0014cb ede8      	LDI  R30,LOW(216)
0014cc 93e0 009a 	STS  154,R30
                 ;        UCSR1C=(0<<UMSEL1) | (0<<UPM11) | (0<<UPM10) | (0<<USBS1) | (1<<UCSZ11) | (1<<UCSZ10) | (0<<UCPOL1);
0014ce e0e6      	LDI  R30,LOW(6)
0014cf 93e0 009d 	STS  157,R30
                 ;        UBRR1H=0x00;
0014d1 e0e0      	LDI  R30,LOW(0)
0014d2 93e0 0098 	STS  152,R30
                 ;        UBRR1L=0x33;
0014d4 e3e3      	LDI  R30,LOW(51)
0014d5 93e0 0099 	STS  153,R30
                 ;
                 ;        i2c_init(); //100khz
0014d7 940e 214e 	CALL _i2c_init
                 ;        rtc_init(3,1,0); //32768Hz
0014d9 e0e3      	LDI  R30,LOW(3)
0014da 93ea      	ST   -Y,R30
0014db e0e1      	LDI  R30,LOW(1)
0014dc 93ea      	ST   -Y,R30
0014dd e0a0      	LDI  R26,LOW(0)
0014de d13a      	RCALL _rtc_init
                 ;
                 ;        glcd_init_data.font=font5x7;
0014df e8ec      	LDI  R30,LOW(_font5x7*2)
0014e0 e0f0      	LDI  R31,HIGH(_font5x7*2)
0014e1 83e8      	ST   Y,R30
0014e2 83f9      	STD  Y+1,R31
                 ;        glcd_init_data.temp_coef=89;
0014e3 81ee      	LDD  R30,Y+6
0014e4 7fec      	ANDI R30,LOW(0xFC)
0014e5 60e1      	ORI  R30,1
0014e6 83ee      	STD  Y+6,R30
                 ;        glcd_init_data.bias=3;
0014e7 7ee3      	ANDI R30,LOW(0xE3)
0014e8 60ec      	ORI  R30,LOW(0xC)
0014e9 83ee      	STD  Y+6,R30
                 ;        glcd_init_data.vlcd=55;
0014ea 81ef      	LDD  R30,Y+7
0014eb 78e0      	ANDI R30,LOW(0x80)
0014ec 63e7      	ORI  R30,LOW(0x37)
0014ed 83ef      	STD  Y+7,R30
                 ;        glcd_init(&glcd_init_data);
0014ee 01de      	MOVW R26,R28
0014ef d1f1      	RCALL _glcd_init
                 ;
                 ;        #asm("sei")
0014f0 9478      	sei
                 ;    }
                 ;}
0014f1 c17e      	RJMP _0x216000E
                 ; .FEND
                 ;interrupt[TIM0_OVF] void timer0_ovf_isr() {
                 _timer0_ovf_isr:
                 ; .FSTART _timer0_ovf_isr
0014f2 940e 1ed6 	CALL SUBOPT_0x26
                 ;    unsigned char prev_sec = second;
                 ;    int i = 0;
                 ;    TCNT0 = 0x64; //20 ms
0014f4 940e 2277 	CALL __SAVELOCR4
                 ;	prev_sec -> R17
                 ;	i -> R18,R19
0014f6 9110 0bd9 	LDS  R17,_second
                +
0014f8 e020     +LDI R18 , LOW ( 0 )
0014f9 e030     +LDI R19 , HIGH ( 0 )
                 	__GETWRN 18,19,0
0014fa e6e4      	LDI  R30,LOW(100)
0014fb bfe2      	OUT  0x32,R30
                 ;
                 ;    milisec += 20;
0014fc 91e0 0bd2 	LDS  R30,_milisec
0014fe 91f0 0bd3 	LDS  R31,_milisec+1
001500 9160 0bd4 	LDS  R22,_milisec+2
001502 9170 0bd5 	LDS  R23,_milisec+3
                +
001504 5eec     +SUBI R30 , LOW ( - 20 )
001505 4fff     +SBCI R31 , HIGH ( - 20 )
001506 4f6f     +SBCI R22 , BYTE3 ( - 20 )
001507 4f7f     +SBCI R23 , BYTE4 ( - 20 )
                 	__ADDD1N 20
001508 93e0 0bd2 	STS  _milisec,R30
00150a 93f0 0bd3 	STS  _milisec+1,R31
00150c 9360 0bd4 	STS  _milisec+2,R22
00150e 9370 0bd5 	STS  _milisec+3,R23
                 ;    if (milisec > 4000000000) milisec = 0; //gioi han cua unsigned long
001510 940e 1ef8 	CALL SUBOPT_0x29
                +
001512 30a1     +CPI R26 , LOW ( 0xEE6B2801 )
001513 e2e8     +LDI R30 , HIGH ( 0xEE6B2801 )
001514 07be     +CPC R27 , R30
001515 e6eb     +LDI R30 , BYTE3 ( 0xEE6B2801 )
001516 078e     +CPC R24 , R30
001517 eeee     +LDI R30 , BYTE4 ( 0xEE6B2801 )
001518 079e     +CPC R25 , R30
                 	__CPD2N 0xEE6B2801
001519 f010      	BRLO _0x297
00151a 940e 205e 	CALL SUBOPT_0x55
                 ;
                 ;    if (milisec % 1000 == 0) {
                 _0x297:
00151c 940e 1ef8 	CALL SUBOPT_0x29
                +
00151e eee8     +LDI R30 , LOW ( 0x3E8 )
00151f e0f3     +LDI R31 , HIGH ( 0x3E8 )
001520 e060     +LDI R22 , BYTE3 ( 0x3E8 )
001521 e070     +LDI R23 , BYTE4 ( 0x3E8 )
                 	__GETD1N 0x3E8
001522 940e 2221 	CALL __MODD21U
001524 940e 2268 	CALL __CPD10
001526 f009      	BREQ PC+2
001527 c04e      	RJMP _0x298
                 ;        for (i = 1; i <= 5; i++) {
                +
001528 e021     +LDI R18 , LOW ( 1 )
001529 e030     +LDI R19 , HIGH ( 1 )
                 	__GETWRN 18,19,1
                 _0x29A:
                +
00152a 3026     +CPI R18 , LOW ( 6 )
00152b e0e0     +LDI R30 , HIGH ( 6 )
00152c 073e     +CPC R19 , R30
                 	__CPWRN 18,19,6
00152d f00c      	BRLT PC+2
00152e c047      	RJMP _0x29B
                 ;            node[i].alarm_time_s--;
00152f 940e 2068 	CALL SUBOPT_0x56
001531 9731      	SBIW R30,1
001532 940e 224f 	CALL __EEPROMWRW
                 ;            if (node[i].alarm_time_s == 0) {
001534 940e 2068 	CALL SUBOPT_0x56
001536 9730      	SBIW R30,0
001537 f5d9      	BRNE _0x29C
                 ;                switch (i) {
001538 01f9      	MOVW R30,R18
                 ;                    case 1:
001539 30e1      	CPI  R30,LOW(0x1)
00153a e0a0      	LDI  R26,HIGH(0x1)
00153b 07fa      	CPC  R31,R26
00153c f431      	BRNE _0x2A0
                 ;                        relay_1 = !relay_1;
00153d 9b94      	SBIS 0x12,4
00153e c002      	RJMP _0x2A1
00153f 9894      	CBI  0x12,4
001540 c001      	RJMP _0x2A2
                 _0x2A1:
001541 9a94      	SBI  0x12,4
                 _0x2A2:
                 ;                    break;
001542 c027      	RJMP _0x29F
                 ;                    case 2:
                 _0x2A0:
001543 30e2      	CPI  R30,LOW(0x2)
001544 e0a0      	LDI  R26,HIGH(0x2)
001545 07fa      	CPC  R31,R26
001546 f431      	BRNE _0x2A3
                 ;                        relay_2 = !relay_2;
001547 9b97      	SBIS 0x12,7
001548 c002      	RJMP _0x2A4
001549 9897      	CBI  0x12,7
00154a c001      	RJMP _0x2A5
                 _0x2A4:
00154b 9a97      	SBI  0x12,7
                 _0x2A5:
                 ;                    break;
00154c c01d      	RJMP _0x29F
                 ;                    case 3:
                 _0x2A3:
00154d 30e3      	CPI  R30,LOW(0x3)
00154e e0a0      	LDI  R26,HIGH(0x3)
00154f 07fa      	CPC  R31,R26
001550 f431      	BRNE _0x2A6
                 ;                        relay_3 = !relay_3;
001551 9baf      	SBIS 0x15,7
001552 c002      	RJMP _0x2A7
001553 98af      	CBI  0x15,7
001554 c001      	RJMP _0x2A8
                 _0x2A7:
001555 9aaf      	SBI  0x15,7
                 _0x2A8:
                 ;                    break;
001556 c013      	RJMP _0x29F
                 ;                    case 4:
                 _0x2A6:
001557 30e4      	CPI  R30,LOW(0x4)
001558 e0a0      	LDI  R26,HIGH(0x4)
001559 07fa      	CPC  R31,R26
00155a f431      	BRNE _0x2A9
                 ;                        relay_4 = !relay_4;
00155b 9bdf      	SBIS 0x1B,7
00155c c002      	RJMP _0x2AA
00155d 98df      	CBI  0x1B,7
00155e c001      	RJMP _0x2AB
                 _0x2AA:
00155f 9adf      	SBI  0x1B,7
                 _0x2AB:
                 ;                    break;
001560 c009      	RJMP _0x29F
                 ;                    case 5:
                 _0x2A9:
001561 30e5      	CPI  R30,LOW(0x5)
001562 e0a0      	LDI  R26,HIGH(0x5)
001563 07fa      	CPC  R31,R26
001564 f429      	BRNE _0x29F
                 ;                        relay_5 = !relay_5;
001565 9bda      	SBIS 0x1B,2
001566 c002      	RJMP _0x2AD
001567 98da      	CBI  0x1B,2
001568 c001      	RJMP _0x2AE
                 _0x2AD:
001569 9ada      	SBI  0x1B,2
                 _0x2AE:
                 ;                    break;
                 ;                }
                 _0x29F:
                 ;                node[i].status = !node[i].status;
                +
00156a e2aa     +LDI R26 , 42
00156b 9fa2     +MUL R26 , R18
00156c 01f0     +MOVW R30 , R0
00156d 9fa3     +MUL R26 , R19
00156e 0df0     +ADD R31 , R0
                 	__MULBNWRU 18,19,42
00156f 50e0      	SUBI R30,LOW(-_node)
001570 40f0      	SBCI R31,HIGH(-_node)
001571 940e 1f74 	CALL SUBOPT_0x3B
                 ;            }
                 ;        }
                 _0x29C:
                +
001573 5f2f     +SUBI R18 , LOW ( - 1 )
001574 4f3f     +SBCI R19 , HIGH ( - 1 )
                 	__ADDWRN 18,19,1
001575 cfb4      	RJMP _0x29A
                 _0x29B:
                 ;    }
                 ;
                 ;    // if (milisec % 60000 == 0) { //60 secs
                 ;    //     for (i = 1; i <= 5; i++) {
                 ;    //         node[i].alarm_time_m--;
                 ;    //         if (node[i].alarm_time_m == 0) {
                 ;    //             switch (i) {
                 ;    //                 case 1:
                 ;    //                     relay_1 = !relay_1;
                 ;    //                 break;
                 ;    //                 case 2:
                 ;    //                     relay_2 = !relay_2;
                 ;    //                 break;
                 ;    //                 case 3:
                 ;    //                     relay_3 = !relay_3;
                 ;    //                 break;
                 ;    //                 case 4:
                 ;    //                     relay_4 = !relay_4;
                 ;    //                 break;
                 ;    //                 case 5:
                 ;    //                     relay_5 = !relay_5;
                 ;    //                 break;
                 ;    //             }
                 ;    //             node[i].status = !node[i].status;
                 ;    //         }
                 ;    //     }
                 ;
                 ;    // }
                 ;
                 ;    if (is_show_clock) {
                 _0x298:
001576 2044      	TST  R4
001577 f0b9      	BREQ _0x2AF
                 ;        rtc_get_time(&hour, &minute, &second);
001578 940e 1e1f 	CALL SUBOPT_0xE
                 ;        if (second != prev_sec) {
00157a 91a0 0bd9 	LDS  R26,_second
00157c 171a      	CP   R17,R26
00157d f011      	BREQ _0x2B0
                 ;            gui_print_time();
00157e 940e 0a7d 	CALL _gui_print_time
                 ;            // lam cai nay hoi ngu, nhung vi bo dem cua rtc va bo dem cua timer interrupt hoi lech nhau mot chut
                 ;            // nen neu dung interrupt de print time cua rtc thi sau mot khoang thoi gian (vai chuc giay) se bi lech 1 gi ...
                 ;            // (vi du tren dong ho se dem 1, 2, 3, 5, mat so 4 vi bi lech)
                 ;            // viec dem lech nay khong anh huong toi cac cai khac, chi la hien thi thoi, nhung kho chiu =))
                 ;        }
                 ;        prev_sec = second;
                 _0x2B0:
001580 9110 0bd9 	LDS  R17,_second
                 ;        if (milisec % 500 == 0) {
001582 940e 1ef8 	CALL SUBOPT_0x29
                +
001584 efe4     +LDI R30 , LOW ( 0x1F4 )
001585 e0f1     +LDI R31 , HIGH ( 0x1F4 )
001586 e060     +LDI R22 , BYTE3 ( 0x1F4 )
001587 e070     +LDI R23 , BYTE4 ( 0x1F4 )
                 	__GETD1N 0x1F4
001588 940e 2221 	CALL __MODD21U
00158a 940e 2268 	CALL __CPD10
00158c f411      	BRNE _0x2B1
                 ;            gui_colon_blink();
00158d 940e 0ae8 	CALL _gui_colon_blink
                 ;        }
                 ;    }
                 _0x2B1:
                 ;
                 ;    for (i = 1; i <= 5; i++) {
                 _0x2AF:
                +
00158f e021     +LDI R18 , LOW ( 1 )
001590 e030     +LDI R19 , HIGH ( 1 )
                 	__GETWRN 18,19,1
                 _0x2B3:
                +
001591 3026     +CPI R18 , LOW ( 6 )
001592 e0e0     +LDI R30 , HIGH ( 6 )
001593 073e     +CPC R19 , R30
                 	__CPWRN 18,19,6
001594 f00c      	BRLT PC+2
001595 c040      	RJMP _0x2B4
                 ;        if ((node[i].active_hour[hour] == true) && (minute == 0)){
                +
001596 e2aa     +LDI R26 , 42
001597 9fa2     +MUL R26 , R18
001598 01f0     +MOVW R30 , R0
001599 9fa3     +MUL R26 , R19
00159a 0df0     +ADD R31 , R0
                 	__MULBNWRU 18,19,42
                +
00159b 5fef     +SUBI R30 , LOW ( - _node - ( 1 ) )
00159c 4fff     +SBCI R31 , HIGH ( - _node - ( 1 ) )
                 	__ADDW1MN _node,1
00159d 01df      	MOVW R26,R30
00159e 91e0 0bd7 	LDS  R30,_hour
0015a0 e0f0      	LDI  R31,0
0015a1 0fae      	ADD  R26,R30
0015a2 1fbf      	ADC  R27,R31
0015a3 940e 2243 	CALL __EEPROMRDB
0015a5 30e1      	CPI  R30,LOW(0x1)
0015a6 f421      	BRNE _0x2B6
0015a7 91a0 0bd8 	LDS  R26,_minute
0015a9 30a0      	CPI  R26,LOW(0x0)
0015aa f009      	BREQ _0x2B7
                 _0x2B6:
0015ab c027      	RJMP _0x2B5
                 _0x2B7:
                 ;    		switch (i) {
0015ac 01f9      	MOVW R30,R18
                 ;				case 1:
0015ad 30e1      	CPI  R30,LOW(0x1)
0015ae e0a0      	LDI  R26,HIGH(0x1)
0015af 07fa      	CPC  R31,R26
0015b0 f419      	BRNE _0x2BB
                 ;		            relay_1                 =   ON;
0015b1 940e 1ea9 	CALL SUBOPT_0x21
                 ;		            node[1].status          =   ON;
                 ;		            node[1].alarm_time_s    =   1 * MIN_TO_SEC; //doi phut ra giay
0015b3 c01b      	RJMP _0x2E4
                 ;	        	break;
                 ;		        case 2:
                 _0x2BB:
0015b4 30e2      	CPI  R30,LOW(0x2)
0015b5 e0a0      	LDI  R26,HIGH(0x2)
0015b6 07fa      	CPC  R31,R26
0015b7 f419      	BRNE _0x2BE
                 ;		            relay_2                 =   ON;
0015b8 940e 1eb2 	CALL SUBOPT_0x22
                 ;		            node[2].status          =   ON;
                 ;		            node[2].alarm_time_s    =   1 * MIN_TO_SEC;
0015ba c014      	RJMP _0x2E4
                 ;		        break;
                 ;		        case 3:
                 _0x2BE:
0015bb 30e3      	CPI  R30,LOW(0x3)
0015bc e0a0      	LDI  R26,HIGH(0x3)
0015bd 07fa      	CPC  R31,R26
0015be f419      	BRNE _0x2C1
                 ;		            relay_3                 =   ON;
0015bf 940e 1ebb 	CALL SUBOPT_0x23
                 ;		            node[3].status          =   ON;
                 ;		            node[3].alarm_time_s    =   1 * MIN_TO_SEC;
0015c1 c00d      	RJMP _0x2E4
                 ;		        break;
                 ;		        case 4:
                 _0x2C1:
0015c2 30e4      	CPI  R30,LOW(0x4)
0015c3 e0a0      	LDI  R26,HIGH(0x4)
0015c4 07fa      	CPC  R31,R26
0015c5 f419      	BRNE _0x2C4
                 ;		            relay_4                 =   ON;
0015c6 940e 1ec4 	CALL SUBOPT_0x24
                 ;		            node[4].status          =   ON;
                 ;		            node[4].alarm_time_s    =   1 * MIN_TO_SEC;
0015c8 c006      	RJMP _0x2E4
                 ;		        break;
                 ;		        case 5:
                 _0x2C4:
0015c9 30e5      	CPI  R30,LOW(0x5)
0015ca e0a0      	LDI  R26,HIGH(0x5)
0015cb 07fa      	CPC  R31,R26
0015cc f431      	BRNE _0x2BA
                 ;		            relay_5                 =   ON;
0015cd 940e 1ecd 	CALL SUBOPT_0x25
                 ;		            node[5].status          =   ON;
                 ;		            node[5].alarm_time_s    =   1 * MIN_TO_SEC;
                 _0x2E4:
0015cf e3ec      	LDI  R30,LOW(60)
0015d0 e0f0      	LDI  R31,HIGH(60)
0015d1 940e 224f 	CALL __EEPROMWRW
                 ;		        break;
                 ;			}
                 _0x2BA:
                 ;    	}
                 ;    }
                 _0x2B5:
                +
0015d3 5f2f     +SUBI R18 , LOW ( - 1 )
0015d4 4f3f     +SBCI R19 , HIGH ( - 1 )
                 	__ADDWRN 18,19,1
0015d5 cfbb      	RJMP _0x2B3
                 _0x2B4:
                 ;
                 ;}
0015d6 940e 227e 	CALL __LOADLOCR4
0015d8 9624      	ADIW R28,4
0015d9 940e 1eea 	CALL SUBOPT_0x28
0015db 9518      	RETI
                 ; .FEND
                 ;
                 ;void main(void) {
                 ; 0000 0025 void main(void) {
                 _main:
                 ; .FSTART _main
                 ; 0000 0026     init_system();
0015dc dec5      	RCALL _init_system
                 ; 0000 0027     glcd_clear();
0015dd d18c      	RCALL _glcd_clear
                 ; 0000 0028     milisec = 0;
0015de 940e 205e 	CALL SUBOPT_0x55
                 ; 0000 0029     gui_init();
0015e0 940e 0a34 	CALL _gui_init
                 ; 0000 002A     is_show_clock = true;
0015e2 e0e1      	LDI  R30,LOW(1)
0015e3 2e4e      	MOV  R4,R30
                 ; 0000 002B 
                 ; 0000 002C     init_sms();
0015e4 940e 0db6 	CALL _init_sms
                 ; 0000 002D 	init_gprs();
0015e6 940e 0d9f 	CALL _init_gprs
                 ; 0000 002E 
                 ; 0000 002F     Address1 = 0xA1;
0015e8 eae1      	LDI  R30,LOW(161)
0015e9 93e0 0bda 	STS  _Address1,R30
                 ; 0000 0030     Address2 = 0xA2;
0015eb eae2      	LDI  R30,LOW(162)
0015ec 93e0 0bdb 	STS  _Address2,R30
                 ; 0000 0031     Address3 = 0xA3;
0015ee eae3      	LDI  R30,LOW(163)
0015ef 93e0 0bdc 	STS  _Address3,R30
                 ; 0000 0032     Address4 = 0xA4;
0015f1 eae4      	LDI  R30,LOW(164)
0015f2 93e0 0bdd 	STS  _Address4,R30
                 ; 0000 0033 
                 ; 0000 0034     Common_Config();
0015f4 940e 09ac 	CALL _Common_Config
                 ; 0000 0035     RX_Mode();
0015f6 940e 09d1 	CALL _RX_Mode
                 ; 0000 0036     RX_Config_4();
0015f8 940e 09db 	CALL _RX_Config_4
                 ; 0000 0037 
                 ; 0000 0038     while (1) {
                 _0x2CA:
                 ; 0000 0039         if (IRQ == 0) {
0015fa 99b7      	SBIC 0x16,7
0015fb c009      	RJMP _0x2CD
                 ; 0000 003A 			RX_Read();
0015fc 940e 0a00 	CALL _RX_Read
                 ; 0000 003B 			node_info_examine(station_receive);
0015fe edee      	LDI  R30,LOW(_station_receive)
0015ff e0fb      	LDI  R31,HIGH(_station_receive)
001600 e0ac      	LDI  R26,12
001601 940e 2237 	CALL __PUTPARL
001603 940e 0bf2 	CALL _node_info_examine
                 ; 0000 003C            // gprs_send();
                 ; 0000 003D 		}
                 ; 0000 003E         if(btn_menu) {
                 _0x2CD:
001605 99cd      	SBIC 0x19,5
001606 c005      	RJMP _0x2CE
                 ; 0000 003F             while(btn_menu);
                 _0x2CF:
001607 9bcd      	SBIS 0x19,5
001608 cffe      	RJMP _0x2CF
                 ; 0000 0040             is_show_clock = false;
001609 2444      	CLR  R4
                 ; 0000 0041             gui_main_menu();
00160a 940e 0b60 	CALL _gui_main_menu
                 ; 0000 0042         }
                 ; 0000 0043         if(btn_back) {
                 _0x2CE:
00160c 99cc      	SBIC 0x19,4
00160d c004      	RJMP _0x2D2
                 ; 0000 0044          //  gprs_send();
                 ; 0000 0045          sms_send("test");
                +
00160e efa8     +LDI R26 , LOW ( _0x2D3 + ( 0 ) )
00160f e0b9     +LDI R27 , HIGH ( _0x2D3 + ( 0 ) )
                 	__POINTW2MN _0x2D3,0
001610 940e 0e6e 	CALL _sms_send
                 ; 0000 0046         }
                 ; 0000 0047         if(btn_enter) {
                 _0x2D2:
001612 99cb      	SBIC 0x19,3
001613 c003      	RJMP _0x2D4
                 ; 0000 0048             while(btn_enter);
                 _0x2D5:
001614 9bcb      	SBIS 0x19,3
001615 cffe      	RJMP _0x2D5
                 ; 0000 0049             call();
001616 da1d      	RCALL _call
                 ; 0000 004A         }
                 ; 0000 004B       // gprs_send();
                 ; 0000 004C        // delay_ms(1000);
                 ; 0000 004D      //   gprs_read();
                 ; 0000 004E     }
                 _0x2D4:
001617 cfe2      	RJMP _0x2CA
                 ; 0000 004F }
                 _0x2D8:
001618 cfff      	RJMP _0x2D8
                 ; .FEND
                 
                 	.DSEG
                 _0x2D3:
0009f8           	.BYTE 0x5
                 ;
                 ;
                 ;
                 
                 	.CSEG
                 _rtc_init:
                 ; .FSTART _rtc_init
001619 93aa      	ST   -Y,R26
00161a 81ea      	LDD  R30,Y+2
00161b 70e3      	ANDI R30,LOW(0x3)
00161c 83ea      	STD  Y+2,R30
00161d 81e9      	LDD  R30,Y+1
00161e 30e0      	CPI  R30,0
00161f f019      	BREQ _0x2000003
001620 81ea      	LDD  R30,Y+2
001621 61e0      	ORI  R30,0x10
001622 83ea      	STD  Y+2,R30
                 _0x2000003:
001623 81e8      	LD   R30,Y
001624 30e0      	CPI  R30,0
001625 f019      	BREQ _0x2000004
001626 81ea      	LDD  R30,Y+2
001627 68e0      	ORI  R30,0x80
001628 83ea      	STD  Y+2,R30
                 _0x2000004:
001629 940e 2073 	CALL SUBOPT_0x57
00162b e0a7      	LDI  R26,LOW(7)
00162c 940e 2187 	CALL _i2c_write
00162e 81aa      	LDD  R26,Y+2
00162f 940e 2078 	CALL SUBOPT_0x58
001631 c088      	RJMP _0x216000C
                 ; .FEND
                 _rtc_get_time:
                 ; .FSTART _rtc_get_time
001632 93ba      	ST   -Y,R27
001633 93aa      	ST   -Y,R26
001634 940e 2073 	CALL SUBOPT_0x57
001636 e0a0      	LDI  R26,LOW(0)
001637 940e 2078 	CALL SUBOPT_0x58
001639 940e 207c 	CALL SUBOPT_0x59
00163b 940e 2084 	CALL SUBOPT_0x5A
00163d 940e 208b 	CALL SUBOPT_0x5B
00163f 940e 2091 	CALL SUBOPT_0x5C
001641 2fae      	MOV  R26,R30
001642 940e 1d0f 	CALL _bcd2bin
001644 81ac      	LDD  R26,Y+4
001645 81bd      	LDD  R27,Y+4+1
001646 93ec      	ST   X,R30
001647 940e 2162 	CALL _i2c_stop
001649 c19b      	RJMP _0x2160009
                 ; .FEND
                 _rtc_set_time:
                 ; .FSTART _rtc_set_time
00164a 93aa      	ST   -Y,R26
00164b 940e 2073 	CALL SUBOPT_0x57
00164d e0a0      	LDI  R26,LOW(0)
00164e 940e 2097 	CALL SUBOPT_0x5D
001650 940e 209e 	CALL SUBOPT_0x5E
001652 940e 20a5 	CALL SUBOPT_0x5F
001654 940e 2078 	CALL SUBOPT_0x58
001656 c063      	RJMP _0x216000C
                 ; .FEND
                 _rtc_get_date:
                 ; .FSTART _rtc_get_date
001657 93ba      	ST   -Y,R27
001658 93aa      	ST   -Y,R26
001659 940e 2073 	CALL SUBOPT_0x57
00165b e0a3      	LDI  R26,LOW(3)
00165c 940e 2078 	CALL SUBOPT_0x58
00165e 940e 207c 	CALL SUBOPT_0x59
001660 81ae      	LDD  R26,Y+6
001661 81bf      	LDD  R27,Y+6+1
001662 93ec      	ST   X,R30
001663 940e 208b 	CALL SUBOPT_0x5B
001665 81ac      	LDD  R26,Y+4
001666 81bd      	LDD  R27,Y+4+1
001667 93ec      	ST   X,R30
001668 940e 208b 	CALL SUBOPT_0x5B
00166a 940e 2091 	CALL SUBOPT_0x5C
00166c 940e 2084 	CALL SUBOPT_0x5A
00166e 940e 2162 	CALL _i2c_stop
                 _0x216000E:
001670 9628      	ADIW R28,8
001671 9508      	RET
                 ; .FEND
                 _rtc_set_date:
                 ; .FSTART _rtc_set_date
001672 93aa      	ST   -Y,R26
001673 940e 2073 	CALL SUBOPT_0x57
001675 e0a3      	LDI  R26,LOW(3)
001676 940e 2187 	CALL _i2c_write
001678 81ab      	LDD  R26,Y+3
001679 940e 20a5 	CALL SUBOPT_0x5F
00167b 940e 209e 	CALL SUBOPT_0x5E
00167d 940e 2097 	CALL SUBOPT_0x5D
00167f 940e 2078 	CALL SUBOPT_0x58
                 _0x216000D:
001681 9624      	ADIW R28,4
001682 9508      	RET
                 ; .FEND
                 	#ifndef __SLEEP_DEFINED__
                 	#endif
                 
                 	.CSEG
                 _pcd8544_delay_G101:
                 ; .FSTART _pcd8544_delay_G101
001683 9508      	RET
                 ; .FEND
                 _pcd8544_wrbus_G101:
                 ; .FSTART _pcd8544_wrbus_G101
001684 93aa      	ST   -Y,R26
001685 931a      	ST   -Y,R17
001686 98aa      	CBI  0x15,2
001687 e018      	LDI  R17,LOW(8)
                 _0x2020004:
001688 dffa      	RCALL _pcd8544_delay_G101
001689 81e9      	LDD  R30,Y+1
00168a 78e0      	ANDI R30,LOW(0x80)
00168b f011      	BREQ _0x2020006
00168c 9aac      	SBI  0x15,4
00168d c001      	RJMP _0x2020007
                 _0x2020006:
00168e 98ac      	CBI  0x15,4
                 _0x2020007:
00168f 81e9      	LDD  R30,Y+1
001690 0fee      	LSL  R30
001691 83e9      	STD  Y+1,R30
001692 dff0      	RCALL _pcd8544_delay_G101
001693 9aad      	SBI  0x15,5
001694 dfee      	RCALL _pcd8544_delay_G101
001695 98ad      	CBI  0x15,5
001696 5011      	SUBI R17,LOW(1)
001697 f781      	BRNE _0x2020004
001698 9aaa      	SBI  0x15,2
001699 8118      	LDD  R17,Y+0
00169a c03a      	RJMP _0x216000B
                 ; .FEND
                 _pcd8544_wrcmd:
                 ; .FSTART _pcd8544_wrcmd
00169b 93aa      	ST   -Y,R26
00169c 98ab      	CBI  0x15,3
00169d 81a8      	LD   R26,Y
00169e dfe5      	RCALL _pcd8544_wrbus_G101
00169f c0c8      	RJMP _0x216000A
                 ; .FEND
                 _pcd8544_wrdata_G101:
                 ; .FSTART _pcd8544_wrdata_G101
0016a0 93aa      	ST   -Y,R26
0016a1 9aab      	SBI  0x15,3
0016a2 81a8      	LD   R26,Y
0016a3 dfe0      	RCALL _pcd8544_wrbus_G101
0016a4 c0c3      	RJMP _0x216000A
                 ; .FEND
                 _pcd8544_setaddr_G101:
                 ; .FSTART _pcd8544_setaddr_G101
0016a5 93aa      	ST   -Y,R26
0016a6 931a      	ST   -Y,R17
0016a7 81e9      	LDD  R30,Y+1
0016a8 95e6      	LSR  R30
0016a9 95e6      	LSR  R30
0016aa 95e6      	LSR  R30
0016ab 2f1e      	MOV  R17,R30
0016ac e5e4      	LDI  R30,LOW(84)
0016ad 9fe1      	MUL  R30,R17
0016ae 01f0      	MOVW R30,R0
0016af 01df      	MOVW R26,R30
0016b0 81ea      	LDD  R30,Y+2
0016b1 e0f0      	LDI  R31,0
0016b2 0fea      	ADD  R30,R26
0016b3 1ffb      	ADC  R31,R27
0016b4 93e0 0e86 	STS  _gfx_addr_G101,R30
0016b6 93f0 0e87 	STS  _gfx_addr_G101+1,R31
0016b8 2fe1      	MOV  R30,R17
0016b9 8118      	LDD  R17,Y+0
                 _0x216000C:
0016ba 9623      	ADIW R28,3
0016bb 9508      	RET
                 ; .FEND
                 _pcd8544_gotoxy:
                 ; .FSTART _pcd8544_gotoxy
0016bc 93aa      	ST   -Y,R26
0016bd 81e9      	LDD  R30,Y+1
0016be 68e0      	ORI  R30,0x80
0016bf 2fae      	MOV  R26,R30
0016c0 dfda      	RCALL _pcd8544_wrcmd
0016c1 81e9      	LDD  R30,Y+1
0016c2 93ea      	ST   -Y,R30
0016c3 81a9      	LDD  R26,Y+1
0016c4 dfe0      	RCALL _pcd8544_setaddr_G101
0016c5 64e0      	ORI  R30,0x40
0016c6 2fae      	MOV  R26,R30
0016c7 dfd3      	RCALL _pcd8544_wrcmd
0016c8 c00c      	RJMP _0x216000B
                 ; .FEND
                 _pcd8544_rdbyte:
                 ; .FSTART _pcd8544_rdbyte
0016c9 93aa      	ST   -Y,R26
0016ca 81e9      	LDD  R30,Y+1
0016cb 93ea      	ST   -Y,R30
0016cc 81a9      	LDD  R26,Y+1
0016cd dfee      	RCALL _pcd8544_gotoxy
0016ce 91e0 0e86 	LDS  R30,_gfx_addr_G101
0016d0 91f0 0e87 	LDS  R31,_gfx_addr_G101+1
0016d2 57e8      	SUBI R30,LOW(-_gfx_buffer_G101)
0016d3 4ff1      	SBCI R31,HIGH(-_gfx_buffer_G101)
0016d4 81e0      	LD   R30,Z
                 _0x216000B:
0016d5 9622      	ADIW R28,2
0016d6 9508      	RET
                 ; .FEND
                 _pcd8544_wrbyte:
                 ; .FSTART _pcd8544_wrbyte
0016d7 93aa      	ST   -Y,R26
0016d8 940e 20ac 	CALL SUBOPT_0x60
0016da 9731      	SBIW R30,1
0016db 57e8      	SUBI R30,LOW(-_gfx_buffer_G101)
0016dc 4ff1      	SBCI R31,HIGH(-_gfx_buffer_G101)
0016dd 81a8      	LD   R26,Y
0016de 83a0      	STD  Z+0,R26
0016df dfc0      	RCALL _pcd8544_wrdata_G101
0016e0 c087      	RJMP _0x216000A
                 ; .FEND
                 _glcd_init:
                 ; .FSTART _glcd_init
0016e1 93ba      	ST   -Y,R27
0016e2 93aa      	ST   -Y,R26
0016e3 940e 2277 	CALL __SAVELOCR4
0016e5 9aa2      	SBI  0x14,2
0016e6 9aaa      	SBI  0x15,2
0016e7 9aa5      	SBI  0x14,5
0016e8 98ad      	CBI  0x15,5
0016e9 9aa4      	SBI  0x14,4
0016ea 9aa3      	SBI  0x14,3
0016eb 9aa1      	SBI  0x14,1
0016ec 98a9      	CBI  0x15,1
0016ed e0aa      	LDI  R26,LOW(10)
0016ee e0b0      	LDI  R27,0
0016ef 940e 219f 	CALL _delay_ms
0016f1 9aa9      	SBI  0x15,1
0016f2 81ec      	LDD  R30,Y+4
0016f3 81fd      	LDD  R31,Y+4+1
0016f4 9730      	SBIW R30,0
0016f5 f121      	BREQ _0x2020008
0016f6 81e6      	LDD  R30,Z+6
0016f7 70e3      	ANDI R30,LOW(0x3)
0016f8 2f1e      	MOV  R17,R30
0016f9 81ec      	LDD  R30,Y+4
0016fa 81fd      	LDD  R31,Y+4+1
0016fb 81e6      	LDD  R30,Z+6
0016fc 95e6      	LSR  R30
0016fd 95e6      	LSR  R30
0016fe 70e7      	ANDI R30,LOW(0x7)
0016ff 2f0e      	MOV  R16,R30
001700 81ec      	LDD  R30,Y+4
001701 81fd      	LDD  R31,Y+4+1
001702 81e7      	LDD  R30,Z+7
001703 77ef      	ANDI R30,0x7F
001704 2f3e      	MOV  R19,R30
001705 81ac      	LDD  R26,Y+4
001706 81bd      	LDD  R27,Y+4+1
001707 940e 2233 	CALL __GETW1P
001709 940e 1e1a 	CALL SUBOPT_0xD
00170b 81ac      	LDD  R26,Y+4
00170c 81bd      	LDD  R27,Y+4+1
00170d 9612      	ADIW R26,2
00170e 940e 2233 	CALL __GETW1P
                +
001710 93e0 0a16+STS _glcd_state + ( 25 ) , R30
001712 93f0 0a17+STS _glcd_state + ( 25 ) + 1 , R31
                 	__PUTW1MN _glcd_state,25
001714 81ac      	LDD  R26,Y+4
001715 81bd      	LDD  R27,Y+4+1
001716 9614      	ADIW R26,4
001717 940e 2233 	CALL __GETW1P
001719 c00d      	RJMP _0x20200A0
                 _0x2020008:
00171a e010      	LDI  R17,LOW(0)
00171b e003      	LDI  R16,LOW(3)
00171c e332      	LDI  R19,LOW(50)
00171d e0e0      	LDI  R30,LOW(0)
00171e e0f0      	LDI  R31,HIGH(0)
00171f 940e 1e1a 	CALL SUBOPT_0xD
001721 e0e0      	LDI  R30,LOW(0)
001722 e0f0      	LDI  R31,HIGH(0)
                +
001723 93e0 0a16+STS _glcd_state + ( 25 ) , R30
001725 93f0 0a17+STS _glcd_state + ( 25 ) + 1 , R31
                 	__PUTW1MN _glcd_state,25
                 _0x20200A0:
                +
001727 93e0 0a18+STS _glcd_state + ( 27 ) , R30
001729 93f0 0a19+STS _glcd_state + ( 27 ) + 1 , R31
                 	__PUTW1MN _glcd_state,27
00172b e2a1      	LDI  R26,LOW(33)
00172c df6e      	RCALL _pcd8544_wrcmd
00172d 2fe1      	MOV  R30,R17
00172e 60e4      	ORI  R30,4
00172f 2fae      	MOV  R26,R30
001730 df6a      	RCALL _pcd8544_wrcmd
001731 2fe0      	MOV  R30,R16
001732 61e0      	ORI  R30,0x10
001733 2fae      	MOV  R26,R30
001734 df66      	RCALL _pcd8544_wrcmd
001735 2fe3      	MOV  R30,R19
001736 68e0      	ORI  R30,0x80
001737 2fae      	MOV  R26,R30
001738 df62      	RCALL _pcd8544_wrcmd
001739 e2a0      	LDI  R26,LOW(32)
00173a df60      	RCALL _pcd8544_wrcmd
00173b e0a1      	LDI  R26,LOW(1)
00173c d022      	RCALL _glcd_display
00173d e0e1      	LDI  R30,LOW(1)
00173e 93e0 09fd 	STS  _glcd_state,R30
001740 e0e0      	LDI  R30,LOW(0)
                +
001741 93e0 09fe+STS _glcd_state + ( 1 ) , R30
                 	__PUTB1MN _glcd_state,1
001743 e0e1      	LDI  R30,LOW(1)
                +
001744 93e0 0a03+STS _glcd_state + ( 6 ) , R30
                 	__PUTB1MN _glcd_state,6
                +
001746 93e0 0a04+STS _glcd_state + ( 7 ) , R30
                 	__PUTB1MN _glcd_state,7
                +
001748 93e0 0a05+STS _glcd_state + ( 8 ) , R30
                 	__PUTB1MN _glcd_state,8
00174a efef      	LDI  R30,LOW(255)
                +
00174b 93e0 0a06+STS _glcd_state + ( 9 ) , R30
                 	__PUTB1MN _glcd_state,9
00174d e0e1      	LDI  R30,LOW(1)
                +
00174e 93e0 0a0d+STS _glcd_state + ( 16 ) , R30
                 	__PUTB1MN _glcd_state,16
                +
001750 e0ee     +LDI R30 , LOW ( _glcd_state + ( 17 ) )
001751 e0fa     +LDI R31 , HIGH ( _glcd_state + ( 17 ) )
                 	__POINTW1MN _glcd_state,17
001752 93fa      	ST   -Y,R31
001753 93ea      	ST   -Y,R30
001754 efef      	LDI  R30,LOW(255)
001755 93ea      	ST   -Y,R30
001756 e0a8      	LDI  R26,LOW(8)
001757 e0b0      	LDI  R27,0
001758 940e 1c93 	CALL _memset
00175a d00f      	RCALL _glcd_clear
00175b e0e1      	LDI  R30,LOW(1)
00175c 940e 227e 	CALL __LOADLOCR4
00175e c086      	RJMP _0x2160009
                 ; .FEND
                 _glcd_display:
                 ; .FSTART _glcd_display
00175f 93aa      	ST   -Y,R26
001760 81e8      	LD   R30,Y
001761 30e0      	CPI  R30,0
001762 f011      	BREQ _0x202000A
001763 e0ec      	LDI  R30,LOW(12)
001764 c001      	RJMP _0x202000B
                 _0x202000A:
001765 e0e8      	LDI  R30,LOW(8)
                 _0x202000B:
001766 2fae      	MOV  R26,R30
001767 df33      	RCALL _pcd8544_wrcmd
                 _0x216000A:
001768 9621      	ADIW R28,1
001769 9508      	RET
                 ; .FEND
                 _glcd_clear:
                 ; .FSTART _glcd_clear
00176a 940e 2277 	CALL __SAVELOCR4
00176c e030      	LDI  R19,0
                +
00176d 91e0 09fe+LDS R30 , _glcd_state + ( 1 )
                 	__GETB1MN _glcd_state,1
00176f 30e0      	CPI  R30,0
001770 f009      	BREQ _0x202000D
001771 ef3f      	LDI  R19,LOW(255)
                 _0x202000D:
001772 e0e0      	LDI  R30,LOW(0)
001773 93ea      	ST   -Y,R30
001774 e0a0      	LDI  R26,LOW(0)
001775 df46      	RCALL _pcd8544_gotoxy
                +
001776 ef08     +LDI R16 , LOW ( 504 )
001777 e011     +LDI R17 , HIGH ( 504 )
                 	__GETWRN 16,17,504
                 _0x202000E:
001778 01f8      	MOVW R30,R16
                +
001779 5001     +SUBI R16 , LOW ( 1 )
00177a 4010     +SBCI R17 , HIGH ( 1 )
                 	__SUBWRN 16,17,1
00177b 9730      	SBIW R30,0
00177c f019      	BREQ _0x2020010
00177d 2fa3      	MOV  R26,R19
00177e df58      	RCALL _pcd8544_wrbyte
00177f cff8      	RJMP _0x202000E
                 _0x2020010:
001780 e0e0      	LDI  R30,LOW(0)
001781 93ea      	ST   -Y,R30
001782 e0a0      	LDI  R26,LOW(0)
001783 d3ad      	RCALL _glcd_moveto
001784 940e 227e 	CALL __LOADLOCR4
001786 940c 1d95 	JMP  _0x2160001
                 ; .FEND
                 _glcd_putpixel:
                 ; .FSTART _glcd_putpixel
001788 93aa      	ST   -Y,R26
001789 931a      	ST   -Y,R17
00178a 930a      	ST   -Y,R16
00178b 81ac      	LDD  R26,Y+4
00178c 35a4      	CPI  R26,LOW(0x54)
00178d f418      	BRSH _0x2020012
00178e 81ab      	LDD  R26,Y+3
00178f 33a0      	CPI  R26,LOW(0x30)
001790 f020      	BRLO _0x2020011
                 _0x2020012:
001791 8119      	LDD  R17,Y+1
001792 8108      	LDD  R16,Y+0
001793 940c 1ca1 	JMP  _0x2160004
                 _0x2020011:
001795 81ec      	LDD  R30,Y+4
001796 93ea      	ST   -Y,R30
001797 81ac      	LDD  R26,Y+4
001798 df30      	RCALL _pcd8544_rdbyte
001799 2f1e      	MOV  R17,R30
00179a 81eb      	LDD  R30,Y+3
00179b 70e7      	ANDI R30,LOW(0x7)
00179c e0a1      	LDI  R26,LOW(1)
00179d 940e 21b2 	CALL __LSLB12
00179f 2f0e      	MOV  R16,R30
0017a0 81ea      	LDD  R30,Y+2
0017a1 30e0      	CPI  R30,0
0017a2 f011      	BREQ _0x2020014
0017a3 2b10      	OR   R17,R16
0017a4 c003      	RJMP _0x2020015
                 _0x2020014:
0017a5 2fe0      	MOV  R30,R16
0017a6 95e0      	COM  R30
0017a7 231e      	AND  R17,R30
                 _0x2020015:
0017a8 2fa1      	MOV  R26,R17
0017a9 df2d      	RCALL _pcd8544_wrbyte
0017aa 8119      	LDD  R17,Y+1
0017ab 8108      	LDD  R16,Y+0
0017ac 940c 1ca1 	JMP  _0x2160004
                 ; .FEND
                 _pcd8544_wrmasked_G101:
                 ; .FSTART _pcd8544_wrmasked_G101
0017ae 93aa      	ST   -Y,R26
0017af 931a      	ST   -Y,R17
0017b0 81ed      	LDD  R30,Y+5
0017b1 93ea      	ST   -Y,R30
0017b2 81ad      	LDD  R26,Y+5
0017b3 df15      	RCALL _pcd8544_rdbyte
0017b4 2f1e      	MOV  R17,R30
0017b5 81e9      	LDD  R30,Y+1
0017b6 30e7      	CPI  R30,LOW(0x7)
0017b7 f011      	BREQ _0x2020020
0017b8 30e8      	CPI  R30,LOW(0x8)
0017b9 f439      	BRNE _0x2020021
                 _0x2020020:
0017ba 81eb      	LDD  R30,Y+3
0017bb 93ea      	ST   -Y,R30
0017bc 81aa      	LDD  R26,Y+2
0017bd 940e 1d31 	CALL _glcd_mappixcolor1bit
0017bf 83eb      	STD  Y+3,R30
0017c0 c008      	RJMP _0x2020022
                 _0x2020021:
0017c1 30e3      	CPI  R30,LOW(0x3)
0017c2 f421      	BRNE _0x2020024
0017c3 81eb      	LDD  R30,Y+3
0017c4 95e0      	COM  R30
0017c5 83eb      	STD  Y+3,R30
0017c6 c002      	RJMP _0x2020025
                 _0x2020024:
0017c7 30e0      	CPI  R30,0
0017c8 f421      	BRNE _0x2020026
                 _0x2020025:
                 _0x2020022:
0017c9 81ea      	LDD  R30,Y+2
0017ca 95e0      	COM  R30
0017cb 231e      	AND  R17,R30
0017cc c002      	RJMP _0x2020027
                 _0x2020026:
0017cd 30e2      	CPI  R30,LOW(0x2)
0017ce f429      	BRNE _0x2020028
                 _0x2020027:
0017cf 81ea      	LDD  R30,Y+2
0017d0 81ab      	LDD  R26,Y+3
0017d1 23ea      	AND  R30,R26
0017d2 2b1e      	OR   R17,R30
0017d3 c00e      	RJMP _0x202001E
                 _0x2020028:
0017d4 30e1      	CPI  R30,LOW(0x1)
0017d5 f429      	BRNE _0x2020029
0017d6 81ea      	LDD  R30,Y+2
0017d7 81ab      	LDD  R26,Y+3
0017d8 23ea      	AND  R30,R26
0017d9 271e      	EOR  R17,R30
0017da c007      	RJMP _0x202001E
                 _0x2020029:
0017db 30e4      	CPI  R30,LOW(0x4)
0017dc f429      	BRNE _0x202001E
0017dd 81ea      	LDD  R30,Y+2
0017de 95e0      	COM  R30
0017df 81ab      	LDD  R26,Y+3
0017e0 2bea      	OR   R30,R26
0017e1 231e      	AND  R17,R30
                 _0x202001E:
0017e2 2fa1      	MOV  R26,R17
0017e3 def3      	RCALL _pcd8544_wrbyte
0017e4 8118      	LDD  R17,Y+0
                 _0x2160009:
0017e5 9626      	ADIW R28,6
0017e6 9508      	RET
                 ; .FEND
                 _glcd_block:
                 ; .FSTART _glcd_block
0017e7 93aa      	ST   -Y,R26
0017e8 9723      	SBIW R28,3
0017e9 940e 2275 	CALL __SAVELOCR6
0017eb 89a8      	LDD  R26,Y+16
0017ec 35a4      	CPI  R26,LOW(0x54)
0017ed f448      	BRSH _0x202002C
0017ee 85af      	LDD  R26,Y+15
0017ef 33a0      	CPI  R26,LOW(0x30)
0017f0 f430      	BRSH _0x202002C
0017f1 85ae      	LDD  R26,Y+14
0017f2 30a0      	CPI  R26,LOW(0x0)
0017f3 f019      	BREQ _0x202002C
0017f4 85ad      	LDD  R26,Y+13
0017f5 30a0      	CPI  R26,LOW(0x0)
0017f6 f409      	BRNE _0x202002B
                 _0x202002C:
0017f7 c1d5      	RJMP _0x2160008
                 _0x202002B:
0017f8 85ee      	LDD  R30,Y+14
0017f9 87e8      	STD  Y+8,R30
0017fa 89a8      	LDD  R26,Y+16
0017fb 27bb      	CLR  R27
0017fc 85ee      	LDD  R30,Y+14
0017fd e0f0      	LDI  R31,0
0017fe 0fae      	ADD  R26,R30
0017ff 1fbf      	ADC  R27,R31
001800 35a5      	CPI  R26,LOW(0x55)
001801 e0e0      	LDI  R30,HIGH(0x55)
001802 07be      	CPC  R27,R30
001803 f020      	BRLO _0x202002E
001804 89a8      	LDD  R26,Y+16
001805 e5e4      	LDI  R30,LOW(84)
001806 1bea      	SUB  R30,R26
001807 87ee      	STD  Y+14,R30
                 _0x202002E:
001808 852d      	LDD  R18,Y+13
001809 85af      	LDD  R26,Y+15
00180a 27bb      	CLR  R27
00180b 85ed      	LDD  R30,Y+13
00180c e0f0      	LDI  R31,0
00180d 0fae      	ADD  R26,R30
00180e 1fbf      	ADC  R27,R31
00180f 97d1      	SBIW R26,49
001810 f020      	BRLO _0x202002F
001811 85af      	LDD  R26,Y+15
001812 e3e0      	LDI  R30,LOW(48)
001813 1bea      	SUB  R30,R26
001814 87ed      	STD  Y+13,R30
                 _0x202002F:
001815 85a9      	LDD  R26,Y+9
001816 30a6      	CPI  R26,LOW(0x6)
001817 f009      	BREQ PC+2
001818 c05b      	RJMP _0x2020030
001819 85ec      	LDD  R30,Y+12
00181a 30e1      	CPI  R30,LOW(0x1)
00181b f409      	BRNE _0x2020034
00181c c1b0      	RJMP _0x2160008
                 _0x2020034:
00181d 30e3      	CPI  R30,LOW(0x3)
00181e f439      	BRNE _0x2020037
                +
00181f 91e0 0a18+LDS R30 , _glcd_state + ( 27 )
001821 91f0 0a19+LDS R31 , _glcd_state + ( 27 ) + 1
                 	__GETW1MN _glcd_state,27
001823 9730      	SBIW R30,0
001824 f409      	BRNE _0x2020036
001825 c1a7      	RJMP _0x2160008
                 _0x2020036:
                 _0x2020037:
001826 8508      	LDD  R16,Y+8
001827 85ed      	LDD  R30,Y+13
001828 95e6      	LSR  R30
001829 95e6      	LSR  R30
00182a 95e6      	LSR  R30
00182b 2f3e      	MOV  R19,R30
00182c 2fe2      	MOV  R30,R18
00182d 70e7      	ANDI R30,LOW(0x7)
00182e f419      	BRNE _0x2020039
00182f 85ad      	LDD  R26,Y+13
001830 172a      	CP   R18,R26
001831 f0e9      	BREQ _0x2020038
                 _0x2020039:
001832 2fa0      	MOV  R26,R16
001833 27bb      	CLR  R27
001834 2fe3      	MOV  R30,R19
001835 e0f0      	LDI  R31,0
001836 940e 21d1 	CALL __MULW12U
001838 85aa      	LDD  R26,Y+10
001839 85bb      	LDD  R27,Y+10+1
00183a 940e 20af 	CALL SUBOPT_0x61
00183c 9526      	LSR  R18
00183d 9526      	LSR  R18
00183e 9526      	LSR  R18
00183f 2f53      	MOV  R21,R19
                 _0x202003B:
001840 935f      	PUSH R21
001841 5f5f      	SUBI R21,-1
001842 2fe2      	MOV  R30,R18
001843 91af      	POP  R26
001844 17ea      	CP   R30,R26
001845 f048      	BRLO _0x202003D
001846 2f10      	MOV  R17,R16
                 _0x202003E:
001847 2fe1      	MOV  R30,R17
001848 5011      	SUBI R17,1
001849 30e0      	CPI  R30,0
00184a f019      	BREQ _0x2020040
00184b 940e 20b4 	CALL SUBOPT_0x62
00184d cff9      	RJMP _0x202003E
                 _0x2020040:
00184e cff1      	RJMP _0x202003B
                 _0x202003D:
                 _0x2020038:
00184f 85ae      	LDD  R26,Y+14
001850 170a      	CP   R16,R26
001851 f111      	BREQ _0x2020041
001852 85ee      	LDD  R30,Y+14
001853 85aa      	LDD  R26,Y+10
001854 85bb      	LDD  R27,Y+10+1
001855 e0f0      	LDI  R31,0
001856 940e 20af 	CALL SUBOPT_0x61
001858 85ed      	LDD  R30,Y+13
001859 70e7      	ANDI R30,LOW(0x7)
00185a f009      	BREQ _0x2020042
00185b 5f3f      	SUBI R19,-LOW(1)
                 _0x2020042:
00185c e020      	LDI  R18,LOW(0)
                 _0x2020043:
00185d 932f      	PUSH R18
00185e 5f2f      	SUBI R18,-1
00185f 2fe3      	MOV  R30,R19
001860 91af      	POP  R26
001861 17ae      	CP   R26,R30
001862 f488      	BRSH _0x2020045
001863 851e      	LDD  R17,Y+14
                 _0x2020046:
001864 931f      	PUSH R17
001865 5f1f      	SUBI R17,-1
001866 2fe0      	MOV  R30,R16
001867 91af      	POP  R26
001868 17ae      	CP   R26,R30
001869 f418      	BRSH _0x2020048
00186a 940e 20b4 	CALL SUBOPT_0x62
00186c cff7      	RJMP _0x2020046
                 _0x2020048:
00186d 85ee      	LDD  R30,Y+14
00186e 81ae      	LDD  R26,Y+6
00186f 81bf      	LDD  R27,Y+6+1
001870 e0f0      	LDI  R31,0
001871 940e 20af 	CALL SUBOPT_0x61
001873 cfe9      	RJMP _0x2020043
                 _0x2020045:
                 _0x2020041:
                 _0x2020030:
001874 85ef      	LDD  R30,Y+15
001875 70e7      	ANDI R30,LOW(0x7)
001876 2f3e      	MOV  R19,R30
                 _0x2020049:
001877 85ed      	LDD  R30,Y+13
001878 30e0      	CPI  R30,0
001879 f409      	BRNE PC+2
00187a c152      	RJMP _0x202004B
00187b 85ea      	LDD  R30,Y+10
00187c 85fb      	LDD  R31,Y+10+1
00187d 83ee      	STD  Y+6,R30
00187e 83ff      	STD  Y+6+1,R31
00187f e010      	LDI  R17,LOW(0)
001880 8908      	LDD  R16,Y+16
001881 3030      	CPI  R19,0
001882 f009      	BREQ PC+2
001883 c066      	RJMP _0x202004C
001884 85ad      	LDD  R26,Y+13
001885 30a8      	CPI  R26,LOW(0x8)
001886 f408      	BRSH PC+2
001887 c05d      	RJMP _0x202004D
001888 85e9      	LDD  R30,Y+9
001889 30e0      	CPI  R30,0
00188a f011      	BREQ _0x2020052
00188b 30e3      	CPI  R30,LOW(0x3)
00188c f409      	BRNE _0x2020053
                 _0x2020052:
00188d c002      	RJMP _0x2020054
                 _0x2020053:
00188e 30e7      	CPI  R30,LOW(0x7)
00188f f409      	BRNE _0x2020055
                 _0x2020054:
001890 c002      	RJMP _0x2020056
                 _0x2020055:
001891 30e8      	CPI  R30,LOW(0x8)
001892 f409      	BRNE _0x2020057
                 _0x2020056:
001893 c002      	RJMP _0x2020058
                 _0x2020057:
001894 30e9      	CPI  R30,LOW(0x9)
001895 f409      	BRNE _0x2020059
                 _0x2020058:
001896 c002      	RJMP _0x202005A
                 _0x2020059:
001897 30ea      	CPI  R30,LOW(0xA)
001898 f421      	BRNE _0x202005B
                 _0x202005A:
001899 930a      	ST   -Y,R16
00189a 89a8      	LDD  R26,Y+16
00189b de20      	RCALL _pcd8544_gotoxy
00189c c004      	RJMP _0x2020050
                 _0x202005B:
00189d 30e6      	CPI  R30,LOW(0x6)
00189e f411      	BRNE _0x2020050
00189f 940e 20c1 	CALL SUBOPT_0x63
                 _0x2020050:
                 _0x202005D:
0018a1 931f      	PUSH R17
0018a2 5f1f      	SUBI R17,-1
0018a3 85ee      	LDD  R30,Y+14
0018a4 91af      	POP  R26
0018a5 17ae      	CP   R26,R30
0018a6 f5b8      	BRSH _0x202005F
0018a7 85a9      	LDD  R26,Y+9
0018a8 30a6      	CPI  R26,LOW(0x6)
0018a9 f469      	BRNE _0x2020060
0018aa 940e 20c5 	CALL SUBOPT_0x64
0018ac 93fa      	ST   -Y,R31
0018ad 93ea      	ST   -Y,R30
0018ae 940e 20ac 	CALL SUBOPT_0x60
0018b0 9731      	SBIW R30,1
0018b1 57e8      	SUBI R30,LOW(-_gfx_buffer_G101)
0018b2 4ff1      	SBCI R31,HIGH(-_gfx_buffer_G101)
0018b3 81a0      	LD   R26,Z
0018b4 940e 1d78 	CALL _glcd_writemem
0018b6 c026      	RJMP _0x2020061
                 _0x2020060:
0018b7 85e9      	LDD  R30,Y+9
0018b8 30e9      	CPI  R30,LOW(0x9)
0018b9 f411      	BRNE _0x2020065
0018ba e050      	LDI  R21,LOW(0)
0018bb c00e      	RJMP _0x2020066
                 _0x2020065:
0018bc 30ea      	CPI  R30,LOW(0xA)
0018bd f411      	BRNE _0x2020064
0018be ef5f      	LDI  R21,LOW(255)
0018bf c00a      	RJMP _0x2020066
                 _0x2020064:
0018c0 940e 20c5 	CALL SUBOPT_0x64
0018c2 940e 20ce 	CALL SUBOPT_0x65
0018c4 2f5e      	MOV  R21,R30
0018c5 85e9      	LDD  R30,Y+9
0018c6 30e7      	CPI  R30,LOW(0x7)
0018c7 f011      	BREQ _0x202006D
0018c8 30e8      	CPI  R30,LOW(0x8)
0018c9 f421      	BRNE _0x202006E
                 _0x202006D:
                 _0x2020066:
0018ca 940e 20d4 	CALL SUBOPT_0x66
0018cc 2f5e      	MOV  R21,R30
0018cd c006      	RJMP _0x202006F
                 _0x202006E:
0018ce 30e3      	CPI  R30,LOW(0x3)
0018cf f411      	BRNE _0x2020071
0018d0 9550      	COM  R21
0018d1 c002      	RJMP _0x2020072
                 _0x2020071:
0018d2 30e0      	CPI  R30,0
0018d3 f419      	BRNE _0x2020074
                 _0x2020072:
                 _0x202006F:
0018d4 2fa5      	MOV  R26,R21
0018d5 ddca      	RCALL _pcd8544_wrdata_G101
0018d6 c006      	RJMP _0x202006B
                 _0x2020074:
0018d7 940e 20d8 	CALL SUBOPT_0x67
0018d9 efef      	LDI  R30,LOW(255)
0018da 93ea      	ST   -Y,R30
0018db 85ad      	LDD  R26,Y+13
0018dc ded1      	RCALL _pcd8544_wrmasked_G101
                 _0x202006B:
                 _0x2020061:
0018dd cfc3      	RJMP _0x202005D
                 _0x202005F:
0018de 85ef      	LDD  R30,Y+15
0018df 5fe8      	SUBI R30,-LOW(8)
0018e0 87ef      	STD  Y+15,R30
0018e1 85ed      	LDD  R30,Y+13
0018e2 50e8      	SUBI R30,LOW(8)
0018e3 87ed      	STD  Y+13,R30
0018e4 c0df      	RJMP _0x2020075
                 _0x202004D:
0018e5 855d      	LDD  R21,Y+13
0018e6 e020      	LDI  R18,LOW(0)
0018e7 e0e0      	LDI  R30,LOW(0)
0018e8 87ed      	STD  Y+13,R30
0018e9 c081      	RJMP _0x2020076
                 _0x202004C:
0018ea 2fe3      	MOV  R30,R19
0018eb 85ad      	LDD  R26,Y+13
0018ec 0fae      	ADD  R26,R30
0018ed 30a9      	CPI  R26,LOW(0x9)
0018ee f420      	BRSH _0x2020077
0018ef 852d      	LDD  R18,Y+13
0018f0 e0e0      	LDI  R30,LOW(0)
0018f1 87ed      	STD  Y+13,R30
0018f2 c003      	RJMP _0x2020078
                 _0x2020077:
0018f3 e0e8      	LDI  R30,LOW(8)
0018f4 1be3      	SUB  R30,R19
0018f5 2f2e      	MOV  R18,R30
                 _0x2020078:
0018f6 933a      	ST   -Y,R19
0018f7 2fa2      	MOV  R26,R18
0018f8 940e 1d26 	CALL _glcd_getmask
0018fa 2f4e      	MOV  R20,R30
0018fb 85e9      	LDD  R30,Y+9
0018fc 30e6      	CPI  R30,LOW(0x6)
0018fd f529      	BRNE _0x202007C
0018fe 940e 20c1 	CALL SUBOPT_0x63
                 _0x202007D:
001900 931f      	PUSH R17
001901 5f1f      	SUBI R17,-1
001902 85ee      	LDD  R30,Y+14
001903 91af      	POP  R26
001904 17ae      	CP   R26,R30
001905 f4e0      	BRSH _0x202007F
001906 940e 20ac 	CALL SUBOPT_0x60
001908 9731      	SBIW R30,1
001909 57e8      	SUBI R30,LOW(-_gfx_buffer_G101)
00190a 4ff1      	SBCI R31,HIGH(-_gfx_buffer_G101)
00190b 81e0      	LD   R30,Z
00190c 23e4      	AND  R30,R20
00190d 2fae      	MOV  R26,R30
00190e 2fe3      	MOV  R30,R19
00190f 940e 21ba 	CALL __LSRB12
001911 940e 20de 	CALL SUBOPT_0x68
001913 2fe3      	MOV  R30,R19
001914 2fa4      	MOV  R26,R20
001915 940e 21ba 	CALL __LSRB12
001917 95e0      	COM  R30
001918 21e1      	AND  R30,R1
001919 2b5e      	OR   R21,R30
00191a 940e 20c5 	CALL SUBOPT_0x64
00191c 93fa      	ST   -Y,R31
00191d 93ea      	ST   -Y,R30
00191e 2fa5      	MOV  R26,R21
00191f 940e 1d78 	CALL _glcd_writemem
001921 cfde      	RJMP _0x202007D
                 _0x202007F:
001922 c02c      	RJMP _0x202007B
                 _0x202007C:
001923 30e9      	CPI  R30,LOW(0x9)
001924 f411      	BRNE _0x2020080
001925 e050      	LDI  R21,LOW(0)
001926 c003      	RJMP _0x2020081
                 _0x2020080:
001927 30ea      	CPI  R30,LOW(0xA)
001928 f4a9      	BRNE _0x2020087
001929 ef5f      	LDI  R21,LOW(255)
                 _0x2020081:
00192a 940e 20d4 	CALL SUBOPT_0x66
00192c 2fae      	MOV  R26,R30
00192d 2fe3      	MOV  R30,R19
00192e 940e 21b2 	CALL __LSLB12
001930 2f5e      	MOV  R21,R30
                 _0x2020084:
001931 931f      	PUSH R17
001932 5f1f      	SUBI R17,-1
001933 85ee      	LDD  R30,Y+14
001934 91af      	POP  R26
001935 17ae      	CP   R26,R30
001936 f430      	BRSH _0x2020086
001937 940e 20d8 	CALL SUBOPT_0x67
001939 934a      	ST   -Y,R20
00193a e0a0      	LDI  R26,LOW(0)
00193b de72      	RCALL _pcd8544_wrmasked_G101
00193c cff4      	RJMP _0x2020084
                 _0x2020086:
00193d c011      	RJMP _0x202007B
                 _0x2020087:
                 _0x2020088:
00193e 931f      	PUSH R17
00193f 5f1f      	SUBI R17,-1
001940 85ee      	LDD  R30,Y+14
001941 91af      	POP  R26
001942 17ae      	CP   R26,R30
001943 f458      	BRSH _0x202008A
001944 940e 20e9 	CALL SUBOPT_0x69
001946 2fae      	MOV  R26,R30
001947 2fe3      	MOV  R30,R19
001948 940e 21b2 	CALL __LSLB12
00194a 93ea      	ST   -Y,R30
00194b 934a      	ST   -Y,R20
00194c 85ad      	LDD  R26,Y+13
00194d de60      	RCALL _pcd8544_wrmasked_G101
00194e cfef      	RJMP _0x2020088
                 _0x202008A:
                 _0x202007B:
00194f 85ed      	LDD  R30,Y+13
001950 30e0      	CPI  R30,0
001951 f409      	BRNE _0x202008B
001952 c07a      	RJMP _0x202004B
                 _0x202008B:
001953 85ad      	LDD  R26,Y+13
001954 30a8      	CPI  R26,LOW(0x8)
001955 f428      	BRSH _0x202008C
001956 85ed      	LDD  R30,Y+13
001957 1be2      	SUB  R30,R18
001958 2f5e      	MOV  R21,R30
001959 e0e0      	LDI  R30,LOW(0)
00195a c003      	RJMP _0x20200A1
                 _0x202008C:
00195b 2f53      	MOV  R21,R19
00195c 85ed      	LDD  R30,Y+13
00195d 50e8      	SUBI R30,LOW(8)
                 _0x20200A1:
00195e 87ed      	STD  Y+13,R30
00195f e010      	LDI  R17,LOW(0)
001960 85ef      	LDD  R30,Y+15
001961 5fe8      	SUBI R30,-LOW(8)
001962 87ef      	STD  Y+15,R30
001963 e0e8      	LDI  R30,LOW(8)
001964 1be3      	SUB  R30,R19
001965 2f2e      	MOV  R18,R30
001966 8908      	LDD  R16,Y+16
001967 85ea      	LDD  R30,Y+10
001968 85fb      	LDD  R31,Y+10+1
001969 83ee      	STD  Y+6,R30
00196a 83ff      	STD  Y+6+1,R31
                 _0x2020076:
00196b 2fe5      	MOV  R30,R21
00196c e0f0      	LDI  R31,0
00196d 55ec      	SUBI R30,LOW(-__glcd_mask*2)
00196e 4ff8      	SBCI R31,HIGH(-__glcd_mask*2)
00196f 9144      	LPM  R20,Z
001970 85e9      	LDD  R30,Y+9
001971 30e6      	CPI  R30,LOW(0x6)
001972 f529      	BRNE _0x2020091
001973 940e 20c1 	CALL SUBOPT_0x63
                 _0x2020092:
001975 931f      	PUSH R17
001976 5f1f      	SUBI R17,-1
001977 85ee      	LDD  R30,Y+14
001978 91af      	POP  R26
001979 17ae      	CP   R26,R30
00197a f4e0      	BRSH _0x2020094
00197b 940e 20ac 	CALL SUBOPT_0x60
00197d 9731      	SBIW R30,1
00197e 57e8      	SUBI R30,LOW(-_gfx_buffer_G101)
00197f 4ff1      	SBCI R31,HIGH(-_gfx_buffer_G101)
001980 81e0      	LD   R30,Z
001981 23e4      	AND  R30,R20
001982 2fae      	MOV  R26,R30
001983 2fe2      	MOV  R30,R18
001984 940e 21b2 	CALL __LSLB12
001986 940e 20de 	CALL SUBOPT_0x68
001988 2fe2      	MOV  R30,R18
001989 2fa4      	MOV  R26,R20
00198a 940e 21b2 	CALL __LSLB12
00198c 95e0      	COM  R30
00198d 21e1      	AND  R30,R1
00198e 2b5e      	OR   R21,R30
00198f 940e 20c5 	CALL SUBOPT_0x64
001991 93fa      	ST   -Y,R31
001992 93ea      	ST   -Y,R30
001993 2fa5      	MOV  R26,R21
001994 940e 1d78 	CALL _glcd_writemem
001996 cfde      	RJMP _0x2020092
                 _0x2020094:
001997 c02c      	RJMP _0x2020090
                 _0x2020091:
001998 30e9      	CPI  R30,LOW(0x9)
001999 f411      	BRNE _0x2020095
00199a e050      	LDI  R21,LOW(0)
00199b c003      	RJMP _0x2020096
                 _0x2020095:
00199c 30ea      	CPI  R30,LOW(0xA)
00199d f4a9      	BRNE _0x202009C
00199e ef5f      	LDI  R21,LOW(255)
                 _0x2020096:
00199f 940e 20d4 	CALL SUBOPT_0x66
0019a1 2fae      	MOV  R26,R30
0019a2 2fe2      	MOV  R30,R18
0019a3 940e 21ba 	CALL __LSRB12
0019a5 2f5e      	MOV  R21,R30
                 _0x2020099:
0019a6 931f      	PUSH R17
0019a7 5f1f      	SUBI R17,-1
0019a8 85ee      	LDD  R30,Y+14
0019a9 91af      	POP  R26
0019aa 17ae      	CP   R26,R30
0019ab f430      	BRSH _0x202009B
0019ac 940e 20d8 	CALL SUBOPT_0x67
0019ae 934a      	ST   -Y,R20
0019af e0a0      	LDI  R26,LOW(0)
0019b0 ddfd      	RCALL _pcd8544_wrmasked_G101
0019b1 cff4      	RJMP _0x2020099
                 _0x202009B:
0019b2 c011      	RJMP _0x2020090
                 _0x202009C:
                 _0x202009D:
0019b3 931f      	PUSH R17
0019b4 5f1f      	SUBI R17,-1
0019b5 85ee      	LDD  R30,Y+14
0019b6 91af      	POP  R26
0019b7 17ae      	CP   R26,R30
0019b8 f458      	BRSH _0x202009F
0019b9 940e 20e9 	CALL SUBOPT_0x69
0019bb 2fae      	MOV  R26,R30
0019bc 2fe2      	MOV  R30,R18
0019bd 940e 21ba 	CALL __LSRB12
0019bf 93ea      	ST   -Y,R30
0019c0 934a      	ST   -Y,R20
0019c1 85ad      	LDD  R26,Y+13
0019c2 ddeb      	RCALL _pcd8544_wrmasked_G101
0019c3 cfef      	RJMP _0x202009D
                 _0x202009F:
                 _0x2020090:
                 _0x2020075:
0019c4 85e8      	LDD  R30,Y+8
0019c5 85aa      	LDD  R26,Y+10
0019c6 85bb      	LDD  R27,Y+10+1
0019c7 e0f0      	LDI  R31,0
0019c8 0fea      	ADD  R30,R26
0019c9 1ffb      	ADC  R31,R27
0019ca 87ea      	STD  Y+10,R30
0019cb 87fb      	STD  Y+10+1,R31
0019cc ceaa      	RJMP _0x2020049
                 _0x202004B:
                 _0x2160008:
0019cd 940e 227c 	CALL __LOADLOCR6
0019cf 9661      	ADIW R28,17
0019d0 9508      	RET
                 ; .FEND
                 
                 	.CSEG
                 _glcd_clipx:
                 ; .FSTART _glcd_clipx
0019d1 940e 20f6 	CALL SUBOPT_0x6A
0019d3 f024      	BRLT _0x2040003
0019d4 e0e0      	LDI  R30,LOW(0)
0019d5 e0f0      	LDI  R31,HIGH(0)
0019d6 940c 1d2f 	JMP  _0x2160003
                 _0x2040003:
0019d8 81a8      	LD   R26,Y
0019d9 81b9      	LDD  R27,Y+1
0019da 35a4      	CPI  R26,LOW(0x54)
0019db e0e0      	LDI  R30,HIGH(0x54)
0019dc 07be      	CPC  R27,R30
0019dd f024      	BRLT _0x2040004
0019de e5e3      	LDI  R30,LOW(83)
0019df e0f0      	LDI  R31,HIGH(83)
0019e0 940c 1d2f 	JMP  _0x2160003
                 _0x2040004:
0019e2 81e8      	LD   R30,Y
0019e3 81f9      	LDD  R31,Y+1
0019e4 940c 1d2f 	JMP  _0x2160003
                 ; .FEND
                 _glcd_clipy:
                 ; .FSTART _glcd_clipy
0019e6 940e 20f6 	CALL SUBOPT_0x6A
0019e8 f024      	BRLT _0x2040005
0019e9 e0e0      	LDI  R30,LOW(0)
0019ea e0f0      	LDI  R31,HIGH(0)
0019eb 940c 1d2f 	JMP  _0x2160003
                 _0x2040005:
0019ed 81a8      	LD   R26,Y
0019ee 81b9      	LDD  R27,Y+1
0019ef 97d0      	SBIW R26,48
0019f0 f024      	BRLT _0x2040006
0019f1 e2ef      	LDI  R30,LOW(47)
0019f2 e0f0      	LDI  R31,HIGH(47)
0019f3 940c 1d2f 	JMP  _0x2160003
                 _0x2040006:
0019f5 81e8      	LD   R30,Y
0019f6 81f9      	LDD  R31,Y+1
0019f7 940c 1d2f 	JMP  _0x2160003
                 ; .FEND
                 _glcd_getcharw_G102:
                 ; .FSTART _glcd_getcharw_G102
0019f9 93ba      	ST   -Y,R27
0019fa 93aa      	ST   -Y,R26
0019fb 9723      	SBIW R28,3
0019fc 940e 20fd 	CALL SUBOPT_0x6B
0019fe 018f      	MOVW R16,R30
0019ff 2e00      	MOV  R0,R16
001a00 2a01      	OR   R0,R17
001a01 f419      	BRNE _0x204000B
001a02 e0e0      	LDI  R30,LOW(0)
001a03 e0f0      	LDI  R31,HIGH(0)
001a04 c05f      	RJMP _0x2160007
                 _0x204000B:
001a05 940e 2104 	CALL SUBOPT_0x6C
001a07 820f      	STD  Y+7,R0
001a08 940e 2104 	CALL SUBOPT_0x6C
001a0a 820e      	STD  Y+6,R0
001a0b 940e 2104 	CALL SUBOPT_0x6C
001a0d 8608      	STD  Y+8,R0
001a0e 85eb      	LDD  R30,Y+11
001a0f 85a8      	LDD  R26,Y+8
001a10 17ea      	CP   R30,R26
001a11 f418      	BRSH _0x204000C
001a12 e0e0      	LDI  R30,LOW(0)
001a13 e0f0      	LDI  R31,HIGH(0)
001a14 c04f      	RJMP _0x2160007
                 _0x204000C:
001a15 01f8      	MOVW R30,R16
                +
001a16 5f0f     +SUBI R16 , LOW ( - 1 )
001a17 4f1f     +SBCI R17 , HIGH ( - 1 )
                 	__ADDWRN 16,17,1
001a18 9154      	LPM  R21,Z
001a19 85a8      	LDD  R26,Y+8
001a1a 27bb      	CLR  R27
001a1b 27ee      	CLR  R30
001a1c 0fa5      	ADD  R26,R21
001a1d 1fbe      	ADC  R27,R30
001a1e 85eb      	LDD  R30,Y+11
001a1f e0f0      	LDI  R31,0
001a20 17ea      	CP   R30,R26
001a21 07fb      	CPC  R31,R27
001a22 f018      	BRLO _0x204000D
001a23 e0e0      	LDI  R30,LOW(0)
001a24 e0f0      	LDI  R31,HIGH(0)
001a25 c03e      	RJMP _0x2160007
                 _0x204000D:
001a26 81ee      	LDD  R30,Y+6
001a27 95e6      	LSR  R30
001a28 95e6      	LSR  R30
001a29 95e6      	LSR  R30
001a2a 2f4e      	MOV  R20,R30
001a2b 81ee      	LDD  R30,Y+6
001a2c 70e7      	ANDI R30,LOW(0x7)
001a2d f009      	BREQ _0x204000E
001a2e 5f4f      	SUBI R20,-LOW(1)
                 _0x204000E:
001a2f 81ef      	LDD  R30,Y+7
001a30 30e0      	CPI  R30,0
001a31 f0a1      	BREQ _0x204000F
001a32 85a9      	LDD  R26,Y+9
001a33 85ba      	LDD  R27,Y+9+1
001a34 93ec      	ST   X,R30
001a35 85a8      	LDD  R26,Y+8
001a36 85eb      	LDD  R30,Y+11
001a37 1bea      	SUB  R30,R26
001a38 e0f0      	LDI  R31,0
001a39 01df      	MOVW R26,R30
001a3a 81ef      	LDD  R30,Y+7
001a3b e0f0      	LDI  R31,0
001a3c 940e 21d1 	CALL __MULW12U
001a3e 01df      	MOVW R26,R30
001a3f 2fe4      	MOV  R30,R20
001a40 e0f0      	LDI  R31,0
001a41 940e 21d1 	CALL __MULW12U
001a43 0fe0      	ADD  R30,R16
001a44 1ff1      	ADC  R31,R17
001a45 c01e      	RJMP _0x2160007
                 _0x204000F:
001a46 0198      	MOVW R18,R16
001a47 2fe5      	MOV  R30,R21
001a48 e0f0      	LDI  R31,0
                +
001a49 0f0e     +ADD R16 , R30
001a4a 1f1f     +ADC R17 , R31
                 	__ADDWRR 16,17,30,31
                 _0x2040010:
001a4b 85a8      	LDD  R26,Y+8
001a4c 5faf      	SUBI R26,-LOW(1)
001a4d 87a8      	STD  Y+8,R26
001a4e 50a1      	SUBI R26,LOW(1)
001a4f 85eb      	LDD  R30,Y+11
001a50 17ae      	CP   R26,R30
001a51 f460      	BRSH _0x2040012
001a52 01f9      	MOVW R30,R18
                +
001a53 5f2f     +SUBI R18 , LOW ( - 1 )
001a54 4f3f     +SBCI R19 , HIGH ( - 1 )
                 	__ADDWRN 18,19,1
001a55 91a4      	LPM  R26,Z
001a56 e0b0      	LDI  R27,0
001a57 2fe4      	MOV  R30,R20
001a58 e0f0      	LDI  R31,0
001a59 940e 21d1 	CALL __MULW12U
                +
001a5b 0f0e     +ADD R16 , R30
001a5c 1f1f     +ADC R17 , R31
                 	__ADDWRR 16,17,30,31
001a5d cfed      	RJMP _0x2040010
                 _0x2040012:
001a5e 01f9      	MOVW R30,R18
001a5f 91e4      	LPM  R30,Z
001a60 85a9      	LDD  R26,Y+9
001a61 85ba      	LDD  R27,Y+9+1
001a62 93ec      	ST   X,R30
001a63 01f8      	MOVW R30,R16
                 _0x2160007:
001a64 940e 227c 	CALL __LOADLOCR6
001a66 962c      	ADIW R28,12
001a67 9508      	RET
                 ; .FEND
                 _glcd_new_line_G102:
                 ; .FSTART _glcd_new_line_G102
001a68 e0e0      	LDI  R30,LOW(0)
                +
001a69 93e0 09ff+STS _glcd_state + ( 2 ) , R30
                 	__PUTB1MN _glcd_state,2
                +
001a6b 91a0 0a00+LDS R26 , _glcd_state + ( 3 )
                 	__GETB2MN _glcd_state,3
001a6d 27bb      	CLR  R27
001a6e 940e 2109 	CALL SUBOPT_0x6D
001a70 e0f0      	LDI  R31,0
001a71 0fae      	ADD  R26,R30
001a72 1fbf      	ADC  R27,R31
                +
001a73 91e0 0a04+LDS R30 , _glcd_state + ( 7 )
                 	__GETB1MN _glcd_state,7
001a75 e0f0      	LDI  R31,0
001a76 0fae      	ADD  R26,R30
001a77 1fbf      	ADC  R27,R31
001a78 df6d      	RCALL _glcd_clipy
                +
001a79 93e0 0a00+STS _glcd_state + ( 3 ) , R30
                 	__PUTB1MN _glcd_state,3
001a7b 9508      	RET
                 ; .FEND
                 _glcd_putchar:
                 ; .FSTART _glcd_putchar
001a7c 93aa      	ST   -Y,R26
001a7d 9721      	SBIW R28,1
001a7e 940e 20fd 	CALL SUBOPT_0x6B
001a80 9730      	SBIW R30,0
001a81 f409      	BRNE PC+2
001a82 c059      	RJMP _0x204001F
001a83 81af      	LDD  R26,Y+7
001a84 30aa      	CPI  R26,LOW(0xA)
001a85 f409      	BRNE _0x2040020
001a86 c051      	RJMP _0x2040021
                 _0x2040020:
001a87 81ef      	LDD  R30,Y+7
001a88 93ea      	ST   -Y,R30
001a89 01de      	MOVW R26,R28
001a8a 9617      	ADIW R26,7
001a8b df6d      	RCALL _glcd_getcharw_G102
001a8c 01af      	MOVW R20,R30
001a8d 9730      	SBIW R30,0
001a8e f419      	BRNE _0x2040022
001a8f 940e 227c 	CALL __LOADLOCR6
001a91 c1ff      	RJMP _0x2160005
                 _0x2040022:
                +
001a92 91e0 0a03+LDS R30 , _glcd_state + ( 6 )
                 	__GETB1MN _glcd_state,6
001a94 81ae      	LDD  R26,Y+6
001a95 0fea      	ADD  R30,R26
001a96 2f3e      	MOV  R19,R30
                +
001a97 91a0 09ff+LDS R26 , _glcd_state + ( 2 )
                 	__GETB2MN _glcd_state,2
001a99 27bb      	CLR  R27
001a9a e0f0      	LDI  R31,0
001a9b 0fea      	ADD  R30,R26
001a9c 1ffb      	ADC  R31,R27
001a9d 018f      	MOVW R16,R30
                +
001a9e 3505     +CPI R16 , LOW ( 85 )
001a9f e0e0     +LDI R30 , HIGH ( 85 )
001aa0 071e     +CPC R17 , R30
                 	__CPWRN 16,17,85
001aa1 f018      	BRLO _0x2040023
001aa2 2f03      	MOV  R16,R19
001aa3 2711      	CLR  R17
001aa4 dfc3      	RCALL _glcd_new_line_G102
                 _0x2040023:
                +
001aa5 91e0 09ff+LDS R30 , _glcd_state + ( 2 )
                 	__GETB1MN _glcd_state,2
001aa7 93ea      	ST   -Y,R30
                +
001aa8 91e0 0a00+LDS R30 , _glcd_state + ( 3 )
                 	__GETB1MN _glcd_state,3
001aaa 93ea      	ST   -Y,R30
001aab 85e8      	LDD  R30,Y+8
001aac 93ea      	ST   -Y,R30
001aad 940e 2109 	CALL SUBOPT_0x6D
001aaf 93ea      	ST   -Y,R30
001ab0 e0e1      	LDI  R30,LOW(1)
001ab1 93ea      	ST   -Y,R30
001ab2 935a      	ST   -Y,R21
001ab3 934a      	ST   -Y,R20
001ab4 e0a7      	LDI  R26,LOW(7)
001ab5 dd31      	RCALL _glcd_block
                +
001ab6 91e0 09ff+LDS R30 , _glcd_state + ( 2 )
                 	__GETB1MN _glcd_state,2
001ab8 81ae      	LDD  R26,Y+6
001ab9 0fea      	ADD  R30,R26
001aba 93ea      	ST   -Y,R30
                +
001abb 91e0 0a00+LDS R30 , _glcd_state + ( 3 )
                 	__GETB1MN _glcd_state,3
001abd 93ea      	ST   -Y,R30
                +
001abe 91e0 0a03+LDS R30 , _glcd_state + ( 6 )
                 	__GETB1MN _glcd_state,6
001ac0 93ea      	ST   -Y,R30
001ac1 940e 2109 	CALL SUBOPT_0x6D
001ac3 940e 2110 	CALL SUBOPT_0x6E
                +
001ac5 91e0 09ff+LDS R30 , _glcd_state + ( 2 )
                 	__GETB1MN _glcd_state,2
001ac7 93ea      	ST   -Y,R30
                +
001ac8 91a0 0a00+LDS R26 , _glcd_state + ( 3 )
                 	__GETB2MN _glcd_state,3
001aca 940e 2109 	CALL SUBOPT_0x6D
001acc 0fea      	ADD  R30,R26
001acd 93ea      	ST   -Y,R30
001ace 933a      	ST   -Y,R19
                +
001acf 91e0 0a04+LDS R30 , _glcd_state + ( 7 )
                 	__GETB1MN _glcd_state,7
001ad1 940e 2110 	CALL SUBOPT_0x6E
001ad3 e5e4      	LDI  R30,LOW(84)
001ad4 e0f0      	LDI  R31,HIGH(84)
001ad5 17e0      	CP   R30,R16
001ad6 07f1      	CPC  R31,R17
001ad7 f421      	BRNE _0x2040024
                 _0x2040021:
001ad8 df8f      	RCALL _glcd_new_line_G102
001ad9 940e 227c 	CALL __LOADLOCR6
001adb c1b5      	RJMP _0x2160005
                 _0x2040024:
                 _0x204001F:
                +
001adc 9300 09ff+STS _glcd_state + ( 2 ) , R16
                 	__PUTBMRN _glcd_state,2,16
001ade 940e 227c 	CALL __LOADLOCR6
001ae0 c1b0      	RJMP _0x2160005
                 ; .FEND
                 _glcd_putcharxy:
                 ; .FSTART _glcd_putcharxy
001ae1 93aa      	ST   -Y,R26
001ae2 81ea      	LDD  R30,Y+2
001ae3 93ea      	ST   -Y,R30
001ae4 81aa      	LDD  R26,Y+2
001ae5 d04b      	RCALL _glcd_moveto
001ae6 81a8      	LD   R26,Y
001ae7 df94      	RCALL _glcd_putchar
001ae8 940c 1d76 	JMP  _0x2160002
                 ; .FEND
                 _glcd_outtextxy:
                 ; .FSTART _glcd_outtextxy
001aea 940e 211a 	CALL SUBOPT_0x6F
                 _0x2040025:
001aec 940e 2122 	CALL SUBOPT_0x70
001aee f019      	BREQ _0x2040027
001aef 2fa1      	MOV  R26,R17
001af0 df8b      	RCALL _glcd_putchar
001af1 cffa      	RJMP _0x2040025
                 _0x2040027:
001af2 8118      	LDD  R17,Y+0
001af3 c1ad      	RJMP _0x2160004
                 ; .FEND
                 _glcd_outtextxyf:
                 ; .FSTART _glcd_outtextxyf
001af4 940e 211a 	CALL SUBOPT_0x6F
                 _0x2040028:
001af6 940e 212a 	CALL SUBOPT_0x71
001af8 f019      	BREQ _0x204002A
001af9 2fa1      	MOV  R26,R17
001afa df81      	RCALL _glcd_putchar
001afb cffa      	RJMP _0x2040028
                 _0x204002A:
001afc 8118      	LDD  R17,Y+0
001afd c1a3      	RJMP _0x2160004
                 ; .FEND
                 _glcd_outtext:
                 ; .FSTART _glcd_outtext
001afe 93ba      	ST   -Y,R27
001aff 93aa      	ST   -Y,R26
001b00 931a      	ST   -Y,R17
                 _0x204002E:
001b01 940e 2122 	CALL SUBOPT_0x70
001b03 f019      	BREQ _0x2040030
001b04 2fa1      	MOV  R26,R17
001b05 df76      	RCALL _glcd_putchar
001b06 cffa      	RJMP _0x204002E
                 _0x2040030:
001b07 8118      	LDD  R17,Y+0
001b08 940c 1d76 	JMP  _0x2160002
                 ; .FEND
                 _glcd_outtextf:
                 ; .FSTART _glcd_outtextf
001b0a 93ba      	ST   -Y,R27
001b0b 93aa      	ST   -Y,R26
001b0c 931a      	ST   -Y,R17
                 _0x2040031:
001b0d 940e 212a 	CALL SUBOPT_0x71
001b0f f019      	BREQ _0x2040033
001b10 2fa1      	MOV  R26,R17
001b11 df6a      	RCALL _glcd_putchar
001b12 cffa      	RJMP _0x2040031
                 _0x2040033:
001b13 8118      	LDD  R17,Y+0
001b14 940c 1d76 	JMP  _0x2160002
                 ; .FEND
                 _glcd_putpixelm_G102:
                 ; .FSTART _glcd_putpixelm_G102
001b16 93aa      	ST   -Y,R26
001b17 81ea      	LDD  R30,Y+2
001b18 93ea      	ST   -Y,R30
001b19 81ea      	LDD  R30,Y+2
001b1a 93ea      	ST   -Y,R30
                +
001b1b 91e0 0a06+LDS R30 , _glcd_state + ( 9 )
                 	__GETB1MN _glcd_state,9
001b1d 81aa      	LDD  R26,Y+2
001b1e 23ea      	AND  R30,R26
001b1f f019      	BREQ _0x204003E
001b20 91e0 09fd 	LDS  R30,_glcd_state
001b22 c002      	RJMP _0x204003F
                 _0x204003E:
                +
001b23 91e0 09fe+LDS R30 , _glcd_state + ( 1 )
                 	__GETB1MN _glcd_state,1
                 _0x204003F:
001b25 2fae      	MOV  R26,R30
001b26 dc61      	RCALL _glcd_putpixel
001b27 81e8      	LD   R30,Y
001b28 0fee      	LSL  R30
001b29 83e8      	ST   Y,R30
001b2a 30e0      	CPI  R30,0
001b2b f411      	BRNE _0x2040041
001b2c e0e1      	LDI  R30,LOW(1)
001b2d 83e8      	ST   Y,R30
                 _0x2040041:
001b2e 81e8      	LD   R30,Y
001b2f 940c 1d76 	JMP  _0x2160002
                 ; .FEND
                 _glcd_moveto:
                 ; .FSTART _glcd_moveto
001b31 93aa      	ST   -Y,R26
001b32 81a9      	LDD  R26,Y+1
001b33 27bb      	CLR  R27
001b34 de9c      	RCALL _glcd_clipx
                +
001b35 93e0 09ff+STS _glcd_state + ( 2 ) , R30
                 	__PUTB1MN _glcd_state,2
001b37 81a8      	LD   R26,Y
001b38 27bb      	CLR  R27
001b39 deac      	RCALL _glcd_clipy
                +
001b3a 93e0 0a00+STS _glcd_state + ( 3 ) , R30
                 	__PUTB1MN _glcd_state,3
001b3c 940c 1d2f 	JMP  _0x2160003
                 ; .FEND
                 _glcd_line:
                 ; .FSTART _glcd_line
001b3e 93aa      	ST   -Y,R26
001b3f 972b      	SBIW R28,11
001b40 940e 2275 	CALL __SAVELOCR6
001b42 89ac      	LDD  R26,Y+20
001b43 27bb      	CLR  R27
001b44 de8c      	RCALL _glcd_clipx
001b45 8bec      	STD  Y+20,R30
001b46 89aa      	LDD  R26,Y+18
001b47 27bb      	CLR  R27
001b48 de88      	RCALL _glcd_clipx
001b49 8bea      	STD  Y+18,R30
001b4a 89ab      	LDD  R26,Y+19
001b4b 27bb      	CLR  R27
001b4c de99      	RCALL _glcd_clipy
001b4d 8beb      	STD  Y+19,R30
001b4e 89a9      	LDD  R26,Y+17
001b4f 27bb      	CLR  R27
001b50 de95      	RCALL _glcd_clipy
001b51 8be9      	STD  Y+17,R30
001b52 89ea      	LDD  R30,Y+18
                +
001b53 93e0 09ff+STS _glcd_state + ( 2 ) , R30
                 	__PUTB1MN _glcd_state,2
001b55 89e9      	LDD  R30,Y+17
                +
001b56 93e0 0a00+STS _glcd_state + ( 3 ) , R30
                 	__PUTB1MN _glcd_state,3
001b58 e0e1      	LDI  R30,LOW(1)
001b59 87e8      	STD  Y+8,R30
001b5a 89e9      	LDD  R30,Y+17
001b5b 89ab      	LDD  R26,Y+19
001b5c 17ea      	CP   R30,R26
001b5d f571      	BRNE _0x2040042
001b5e 891c      	LDD  R17,Y+20
001b5f 89aa      	LDD  R26,Y+18
001b60 171a      	CP   R17,R26
001b61 f431      	BRNE _0x2040043
001b62 931a      	ST   -Y,R17
001b63 89ec      	LDD  R30,Y+20
001b64 93ea      	ST   -Y,R30
001b65 e0a1      	LDI  R26,LOW(1)
001b66 dfaf      	RCALL _glcd_putpixelm_G102
001b67 c0c8      	RJMP _0x2160006
                 _0x2040043:
001b68 89aa      	LDD  R26,Y+18
001b69 171a      	CP   R17,R26
001b6a f430      	BRSH _0x2040044
001b6b 89ea      	LDD  R30,Y+18
001b6c 1be1      	SUB  R30,R17
001b6d 2f0e      	MOV  R16,R30
                +
001b6e e041     +LDI R20 , LOW ( 1 )
001b6f e050     +LDI R21 , HIGH ( 1 )
                 	__GETWRN 20,21,1
001b70 c006      	RJMP _0x2040045
                 _0x2040044:
001b71 89aa      	LDD  R26,Y+18
001b72 2fe1      	MOV  R30,R17
001b73 1bea      	SUB  R30,R26
001b74 2f0e      	MOV  R16,R30
                +
001b75 ef4f     +LDI R20 , LOW ( - 1 )
001b76 ef5f     +LDI R21 , HIGH ( - 1 )
                 	__GETWRN 20,21,-1
                 _0x2040045:
                 _0x2040047:
001b77 893b      	LDD  R19,Y+19
001b78 e0e0      	LDI  R30,LOW(0)
001b79 83ee      	STD  Y+6,R30
                 _0x2040049:
001b7a 940e 2134 	CALL SUBOPT_0x72
001b7c f438      	BRSH _0x204004B
001b7d 931a      	ST   -Y,R17
001b7e 933a      	ST   -Y,R19
001b7f 9533      	INC  R19
001b80 85aa      	LDD  R26,Y+10
001b81 df94      	RCALL _glcd_putpixelm_G102
001b82 83ef      	STD  Y+7,R30
001b83 cff6      	RJMP _0x2040049
                 _0x204004B:
001b84 81ef      	LDD  R30,Y+7
001b85 87e8      	STD  Y+8,R30
001b86 0f14      	ADD  R17,R20
001b87 2fe0      	MOV  R30,R16
001b88 5001      	SUBI R16,1
001b89 30e0      	CPI  R30,0
001b8a f761      	BRNE _0x2040047
001b8b c0a4      	RJMP _0x204004C
                 _0x2040042:
001b8c 89ea      	LDD  R30,Y+18
001b8d 89ac      	LDD  R26,Y+20
001b8e 17ea      	CP   R30,R26
001b8f f539      	BRNE _0x204004D
001b90 893b      	LDD  R19,Y+19
001b91 89a9      	LDD  R26,Y+17
001b92 173a      	CP   R19,R26
001b93 f430      	BRSH _0x204004E
001b94 89e9      	LDD  R30,Y+17
001b95 1be3      	SUB  R30,R19
001b96 2f2e      	MOV  R18,R30
001b97 e0e1      	LDI  R30,LOW(1)
001b98 e0f0      	LDI  R31,HIGH(1)
001b99 c006      	RJMP _0x204011B
                 _0x204004E:
001b9a 89a9      	LDD  R26,Y+17
001b9b 2fe3      	MOV  R30,R19
001b9c 1bea      	SUB  R30,R26
001b9d 2f2e      	MOV  R18,R30
001b9e efef      	LDI  R30,LOW(65535)
001b9f efff      	LDI  R31,HIGH(65535)
                 _0x204011B:
001ba0 87ed      	STD  Y+13,R30
001ba1 87fe      	STD  Y+13+1,R31
                 _0x2040051:
001ba2 891c      	LDD  R17,Y+20
001ba3 e0e0      	LDI  R30,LOW(0)
001ba4 83ee      	STD  Y+6,R30
                 _0x2040053:
001ba5 940e 2134 	CALL SUBOPT_0x72
001ba7 f430      	BRSH _0x2040055
001ba8 931a      	ST   -Y,R17
001ba9 9513      	INC  R17
001baa 940e 213c 	CALL SUBOPT_0x73
001bac 83ef      	STD  Y+7,R30
001bad cff7      	RJMP _0x2040053
                 _0x2040055:
001bae 81ef      	LDD  R30,Y+7
001baf 87e8      	STD  Y+8,R30
001bb0 85ed      	LDD  R30,Y+13
001bb1 0f3e      	ADD  R19,R30
001bb2 2fe2      	MOV  R30,R18
001bb3 5021      	SUBI R18,1
001bb4 30e0      	CPI  R30,0
001bb5 f761      	BRNE _0x2040051
001bb6 c079      	RJMP _0x2040056
                 _0x204004D:
001bb7 e0e0      	LDI  R30,LOW(0)
001bb8 83ee      	STD  Y+6,R30
                 _0x2040057:
001bb9 940e 2134 	CALL SUBOPT_0x72
001bbb f008      	BRLO PC+2
001bbc c073      	RJMP _0x2040059
001bbd 891c      	LDD  R17,Y+20
001bbe 893b      	LDD  R19,Y+19
001bbf e0e1      	LDI  R30,LOW(1)
001bc0 2f2e      	MOV  R18,R30
001bc1 2f0e      	MOV  R16,R30
001bc2 89aa      	LDD  R26,Y+18
001bc3 27bb      	CLR  R27
001bc4 89ec      	LDD  R30,Y+20
001bc5 e0f0      	LDI  R31,0
001bc6 1bae      	SUB  R26,R30
001bc7 0bbf      	SBC  R27,R31
001bc8 01ad      	MOVW R20,R26
001bc9 2355      	TST  R21
001bca f42a      	BRPL _0x204005A
001bcb ef0f      	LDI  R16,LOW(255)
001bcc 01fa      	MOVW R30,R20
001bcd 940e 21ae 	CALL __ANEGW1
001bcf 01af      	MOVW R20,R30
                 _0x204005A:
001bd0 01fa      	MOVW R30,R20
001bd1 0fee      	LSL  R30
001bd2 1fff      	ROL  R31
001bd3 87ef      	STD  Y+15,R30
001bd4 8bf8      	STD  Y+15+1,R31
001bd5 89a9      	LDD  R26,Y+17
001bd6 27bb      	CLR  R27
001bd7 89eb      	LDD  R30,Y+19
001bd8 e0f0      	LDI  R31,0
001bd9 1bae      	SUB  R26,R30
001bda 0bbf      	SBC  R27,R31
001bdb 87ad      	STD  Y+13,R26
001bdc 87be      	STD  Y+13+1,R27
001bdd 85ae      	LDD  R26,Y+14
001bde 23aa      	TST  R26
001bdf f43a      	BRPL _0x204005B
001be0 ef2f      	LDI  R18,LOW(255)
001be1 85ed      	LDD  R30,Y+13
001be2 85fe      	LDD  R31,Y+13+1
001be3 940e 21ae 	CALL __ANEGW1
001be5 87ed      	STD  Y+13,R30
001be6 87fe      	STD  Y+13+1,R31
                 _0x204005B:
001be7 85ed      	LDD  R30,Y+13
001be8 85fe      	LDD  R31,Y+13+1
001be9 0fee      	LSL  R30
001bea 1fff      	ROL  R31
001beb 87eb      	STD  Y+11,R30
001bec 87fc      	STD  Y+11+1,R31
001bed 931a      	ST   -Y,R17
001bee 933a      	ST   -Y,R19
001bef e0a1      	LDI  R26,LOW(1)
001bf0 df25      	RCALL _glcd_putpixelm_G102
001bf1 87e8      	STD  Y+8,R30
001bf2 e0e0      	LDI  R30,LOW(0)
001bf3 87e9      	STD  Y+9,R30
001bf4 87ea      	STD  Y+9+1,R30
001bf5 85ad      	LDD  R26,Y+13
001bf6 85be      	LDD  R27,Y+13+1
001bf7 174a      	CP   R20,R26
001bf8 075b      	CPC  R21,R27
001bf9 f0bc      	BRLT _0x204005C
                 _0x204005E:
001bfa 0f10      	ADD  R17,R16
001bfb 85eb      	LDD  R30,Y+11
001bfc 85fc      	LDD  R31,Y+11+1
001bfd 940e 2140 	CALL SUBOPT_0x74
001bff 85a9      	LDD  R26,Y+9
001c00 85ba      	LDD  R27,Y+9+1
001c01 174a      	CP   R20,R26
001c02 075b      	CPC  R21,R27
001c03 f42c      	BRGE _0x2040060
001c04 0f32      	ADD  R19,R18
001c05 85af      	LDD  R26,Y+15
001c06 89b8      	LDD  R27,Y+15+1
001c07 940e 2147 	CALL SUBOPT_0x75
                 _0x2040060:
001c09 931a      	ST   -Y,R17
001c0a 940e 213c 	CALL SUBOPT_0x73
001c0c 87e8      	STD  Y+8,R30
001c0d 89ea      	LDD  R30,Y+18
001c0e 17e1      	CP   R30,R17
001c0f f751      	BRNE _0x204005E
001c10 c018      	RJMP _0x2040061
                 _0x204005C:
                 _0x2040063:
001c11 0f32      	ADD  R19,R18
001c12 85ef      	LDD  R30,Y+15
001c13 89f8      	LDD  R31,Y+15+1
001c14 940e 2140 	CALL SUBOPT_0x74
001c16 85ed      	LDD  R30,Y+13
001c17 85fe      	LDD  R31,Y+13+1
001c18 85a9      	LDD  R26,Y+9
001c19 85ba      	LDD  R27,Y+9+1
001c1a 17ea      	CP   R30,R26
001c1b 07fb      	CPC  R31,R27
001c1c f42c      	BRGE _0x2040065
001c1d 0f10      	ADD  R17,R16
001c1e 85ab      	LDD  R26,Y+11
001c1f 85bc      	LDD  R27,Y+11+1
001c20 940e 2147 	CALL SUBOPT_0x75
                 _0x2040065:
001c22 931a      	ST   -Y,R17
001c23 940e 213c 	CALL SUBOPT_0x73
001c25 87e8      	STD  Y+8,R30
001c26 89e9      	LDD  R30,Y+17
001c27 17e3      	CP   R30,R19
001c28 f741      	BRNE _0x2040063
                 _0x2040061:
001c29 89eb      	LDD  R30,Y+19
001c2a 5fef      	SUBI R30,-LOW(1)
001c2b 8beb      	STD  Y+19,R30
001c2c 89e9      	LDD  R30,Y+17
001c2d 5fef      	SUBI R30,-LOW(1)
001c2e 8be9      	STD  Y+17,R30
001c2f cf89      	RJMP _0x2040057
                 _0x2040059:
                 _0x2040056:
                 _0x204004C:
                 _0x2160006:
001c30 940e 227c 	CALL __LOADLOCR6
001c32 9665      	ADIW R28,21
001c33 9508      	RET
                 ; .FEND
                 _glcd_corners_G102:
                 ; .FSTART _glcd_corners_G102
001c34 93ba      	ST   -Y,R27
001c35 93aa      	ST   -Y,R26
001c36 940e 2275 	CALL __SAVELOCR6
001c38 81ee      	LDD  R30,Y+6
001c39 81ff      	LDD  R31,Y+6+1
001c3a 8113      	LDD  R17,Z+3
001c3b 8101      	LDD  R16,Z+1
001c3c 8132      	LDD  R19,Z+2
001c3d 81ae      	LDD  R26,Y+6
001c3e 81bf      	LDD  R27,Y+6+1
001c3f 912c      	LD   R18,X
001c40 1701      	CP   R16,R17
001c41 f418      	BRSH _0x2040066
001c42 2f50      	MOV  R21,R16
001c43 2f01      	MOV  R16,R17
001c44 2f15      	MOV  R17,R21
                 _0x2040066:
001c45 1723      	CP   R18,R19
001c46 f418      	BRSH _0x2040067
001c47 2f52      	MOV  R21,R18
001c48 2f23      	MOV  R18,R19
001c49 2f35      	MOV  R19,R21
                 _0x2040067:
001c4a 2fe1      	MOV  R30,R17
                +
001c4b 81ae     +LDD R26 , Y + 6
001c4c 81bf     +LDD R27 , Y + 6 + 1
001c4d 9613     +ADIW R26 , 3
001c4e 93ec     +ST X , R30
                 	__PUTB1SNS 6,3
001c4f 2fe3      	MOV  R30,R19
                +
001c50 81ae     +LDD R26 , Y + 6
001c51 81bf     +LDD R27 , Y + 6 + 1
001c52 9612     +ADIW R26 , 2
001c53 93ec     +ST X , R30
                 	__PUTB1SNS 6,2
001c54 2fe0      	MOV  R30,R16
                +
001c55 81ae     +LDD R26 , Y + 6
001c56 81bf     +LDD R27 , Y + 6 + 1
001c57 9611     +ADIW R26 , 1
001c58 93ec     +ST X , R30
                 	__PUTB1SNS 6,1
001c59 81ae      	LDD  R26,Y+6
001c5a 81bf      	LDD  R27,Y+6+1
001c5b 932c      	ST   X,R18
001c5c 940e 227c 	CALL __LOADLOCR6
001c5e c032      	RJMP _0x2160005
                 ; .FEND
                 _glcd_rectangle:
                 ; .FSTART _glcd_rectangle
001c5f 93aa      	ST   -Y,R26
001c60 940e 2277 	CALL __SAVELOCR4
                +
001c62 91e0 0a05+LDS R30 , _glcd_state + ( 8 )
                 	__GETB1MN _glcd_state,8
001c64 50e1      	SUBI R30,LOW(1)
001c65 2f3e      	MOV  R19,R30
001c66 01de      	MOVW R26,R28
001c67 9614      	ADIW R26,4
001c68 dfcb      	RCALL _glcd_corners_G102
001c69 81ed      	LDD  R30,Y+5
001c6a 1be3      	SUB  R30,R19
001c6b 2f1e      	MOV  R17,R30
001c6c 81ec      	LDD  R30,Y+4
001c6d 1be3      	SUB  R30,R19
001c6e 2f0e      	MOV  R16,R30
001c6f 81ef      	LDD  R30,Y+7
001c70 93ea      	ST   -Y,R30
001c71 81ef      	LDD  R30,Y+7
001c72 93ea      	ST   -Y,R30
001c73 931a      	ST   -Y,R17
001c74 85a9      	LDD  R26,Y+9
001c75 dec8      	RCALL _glcd_line
001c76 931a      	ST   -Y,R17
001c77 81ef      	LDD  R30,Y+7
001c78 93ea      	ST   -Y,R30
001c79 931a      	ST   -Y,R17
001c7a 2fa0      	MOV  R26,R16
001c7b dec2      	RCALL _glcd_line
001c7c 81ed      	LDD  R30,Y+5
001c7d 93ea      	ST   -Y,R30
001c7e 930a      	ST   -Y,R16
001c7f 2fe3      	MOV  R30,R19
001c80 85a9      	LDD  R26,Y+9
001c81 0fea      	ADD  R30,R26
001c82 93ea      	ST   -Y,R30
001c83 2fa0      	MOV  R26,R16
001c84 deb9      	RCALL _glcd_line
001c85 81ef      	LDD  R30,Y+7
001c86 93ea      	ST   -Y,R30
001c87 81ed      	LDD  R30,Y+5
001c88 93ea      	ST   -Y,R30
001c89 85e9      	LDD  R30,Y+9
001c8a 93ea      	ST   -Y,R30
001c8b 2fe3      	MOV  R30,R19
001c8c 85a9      	LDD  R26,Y+9
001c8d 0fae      	ADD  R26,R30
001c8e deaf      	RCALL _glcd_line
001c8f 940e 227e 	CALL __LOADLOCR4
                 _0x2160005:
001c91 9628      	ADIW R28,8
001c92 9508      	RET
                 ; .FEND
                 
                 	.CSEG
                 
                 	.CSEG
                 _memset:
                 ; .FSTART _memset
001c93 93ba      	ST   -Y,R27
001c94 93aa      	ST   -Y,R26
001c95 81b9          ldd  r27,y+1
001c96 81a8          ld   r26,y
001c97 9610          adiw r26,0
001c98 f031          breq memset1
001c99 81fc          ldd  r31,y+4
001c9a 81eb          ldd  r30,y+3
001c9b 816a          ldd  r22,y+2
                 memset0:
001c9c 9361          st   z+,r22
001c9d 9711          sbiw r26,1
001c9e f7e9          brne memset0
                 memset1:
001c9f 81eb          ldd  r30,y+3
001ca0 81fc          ldd  r31,y+4
                 _0x2160004:
001ca1 9625      	ADIW R28,5
001ca2 9508      	RET
                 ; .FEND
                 _strcat:
                 ; .FSTART _strcat
001ca3 93ba      	ST   -Y,R27
001ca4 93aa      	ST   -Y,R26
001ca5 91e9          ld   r30,y+
001ca6 91f9          ld   r31,y+
001ca7 91a9          ld   r26,y+
001ca8 91b9          ld   r27,y+
001ca9 01cd          movw r24,r26
                 strcat0:
001caa 916d          ld   r22,x+
001cab 2366          tst  r22
001cac f7e9          brne strcat0
001cad 9711          sbiw r26,1
                 strcat1:
001cae 9161          ld   r22,z+
001caf 936d          st   x+,r22
001cb0 2366          tst  r22
001cb1 f7e1          brne strcat1
001cb2 01fc          movw r30,r24
001cb3 9508          ret
                 ; .FEND
                 _strcpy:
                 ; .FSTART _strcpy
001cb4 93ba      	ST   -Y,R27
001cb5 93aa      	ST   -Y,R26
001cb6 91e9          ld   r30,y+
001cb7 91f9          ld   r31,y+
001cb8 91a9          ld   r26,y+
001cb9 91b9          ld   r27,y+
001cba 01cd          movw r24,r26
                 strcpy0:
001cbb 9161          ld   r22,z+
001cbc 936d          st   x+,r22
001cbd 2366          tst  r22
001cbe f7e1          brne strcpy0
001cbf 01fc          movw r30,r24
001cc0 9508          ret
                 ; .FEND
                 _strstr:
                 ; .FSTART _strstr
001cc1 93ba      	ST   -Y,R27
001cc2 93aa      	ST   -Y,R26
001cc3 81aa          ldd  r26,y+2
001cc4 81bb          ldd  r27,y+3
001cc5 01cd          movw r24,r26
                 strstr0:
001cc6 81e8          ld   r30,y
001cc7 81f9          ldd  r31,y+1
                 strstr1:
001cc8 9171          ld   r23,z+
001cc9 2377          tst  r23
001cca f411          brne strstr2
001ccb 01fc          movw r30,r24
001ccc c009          rjmp strstr3
                 strstr2:
001ccd 916d          ld   r22,x+
001cce 1767          cp   r22,r23
001ccf f3c1          breq strstr1
001cd0 9601          adiw r24,1
001cd1 01dc          movw r26,r24
001cd2 2366          tst  r22
001cd3 f791          brne strstr0
001cd4 27ee          clr  r30
001cd5 27ff          clr  r31
                 strstr3:
001cd6 940c 1d95 	JMP  _0x2160001
                 ; .FEND
                 
                 	.CSEG
                 _atoi:
                 ; .FSTART _atoi
001cd8 93ba      	ST   -Y,R27
001cd9 93aa      	ST   -Y,R26
001cda 81b9         	ldd  r27,y+1
001cdb 81a8         	ld   r26,y
                 __atoi0:
001cdc 91ec         	ld   r30,x
001cdd 2f8a              mov  r24,r26
001cde 2fae      	MOV  R26,R30
001cdf 940e 1da0 	CALL _isspace
001ce1 2fa8              mov  r26,r24
001ce2 23ee         	tst  r30
001ce3 f011         	breq __atoi1
001ce4 9611         	adiw r26,1
001ce5 cff6         	rjmp __atoi0
                 __atoi1:
001ce6 94e8         	clt
001ce7 91ec         	ld   r30,x
001ce8 32ed         	cpi  r30,'-'
001ce9 f411         	brne __atoi2
001cea 9468         	set
001ceb c002         	rjmp __atoi3
                 __atoi2:
001cec 32eb         	cpi  r30,'+'
001ced f409         	brne __atoi4
                 __atoi3:
001cee 9611         	adiw r26,1
                 __atoi4:
001cef 2766         	clr  r22
001cf0 2777         	clr  r23
                 __atoi5:
001cf1 91ec         	ld   r30,x
001cf2 2f8a              mov  r24,r26
001cf3 2fae      	MOV  R26,R30
001cf4 940e 1d97 	CALL _isdigit
001cf6 2fa8              mov  r26,r24
001cf7 23ee         	tst  r30
001cf8 f079         	breq __atoi6
001cf9 01fb         	movw r30,r22
001cfa 0f66         	lsl  r22
001cfb 1f77         	rol  r23
001cfc 0f66         	lsl  r22
001cfd 1f77         	rol  r23
001cfe 0f6e         	add  r22,r30
001cff 1f7f         	adc  r23,r31
001d00 0f66         	lsl  r22
001d01 1f77         	rol  r23
001d02 91ed         	ld   r30,x+
001d03 27ff         	clr  r31
001d04 53e0         	subi r30,'0'
001d05 0f6e         	add  r22,r30
001d06 1f7f         	adc  r23,r31
001d07 cfe9         	rjmp __atoi5
                 __atoi6:
001d08 01fb         	movw r30,r22
001d09 f41e         	brtc __atoi7
001d0a 95e0         	com  r30
001d0b 95f0         	com  r31
001d0c 9631         	adiw r30,1
                 __atoi7:
001d0d 9622         	adiw r28,2
001d0e 9508         	ret
                 ; .FEND
                 
                 	.DSEG
                 
                 	.CSEG
                 
                 	.CSEG
                 _bcd2bin:
                 ; .FSTART _bcd2bin
001d0f 93aa      	ST   -Y,R26
001d10 81e8          ld   r30,y
001d11 95e2          swap r30
001d12 70ef          andi r30,0xf
001d13 2fae          mov  r26,r30
001d14 0faa          lsl  r26
001d15 0faa          lsl  r26
001d16 0fea          add  r30,r26
001d17 0fee          lsl  r30
001d18 91a9          ld   r26,y+
001d19 70af          andi r26,0xf
001d1a 0fea          add  r30,r26
001d1b 9508          ret
                 ; .FEND
                 _bin2bcd:
                 ; .FSTART _bin2bcd
001d1c 93aa      	ST   -Y,R26
001d1d 91a9          ld   r26,y+
001d1e 27ee          clr  r30
                 bin2bcd0:
001d1f 50aa          subi r26,10
001d20 f012          brmi bin2bcd1
001d21 5fe0          subi r30,-16
001d22 cffc          rjmp bin2bcd0
                 bin2bcd1:
001d23 5fa6          subi r26,-10
001d24 0fea          add  r30,r26
001d25 9508          ret
                 ; .FEND
                 
                 	.CSEG
                 _glcd_getmask:
                 ; .FSTART _glcd_getmask
001d26 93aa      	ST   -Y,R26
001d27 81e8      	LD   R30,Y
001d28 e0f0      	LDI  R31,0
001d29 55ec      	SUBI R30,LOW(-__glcd_mask*2)
001d2a 4ff8      	SBCI R31,HIGH(-__glcd_mask*2)
001d2b 91a4      	LPM  R26,Z
001d2c 81e9      	LDD  R30,Y+1
001d2d 940e 21b2 	CALL __LSLB12
                 _0x2160003:
001d2f 9622      	ADIW R28,2
001d30 9508      	RET
                 ; .FEND
                 _glcd_mappixcolor1bit:
                 ; .FSTART _glcd_mappixcolor1bit
001d31 93aa      	ST   -Y,R26
001d32 931a      	ST   -Y,R17
001d33 81e9      	LDD  R30,Y+1
001d34 30e7      	CPI  R30,LOW(0x7)
001d35 f011      	BREQ _0x2100007
001d36 30ea      	CPI  R30,LOW(0xA)
001d37 f419      	BRNE _0x2100008
                 _0x2100007:
001d38 9110 09fd 	LDS  R17,_glcd_state
001d3a c009      	RJMP _0x2100009
                 _0x2100008:
001d3b 30e9      	CPI  R30,LOW(0x9)
001d3c f419      	BRNE _0x210000B
                +
001d3d 9110 09fe+LDS R17 , _glcd_state + ( 1 )
                 	__GETBRMN 17,_glcd_state,1
001d3f c004      	RJMP _0x2100009
                 _0x210000B:
001d40 30e8      	CPI  R30,LOW(0x8)
001d41 f4a1      	BRNE _0x2100005
                +
001d42 9110 0a0d+LDS R17 , _glcd_state + ( 16 )
                 	__GETBRMN 17,_glcd_state,16
                 _0x2100009:
                +
001d44 91e0 09fe+LDS R30 , _glcd_state + ( 1 )
                 	__GETB1MN _glcd_state,1
001d46 30e0      	CPI  R30,0
001d47 f049      	BREQ _0x210000E
001d48 3010      	CPI  R17,0
001d49 f019      	BREQ _0x210000F
001d4a efef      	LDI  R30,LOW(255)
001d4b 8118      	LDD  R17,Y+0
001d4c c029      	RJMP _0x2160002
                 _0x210000F:
001d4d 81ea      	LDD  R30,Y+2
001d4e 95e0      	COM  R30
001d4f 8118      	LDD  R17,Y+0
001d50 c025      	RJMP _0x2160002
                 _0x210000E:
001d51 3010      	CPI  R17,0
001d52 f419      	BRNE _0x2100011
001d53 e0e0      	LDI  R30,LOW(0)
001d54 8118      	LDD  R17,Y+0
001d55 c020      	RJMP _0x2160002
                 _0x2100011:
                 _0x2100005:
001d56 81ea      	LDD  R30,Y+2
001d57 8118      	LDD  R17,Y+0
001d58 c01d      	RJMP _0x2160002
                 ; .FEND
                 _glcd_readmem:
                 ; .FSTART _glcd_readmem
001d59 93ba      	ST   -Y,R27
001d5a 93aa      	ST   -Y,R26
001d5b 81ea      	LDD  R30,Y+2
001d5c 30e1      	CPI  R30,LOW(0x1)
001d5d f421      	BRNE _0x2100015
001d5e 81e8      	LD   R30,Y
001d5f 81f9      	LDD  R31,Y+1
001d60 91e4      	LPM  R30,Z
001d61 c014      	RJMP _0x2160002
                 _0x2100015:
001d62 30e2      	CPI  R30,LOW(0x2)
001d63 f429      	BRNE _0x2100016
001d64 81a8      	LD   R26,Y
001d65 81b9      	LDD  R27,Y+1
001d66 940e 2243 	CALL __EEPROMRDB
001d68 c00d      	RJMP _0x2160002
                 _0x2100016:
001d69 30e3      	CPI  R30,LOW(0x3)
001d6a f441      	BRNE _0x2100018
001d6b 81a8      	LD   R26,Y
001d6c 81b9      	LDD  R27,Y+1
                +
001d6d 91e0 0a16+LDS R30 , _glcd_state + ( 25 )
001d6f 91f0 0a17+LDS R31 , _glcd_state + ( 25 ) + 1
001d71 9509     +ICALL
                 	__CALL1MN _glcd_state,25
001d72 c003      	RJMP _0x2160002
                 _0x2100018:
001d73 81a8      	LD   R26,Y
001d74 81b9      	LDD  R27,Y+1
001d75 91ec      	LD   R30,X
                 _0x2160002:
001d76 9623      	ADIW R28,3
001d77 9508      	RET
                 ; .FEND
                 _glcd_writemem:
                 ; .FSTART _glcd_writemem
001d78 93aa      	ST   -Y,R26
001d79 81eb      	LDD  R30,Y+3
001d7a 30e0      	CPI  R30,0
001d7b f429      	BRNE _0x210001C
001d7c 81e8      	LD   R30,Y
001d7d 81a9      	LDD  R26,Y+1
001d7e 81ba      	LDD  R27,Y+1+1
001d7f 93ec      	ST   X,R30
001d80 c014      	RJMP _0x210001B
                 _0x210001C:
001d81 30e2      	CPI  R30,LOW(0x2)
001d82 f431      	BRNE _0x210001D
001d83 81e8      	LD   R30,Y
001d84 81a9      	LDD  R26,Y+1
001d85 81ba      	LDD  R27,Y+1+1
001d86 940e 2257 	CALL __EEPROMWRB
001d88 c00c      	RJMP _0x210001B
                 _0x210001D:
001d89 30e3      	CPI  R30,LOW(0x3)
001d8a f451      	BRNE _0x210001B
001d8b 81e9      	LDD  R30,Y+1
001d8c 81fa      	LDD  R31,Y+1+1
001d8d 93fa      	ST   -Y,R31
001d8e 93ea      	ST   -Y,R30
001d8f 81aa      	LDD  R26,Y+2
                +
001d90 91e0 0a18+LDS R30 , _glcd_state + ( 27 )
001d92 91f0 0a19+LDS R31 , _glcd_state + ( 27 ) + 1
001d94 9509     +ICALL
                 	__CALL1MN _glcd_state,27
                 _0x210001B:
                 _0x2160001:
001d95 9624      	ADIW R28,4
001d96 9508      	RET
                 ; .FEND
                 
                 	.CSEG
                 
                 	.CSEG
                 _isdigit:
                 ; .FSTART _isdigit
001d97 93aa      	ST   -Y,R26
001d98 e0e1          ldi  r30,1
001d99 91f9          ld   r31,y+
001d9a 33f0          cpi  r31,'0'
001d9b f010          brlo isdigit0
001d9c 33fa          cpi  r31,'9'+1
001d9d f008          brlo isdigit1
                 isdigit0:
001d9e 27ee          clr  r30
                 isdigit1:
001d9f 9508          ret
                 ; .FEND
                 _isspace:
                 ; .FSTART _isspace
001da0 93aa      	ST   -Y,R26
001da1 e0e1          ldi  r30,1
001da2 91f9          ld   r31,y+
001da3 32f0          cpi  r31,' '
001da4 f029          breq isspace1
001da5 30f9          cpi  r31,9
001da6 f010          brlo isspace0
001da7 30fe          cpi  r31,13+1
001da8 f008          brlo isspace1
                 isspace0:
001da9 27ee          clr  r30
                 isspace1:
001daa 9508          ret
                 ; .FEND
                 
                 	.DSEG
                 _glcd_state:
0009fd           	.BYTE 0x1D
                 _name_week_day:
000a1a           	.BYTE 0x10
                 _name_day:
000a2a           	.BYTE 0x40
                 _name_month:
000a6a           	.BYTE 0x1A
                 _name_year:
000a84           	.BYTE 0x20
                 _name_second:
000aa4           	.BYTE 0x78
                 _name_minute:
000b1c           	.BYTE 0x78
                 _name_hour:
000b94           	.BYTE 0x30
                 _name_relay:
000bc4           	.BYTE 0xE
                 _milisec:
000bd2           	.BYTE 0x4
                 _year:
000bd6           	.BYTE 0x1
                 _hour:
000bd7           	.BYTE 0x1
                 _minute:
000bd8           	.BYTE 0x1
                 _second:
000bd9           	.BYTE 0x1
                 _Address1:
000bda           	.BYTE 0x1
                 _Address2:
000bdb           	.BYTE 0x1
                 _Address3:
000bdc           	.BYTE 0x1
                 _Address4:
000bdd           	.BYTE 0x1
                 _station_receive:
000bde           	.BYTE 0xC
                 
                 	.ESEG
                 _node:
000000           	.BYTE 0xFC
                 
                 	.DSEG
                 _sim:
000bea           	.BYTE 0x1
                 _money_code:
000beb           	.BYTE 0x14
                 _money:
000bff           	.BYTE 0xA
                 _is_get_money:
000c09           	.BYTE 0x1
                 _buffer_index:
000c0a           	.BYTE 0x2
                 _receive_buffer:
000c0c           	.BYTE 0x1F4
                 _rx_buffer1:
000e00           	.BYTE 0x40
                 _rx_wr_index1:
000e40           	.BYTE 0x1
                 _rx_rd_index1:
000e41           	.BYTE 0x1
                 _rx_counter1:
000e42           	.BYTE 0x1
                 _tx_buffer1:
000e43           	.BYTE 0x40
                 _tx_wr_index1:
000e83           	.BYTE 0x1
                 _tx_rd_index1:
000e84           	.BYTE 0x1
                 _tx_counter1:
000e85           	.BYTE 0x1
                 _gfx_addr_G101:
000e86           	.BYTE 0x2
                 _gfx_buffer_G101:
000e88           	.BYTE 0x1F8
                 __seed_G106:
001080           	.BYTE 0x4
                 
                 	.CSEG
                 ;OPTIMIZER ADDED SUBROUTINE, CALLED 2 TIMES, CODE SIZE REDUCTION:2 WORDS
                 SUBOPT_0x0:
001dab 9ac3      	SBI  0x18,3
                +
001dac e08d     +LDI R24 , LOW ( 13 )
                +__DELAY_USB_LOOP :
001dad 958a     +DEC R24
001dae f7f1     +BRNE __DELAY_USB_LOOP
                 	__DELAY_USB 13
001daf e0e0      	LDI  R30,0
001db0 99b2      	SBIC 0x16,2
001db1 e0e1      	LDI  R30,1
001db2 9508      	RET
                 
                 ;OPTIMIZER ADDED SUBROUTINE, CALLED 3 TIMES, CODE SIZE REDUCTION:7 WORDS
                 SUBOPT_0x1:
001db3 81a8      	LD   R26,Y
001db4 940e 094d 	CALL _SPI_Write
001db6 9ac5      	SBI  0x18,5
                +
001db7 e18b     +LDI R24 , LOW ( 27 )
                +__DELAY_USB_LOOP :
001db8 958a     +DEC R24
001db9 f7f1     +BRNE __DELAY_USB_LOOP
                 	__DELAY_USB 27
001dba 9508      	RET
                 
                 ;OPTIMIZER ADDED SUBROUTINE, CALLED 2 TIMES, CODE SIZE REDUCTION:2 WORDS
                 SUBOPT_0x2:
001dbb 93aa      	ST   -Y,R26
001dbc 98c5      	CBI  0x18,5
001dbd 81e9      	LDD  R30,Y+1
001dbe 62e0      	ORI  R30,0x20
001dbf 2fae      	MOV  R26,R30
001dc0 940c 094d 	JMP  _SPI_Write
                 
                 ;OPTIMIZER ADDED SUBROUTINE, CALLED 2 TIMES, CODE SIZE REDUCTION:7 WORDS
                 SUBOPT_0x3:
001dc2 81a8      	LD   R26,Y
001dc3 940e 094d 	CALL _SPI_Write
001dc5 81a8      	LD   R26,Y
001dc6 940e 094d 	CALL _SPI_Write
001dc8 81a8      	LD   R26,Y
001dc9 940e 094d 	CALL _SPI_Write
001dcb 81a8      	LD   R26,Y
001dcc 940c 094d 	JMP  _SPI_Write
                 
                 ;OPTIMIZER ADDED SUBROUTINE, CALLED 4 TIMES, CODE SIZE REDUCTION:3 WORDS
                 SUBOPT_0x4:
001dce 9ac5      	SBI  0x18,5
                +
001dcf e18b     +LDI R24 , LOW ( 27 )
                +__DELAY_USB_LOOP :
001dd0 958a     +DEC R24
001dd1 f7f1     +BRNE __DELAY_USB_LOOP
                 	__DELAY_USB 27
001dd2 9508      	RET
                 
                 ;OPTIMIZER ADDED SUBROUTINE, CALLED 2 TIMES, CODE SIZE REDUCTION:4 WORDS
                 SUBOPT_0x5:
001dd3 93aa      	ST   -Y,R26
001dd4 98c5      	CBI  0x18,5
001dd5 e0e3      	LDI  R30,LOW(3)
001dd6 93ea      	ST   -Y,R30
001dd7 e0a3      	LDI  R26,LOW(3)
001dd8 940e 0980 	CALL _RF_Write
001dda cff3      	RJMP SUBOPT_0x4
                 
                 ;OPTIMIZER ADDED SUBROUTINE, CALLED 3 TIMES, CODE SIZE REDUCTION:9 WORDS
                 SUBOPT_0x6:
001ddb e0e7      	LDI  R30,LOW(7)
001ddc 93ea      	ST   -Y,R30
001ddd e7ae      	LDI  R26,LOW(126)
001dde 940e 0980 	CALL _RF_Write
001de0 eea2      	LDI  R26,LOW(226)
001de1 940c 097b 	JMP  _RF_Command
                 
                 ;OPTIMIZER ADDED SUBROUTINE, CALLED 4 TIMES, CODE SIZE REDUCTION:6 WORDS
                 SUBOPT_0x7:
001de3 e0f0      	LDI  R31,0
001de4 93ed      	ST   X+,R30
001de5 93fc      	ST   X,R31
001de6 940c 0969 	JMP  _SPI_Read
                 
                 ;OPTIMIZER ADDED SUBROUTINE, CALLED 23 TIMES, CODE SIZE REDUCTION:85 WORDS
                 SUBOPT_0x8:
001de8 e8ec      	LDI  R30,LOW(_font5x7*2)
001de9 e0f0      	LDI  R31,HIGH(_font5x7*2)
                +
001dea 93e0 0a01+STS _glcd_state + ( 4 ) , R30
001dec 93f0 0a02+STS _glcd_state + ( 4 ) + 1 , R31
                 	__PUTW1MN _glcd_state,4
001dee 9508      	RET
                 
                 ;OPTIMIZER ADDED SUBROUTINE, CALLED 6 TIMES, CODE SIZE REDUCTION:7 WORDS
                 SUBOPT_0x9:
001def 931a      	ST   -Y,R17
001df0 930a      	ST   -Y,R16
                +
001df1 e000     +LDI R16 , LOW ( 0 )
001df2 e010     +LDI R17 , HIGH ( 0 )
                 	__GETWRN 16,17,0
001df3 9508      	RET
                 
                 ;OPTIMIZER ADDED SUBROUTINE, CALLED 3 TIMES, CODE SIZE REDUCTION:5 WORDS
                 SUBOPT_0xA:
001df4 e0e0      	LDI  R30,LOW(0)
001df5 93ea      	ST   -Y,R30
001df6 93ea      	ST   -Y,R30
001df7 e5e4      	LDI  R30,LOW(84)
001df8 93ea      	ST   -Y,R30
001df9 9508      	RET
                 
                 ;OPTIMIZER ADDED SUBROUTINE, CALLED 2 TIMES, CODE SIZE REDUCTION:5 WORDS
                 SUBOPT_0xB:
001dfa 940e 120b 	CALL _get_relay_status
001dfc e1ea      	LDI  R30,LOW(_relay_icon_7x7*2)
001dfd e0f7      	LDI  R31,HIGH(_relay_icon_7x7*2)
                +
001dfe 93e0 0a01+STS _glcd_state + ( 4 ) , R30
001e00 93f0 0a02+STS _glcd_state + ( 4 ) + 1 , R31
                 	__PUTW1MN _glcd_state,4
                +
001e02 e001     +LDI R16 , LOW ( 1 )
001e03 e010     +LDI R17 , HIGH ( 1 )
                 	__GETWRN 16,17,1
001e04 9508      	RET
                 
                 ;OPTIMIZER ADDED SUBROUTINE, CALLED 2 TIMES, CODE SIZE REDUCTION:16 WORDS
                 SUBOPT_0xC:
001e05 2fe0      	MOV  R30,R16
001e06 0fee      	LSL  R30
001e07 0fee      	LSL  R30
001e08 0fee      	LSL  R30
001e09 5ee5      	SUBI R30,-LOW(27)
001e0a 93ea      	ST   -Y,R30
001e0b e2e7      	LDI  R30,LOW(39)
001e0c 93ea      	ST   -Y,R30
                +
001e0d e2aa     +LDI R26 , 42
001e0e 9fa0     +MUL R26 , R16
001e0f 01f0     +MOVW R30 , R0
001e10 9fa1     +MUL R26 , R17
001e11 0df0     +ADD R31 , R0
                 	__MULBNWRU 16,17,42
001e12 50e0      	SUBI R30,LOW(-_node)
001e13 40f0      	SBCI R31,HIGH(-_node)
001e14 01df      	MOVW R26,R30
001e15 940e 2243 	CALL __EEPROMRDB
001e17 2fae      	MOV  R26,R30
001e18 940c 1ae1 	JMP  _glcd_putcharxy
                 
                 ;OPTIMIZER ADDED SUBROUTINE, CALLED 35 TIMES, CODE SIZE REDUCTION:65 WORDS
                 SUBOPT_0xD:
                +
001e1a 93e0 0a01+STS _glcd_state + ( 4 ) , R30
001e1c 93f0 0a02+STS _glcd_state + ( 4 ) + 1 , R31
                 	__PUTW1MN _glcd_state,4
001e1e 9508      	RET
                 
                 ;OPTIMIZER ADDED SUBROUTINE, CALLED 2 TIMES, CODE SIZE REDUCTION:7 WORDS
                 SUBOPT_0xE:
001e1f ede7      	LDI  R30,LOW(_hour)
001e20 e0fb      	LDI  R31,HIGH(_hour)
001e21 93fa      	ST   -Y,R31
001e22 93ea      	ST   -Y,R30
001e23 ede8      	LDI  R30,LOW(_minute)
001e24 e0fb      	LDI  R31,HIGH(_minute)
001e25 93fa      	ST   -Y,R31
001e26 93ea      	ST   -Y,R30
001e27 eda9      	LDI  R26,LOW(_second)
001e28 e0bb      	LDI  R27,HIGH(_second)
001e29 940c 1632 	JMP  _rtc_get_time
                 
                 ;OPTIMIZER ADDED SUBROUTINE, CALLED 23 TIMES, CODE SIZE REDUCTION:41 WORDS
                 SUBOPT_0xF:
001e2b e7e0      	LDI  R30,LOW(_big_letter_10x14*2)
001e2c e0f2      	LDI  R31,HIGH(_big_letter_10x14*2)
001e2d cfec      	RJMP SUBOPT_0xD
                 
                 ;OPTIMIZER ADDED SUBROUTINE, CALLED 5 TIMES, CODE SIZE REDUCTION:29 WORDS
                 SUBOPT_0x10:
001e2e e0f0      	LDI  R31,0
001e2f 0fee      	LSL  R30
001e30 1fff      	ROL  R31
001e31 0fae      	ADD  R26,R30
001e32 1fbf      	ADC  R27,R31
001e33 940e 2233 	CALL __GETW1P
001e35 01df      	MOVW R26,R30
001e36 940c 1af4 	JMP  _glcd_outtextxyf
                 
                 ;OPTIMIZER ADDED SUBROUTINE, CALLED 2 TIMES, CODE SIZE REDUCTION:5 WORDS
                 SUBOPT_0x11:
001e38 e0f0      	LDI  R31,0
001e39 0fee      	LSL  R30
001e3a 1fff      	ROL  R31
001e3b 0fae      	ADD  R26,R30
001e3c 1fbf      	ADC  R27,R31
001e3d 940e 2233 	CALL __GETW1P
001e3f 01df      	MOVW R26,R30
001e40 940c 1b0a 	JMP  _glcd_outtextf
                 
                 ;OPTIMIZER ADDED SUBROUTINE, CALLED 4 TIMES, CODE SIZE REDUCTION:9 WORDS
                 SUBOPT_0x12:
001e42 01fe      	MOVW R30,R28
001e43 9632      	ADIW R30,2
001e44 93fa      	ST   -Y,R31
001e45 93ea      	ST   -Y,R30
001e46 e0e0      	LDI  R30,LOW(0)
001e47 93ea      	ST   -Y,R30
001e48 9508      	RET
                 
                 ;OPTIMIZER ADDED SUBROUTINE, CALLED 3 TIMES, CODE SIZE REDUCTION:5 WORDS
                 SUBOPT_0x13:
001e49 01f8      	MOVW R30,R16
001e4a 01de      	MOVW R26,R28
001e4b 9612      	ADIW R26,2
001e4c 0fea      	ADD  R30,R26
001e4d 1ffb      	ADC  R31,R27
001e4e 010f      	MOVW R0,R30
001e4f 9508      	RET
                 
                 ;OPTIMIZER ADDED SUBROUTINE, CALLED 5 TIMES, CODE SIZE REDUCTION:5 WORDS
                 SUBOPT_0x14:
001e50 93ba      	ST   -Y,R27
001e51 93aa      	ST   -Y,R26
001e52 81e8      	LD   R30,Y
001e53 81f9      	LDD  R31,Y+1
001e54 9508      	RET
                 
                 ;OPTIMIZER ADDED SUBROUTINE, CALLED 2 TIMES, CODE SIZE REDUCTION:2 WORDS
                 SUBOPT_0x15:
001e55 2de8      	MOV  R30,R8
001e56 50e7      	SUBI R30,LOW(7)
001e57 93ea      	ST   -Y,R30
001e58 92aa      	ST   -Y,R10
001e59 e3ae      	LDI  R26,LOW(62)
001e5a 940c 1ae1 	JMP  _glcd_putcharxy
                 
                 ;OPTIMIZER ADDED SUBROUTINE, CALLED 7 TIMES, CODE SIZE REDUCTION:9 WORDS
                 SUBOPT_0x16:
001e5c 940e 2277 	CALL __SAVELOCR4
                +
001e5e e000     +LDI R16 , LOW ( 0 )
001e5f e010     +LDI R17 , HIGH ( 0 )
                 	__GETWRN 16,17,0
001e60 9508      	RET
                 
                 ;OPTIMIZER ADDED SUBROUTINE, CALLED 5 TIMES, CODE SIZE REDUCTION:13 WORDS
                 SUBOPT_0x17:
001e61 940e 0b98 	CALL _gui_set_title
001e63 01f5      	MOVW R30,R10
001e64 9630      	ADIW R30,0
001e65 93fa      	ST   -Y,R31
001e66 93ea      	ST   -Y,R30
001e67 9508      	RET
                 
                 ;OPTIMIZER ADDED SUBROUTINE, CALLED 5 TIMES, CODE SIZE REDUCTION:13 WORDS
                 SUBOPT_0x18:
001e68 940e 0b02 	CALL _gui_set_choice
001e6a 01f5      	MOVW R30,R10
001e6b 9638      	ADIW R30,8
001e6c 93fa      	ST   -Y,R31
001e6d 93ea      	ST   -Y,R30
001e6e 9508      	RET
                 
                 ;OPTIMIZER ADDED SUBROUTINE, CALLED 4 TIMES, CODE SIZE REDUCTION:9 WORDS
                 SUBOPT_0x19:
001e6f 940e 0b02 	CALL _gui_set_choice
001e71 01f5      	MOVW R30,R10
001e72 9670      	ADIW R30,16
001e73 93fa      	ST   -Y,R31
001e74 93ea      	ST   -Y,R30
001e75 9508      	RET
                 
                 ;OPTIMIZER ADDED SUBROUTINE, CALLED 3 TIMES, CODE SIZE REDUCTION:5 WORDS
                 SUBOPT_0x1A:
001e76 940e 0b02 	CALL _gui_set_choice
001e78 01f5      	MOVW R30,R10
001e79 9678      	ADIW R30,24
001e7a 93fa      	ST   -Y,R31
001e7b 93ea      	ST   -Y,R30
001e7c 9508      	RET
                 
                 ;OPTIMIZER ADDED SUBROUTINE, CALLED 3 TIMES, CODE SIZE REDUCTION:9 WORDS
                 SUBOPT_0x1B:
                +
001e7d 5f2f     +SUBI R18 , LOW ( - 1 )
001e7e 4f3f     +SBCI R19 , HIGH ( - 1 )
                 	__ADDWRN 18,19,1
001e7f 01f5      	MOVW R30,R10
001e80 9638      	ADIW R30,8
001e81 015f      	MOVW R10,R30
                +
001e82 3025     +CPI R18 , LOW ( 5 )
001e83 e0e0     +LDI R30 , HIGH ( 5 )
001e84 073e     +CPC R19 , R30
                 	__CPWRN 18,19,5
001e85 9508      	RET
                 
                 ;OPTIMIZER ADDED SUBROUTINE, CALLED 3 TIMES, CODE SIZE REDUCTION:7 WORDS
                 SUBOPT_0x1C:
                +
001e86 e004     +LDI R16 , LOW ( 4 )
001e87 e010     +LDI R17 , HIGH ( 4 )
                 	__GETWRN 16,17,4
                +
001e88 e021     +LDI R18 , LOW ( 1 )
001e89 e030     +LDI R19 , HIGH ( 1 )
                 	__GETWRN 18,19,1
001e8a e0ef      	LDI  R30,LOW(15)
001e8b e0f0      	LDI  R31,HIGH(15)
001e8c 015f      	MOVW R10,R30
001e8d 9508      	RET
                 
                 ;OPTIMIZER ADDED SUBROUTINE, CALLED 5 TIMES, CODE SIZE REDUCTION:9 WORDS
                 SUBOPT_0x1D:
001e8e 01d8      	MOVW R26,R16
001e8f 940e 0b46 	CALL _gui_cursor_move
                +
001e91 e000     +LDI R16 , LOW ( 0 )
001e92 e010     +LDI R17 , HIGH ( 0 )
                 	__GETWRN 16,17,0
001e93 9508      	RET
                 
                 ;OPTIMIZER ADDED SUBROUTINE, CALLED 3 TIMES, CODE SIZE REDUCTION:5 WORDS
                 SUBOPT_0x1E:
001e94 01fe      	MOVW R30,R28
001e95 9634      	ADIW R30,4
001e96 93fa      	ST   -Y,R31
001e97 93ea      	ST   -Y,R30
001e98 e0e0      	LDI  R30,LOW(0)
001e99 93ea      	ST   -Y,R30
001e9a 9508      	RET
                 
                 ;OPTIMIZER ADDED SUBROUTINE, CALLED 2 TIMES, CODE SIZE REDUCTION:1 WORDS
                 SUBOPT_0x1F:
001e9b 01f8      	MOVW R30,R16
001e9c 01de      	MOVW R26,R28
001e9d 9614      	ADIW R26,4
001e9e 0fea      	ADD  R30,R26
001e9f 1ffb      	ADC  R31,R27
001ea0 010f      	MOVW R0,R30
001ea1 9508      	RET
                 
                 ;OPTIMIZER ADDED SUBROUTINE, CALLED 11 TIMES, CODE SIZE REDUCTION:47 WORDS
                 SUBOPT_0x20:
001ea2 2de8      	MOV  R30,R8
001ea3 50e7      	SUBI R30,LOW(7)
001ea4 93ea      	ST   -Y,R30
001ea5 92aa      	ST   -Y,R10
001ea6 e2a0      	LDI  R26,LOW(32)
001ea7 940c 1ae1 	JMP  _glcd_putcharxy
                 
                 ;OPTIMIZER ADDED SUBROUTINE, CALLED 2 TIMES, CODE SIZE REDUCTION:3 WORDS
                 SUBOPT_0x21:
001ea9 9894      	CBI  0x12,4
                +
001eaa e2aa     +LDI R26 , LOW ( _node + ( 42 ) )
001eab e0b0     +LDI R27 , HIGH ( _node + ( 42 ) )
                 	__POINTW2MN _node,42
001eac e0e0      	LDI  R30,LOW(0)
001ead 940e 2257 	CALL __EEPROMWRB
                +
001eaf e5a2     +LDI R26 , LOW ( _node + ( 82 ) )
001eb0 e0b0     +LDI R27 , HIGH ( _node + ( 82 ) )
                 	__POINTW2MN _node,82
001eb1 9508      	RET
                 
                 ;OPTIMIZER ADDED SUBROUTINE, CALLED 2 TIMES, CODE SIZE REDUCTION:3 WORDS
                 SUBOPT_0x22:
001eb2 9897      	CBI  0x12,7
                +
001eb3 e5a4     +LDI R26 , LOW ( _node + ( 84 ) )
001eb4 e0b0     +LDI R27 , HIGH ( _node + ( 84 ) )
                 	__POINTW2MN _node,84
001eb5 e0e0      	LDI  R30,LOW(0)
001eb6 940e 2257 	CALL __EEPROMWRB
                +
001eb8 e7ac     +LDI R26 , LOW ( _node + ( 124 ) )
001eb9 e0b0     +LDI R27 , HIGH ( _node + ( 124 ) )
                 	__POINTW2MN _node,124
001eba 9508      	RET
                 
                 ;OPTIMIZER ADDED SUBROUTINE, CALLED 2 TIMES, CODE SIZE REDUCTION:3 WORDS
                 SUBOPT_0x23:
001ebb 98af      	CBI  0x15,7
                +
001ebc e7ae     +LDI R26 , LOW ( _node + ( 126 ) )
001ebd e0b0     +LDI R27 , HIGH ( _node + ( 126 ) )
                 	__POINTW2MN _node,126
001ebe e0e0      	LDI  R30,LOW(0)
001ebf 940e 2257 	CALL __EEPROMWRB
                +
001ec1 eaa6     +LDI R26 , LOW ( _node + ( 166 ) )
001ec2 e0b0     +LDI R27 , HIGH ( _node + ( 166 ) )
                 	__POINTW2MN _node,166
001ec3 9508      	RET
                 
                 ;OPTIMIZER ADDED SUBROUTINE, CALLED 2 TIMES, CODE SIZE REDUCTION:3 WORDS
                 SUBOPT_0x24:
001ec4 98df      	CBI  0x1B,7
                +
001ec5 eaa8     +LDI R26 , LOW ( _node + ( 168 ) )
001ec6 e0b0     +LDI R27 , HIGH ( _node + ( 168 ) )
                 	__POINTW2MN _node,168
001ec7 e0e0      	LDI  R30,LOW(0)
001ec8 940e 2257 	CALL __EEPROMWRB
                +
001eca eda0     +LDI R26 , LOW ( _node + ( 208 ) )
001ecb e0b0     +LDI R27 , HIGH ( _node + ( 208 ) )
                 	__POINTW2MN _node,208
001ecc 9508      	RET
                 
                 ;OPTIMIZER ADDED SUBROUTINE, CALLED 2 TIMES, CODE SIZE REDUCTION:3 WORDS
                 SUBOPT_0x25:
001ecd 98da      	CBI  0x1B,2
                +
001ece eda2     +LDI R26 , LOW ( _node + ( 210 ) )
001ecf e0b0     +LDI R27 , HIGH ( _node + ( 210 ) )
                 	__POINTW2MN _node,210
001ed0 e0e0      	LDI  R30,LOW(0)
001ed1 940e 2257 	CALL __EEPROMWRB
                +
001ed3 efaa     +LDI R26 , LOW ( _node + ( 250 ) )
001ed4 e0b0     +LDI R27 , HIGH ( _node + ( 250 ) )
                 	__POINTW2MN _node,250
001ed5 9508      	RET
                 
                 ;OPTIMIZER ADDED SUBROUTINE, CALLED 2 TIMES, CODE SIZE REDUCTION:8 WORDS
                 SUBOPT_0x26:
001ed6 920a      	ST   -Y,R0
001ed7 921a      	ST   -Y,R1
001ed8 92fa      	ST   -Y,R15
001ed9 936a      	ST   -Y,R22
001eda 937a      	ST   -Y,R23
001edb 938a      	ST   -Y,R24
001edc 939a      	ST   -Y,R25
001edd 93aa      	ST   -Y,R26
001ede 93ba      	ST   -Y,R27
001edf 93ea      	ST   -Y,R30
001ee0 93fa      	ST   -Y,R31
001ee1 b7ef      	IN   R30,SREG
001ee2 93ea      	ST   -Y,R30
001ee3 9508      	RET
                 
                 ;OPTIMIZER ADDED SUBROUTINE, CALLED 6 TIMES, CODE SIZE REDUCTION:12 WORDS
                 SUBOPT_0x27:
001ee4 91ed      	LD   R30,X+
001ee5 91fd      	LD   R31,X+
001ee6 9631      	ADIW R30,1
001ee7 93fe      	ST   -X,R31
001ee8 93ee      	ST   -X,R30
001ee9 9508      	RET
                 
                 ;OPTIMIZER ADDED SUBROUTINE, CALLED 2 TIMES, CODE SIZE REDUCTION:8 WORDS
                 SUBOPT_0x28:
001eea 91e9      	LD   R30,Y+
001eeb bfef      	OUT  SREG,R30
001eec 91f9      	LD   R31,Y+
001eed 91e9      	LD   R30,Y+
001eee 91b9      	LD   R27,Y+
001eef 91a9      	LD   R26,Y+
001ef0 9199      	LD   R25,Y+
001ef1 9189      	LD   R24,Y+
001ef2 9179      	LD   R23,Y+
001ef3 9169      	LD   R22,Y+
001ef4 90f9      	LD   R15,Y+
001ef5 9019      	LD   R1,Y+
001ef6 9009      	LD   R0,Y+
001ef7 9508      	RET
                 
                 ;OPTIMIZER ADDED SUBROUTINE, CALLED 4 TIMES, CODE SIZE REDUCTION:15 WORDS
                 SUBOPT_0x29:
001ef8 91a0 0bd2 	LDS  R26,_milisec
001efa 91b0 0bd3 	LDS  R27,_milisec+1
001efc 9180 0bd4 	LDS  R24,_milisec+2
001efe 9190 0bd5 	LDS  R25,_milisec+3
001f00 9508      	RET
                 
                 ;OPTIMIZER ADDED SUBROUTINE, CALLED 2 TIMES, CODE SIZE REDUCTION:3 WORDS
                 SUBOPT_0x2A:
001f01 91ec      	LD   R30,X
001f02 01d0      	MOVW R26,R0
001f03 93ec      	ST   X,R30
001f04 81ee      	LDD  R30,Y+6
001f05 81ff      	LDD  R31,Y+6+1
001f06 9631      	ADIW R30,1
001f07 83ee      	STD  Y+6,R30
001f08 83ff      	STD  Y+6+1,R31
001f09 9508      	RET
                 
                 ;OPTIMIZER ADDED SUBROUTINE, CALLED 6 TIMES, CODE SIZE REDUCTION:7 WORDS
                 SUBOPT_0x2B:
001f0a 93fa      	ST   -Y,R31
001f0b 93ea      	ST   -Y,R30
001f0c e0e0      	LDI  R30,LOW(0)
001f0d 93ea      	ST   -Y,R30
001f0e 9508      	RET
                 
                 ;OPTIMIZER ADDED SUBROUTINE, CALLED 13 TIMES, CODE SIZE REDUCTION:93 WORDS
                 SUBOPT_0x2C:
001f0f 93fa      	ST   -Y,R31
001f10 93ea      	ST   -Y,R30
001f11 e3e2      	LDI  R30,LOW(50)
001f12 e0f0      	LDI  R31,HIGH(50)
001f13 93fa      	ST   -Y,R31
001f14 93ea      	ST   -Y,R30
001f15 e0a5      	LDI  R26,LOW(5)
001f16 e0b0      	LDI  R27,HIGH(5)
001f17 940c 0cd7 	JMP  _put_command
                 
                 ;OPTIMIZER ADDED SUBROUTINE, CALLED 6 TIMES, CODE SIZE REDUCTION:7 WORDS
                 SUBOPT_0x2D:
001f19 e0aa      	LDI  R26,LOW(10)
001f1a e0b0      	LDI  R27,0
001f1b 940c 1c93 	JMP  _memset
                 
                 ;OPTIMIZER ADDED SUBROUTINE, CALLED 5 TIMES, CODE SIZE REDUCTION:5 WORDS
                 SUBOPT_0x2E:
001f1d e0ac      	LDI  R26,LOW(_receive_buffer)
001f1e e0bc      	LDI  R27,HIGH(_receive_buffer)
001f1f 0fa0      	ADD  R26,R16
001f20 1fb1      	ADC  R27,R17
001f21 9508      	RET
                 
                 ;OPTIMIZER ADDED SUBROUTINE, CALLED 2 TIMES, CODE SIZE REDUCTION:2 WORDS
                 SUBOPT_0x2F:
                +
001f22 01de     +MOVW R26 , R28
001f23 55a4     +SUBI R26 , LOW ( - 172 )
001f24 4fbf     +SBCI R27 , HIGH ( - 172 )
001f25 900d     +LD R0 , X +
001f26 91bc     +LD R27 , X
001f27 2da0     +MOV R26 , R0
                 	__GETW2SX 172
001f28 91ec      	LD   R30,X
001f29 9508      	RET
                 
                 ;OPTIMIZER ADDED SUBROUTINE, CALLED 3 TIMES, CODE SIZE REDUCTION:1 WORDS
                 SUBOPT_0x30:
001f2a 01fe      	MOVW R30,R28
001f2b 9632      	ADIW R30,2
001f2c 93fa      	ST   -Y,R31
001f2d 93ea      	ST   -Y,R30
001f2e 9508      	RET
                 
                 ;OPTIMIZER ADDED SUBROUTINE, CALLED 15 TIMES, CODE SIZE REDUCTION:25 WORDS
                 SUBOPT_0x31:
001f2f 01fe      	MOVW R30,R28
001f30 963c      	ADIW R30,12
001f31 93fa      	ST   -Y,R31
001f32 93ea      	ST   -Y,R30
001f33 9508      	RET
                 
                 ;OPTIMIZER ADDED SUBROUTINE, CALLED 3 TIMES, CODE SIZE REDUCTION:1 WORDS
                 SUBOPT_0x32:
001f34 85e8      	LDD  R30,Y+8
001f35 85f9      	LDD  R31,Y+8+1
001f36 01de      	MOVW R26,R28
001f37 961e      	ADIW R26,14
001f38 9508      	RET
                 
                 ;OPTIMIZER ADDED SUBROUTINE, CALLED 3 TIMES, CODE SIZE REDUCTION:3 WORDS
                 SUBOPT_0x33:
001f39 85e8      	LDD  R30,Y+8
001f3a 85f9      	LDD  R31,Y+8+1
001f3b 9631      	ADIW R30,1
001f3c 87e8      	STD  Y+8,R30
001f3d 87f9      	STD  Y+8+1,R31
001f3e 9508      	RET
                 
                 ;OPTIMIZER ADDED SUBROUTINE, CALLED 4 TIMES, CODE SIZE REDUCTION:15 WORDS
                 SUBOPT_0x34:
001f3f 01fa      	MOVW R30,R20
001f40 e3ac      	LDI  R26,LOW(60)
001f41 e0b0      	LDI  R27,HIGH(60)
001f42 940e 21df 	CALL __MULW12
001f44 01db      	MOVW R26,R22
001f45 940e 224f 	CALL __EEPROMWRW
001f47 9508      	RET
                 
                 ;OPTIMIZER ADDED SUBROUTINE, CALLED 5 TIMES, CODE SIZE REDUCTION:5 WORDS
                 SUBOPT_0x35:
                +
001f48 e001     +LDI R16 , LOW ( 1 )
001f49 e010     +LDI R17 , HIGH ( 1 )
                 	__GETWRN 16,17,1
001f4a 940c 0a2a 	JMP  _clrscr
                 
                 ;OPTIMIZER ADDED SUBROUTINE, CALLED 3 TIMES, CODE SIZE REDUCTION:5 WORDS
                 SUBOPT_0x36:
001f4c 940e 0b98 	CALL _gui_set_title
001f4e e2ec      	LDI  R30,LOW(_relay_icon_10x14*2)
001f4f e0f7      	LDI  R31,HIGH(_relay_icon_10x14*2)
001f50 cec9      	RJMP SUBOPT_0xD
                 
                 ;OPTIMIZER ADDED SUBROUTINE, CALLED 8 TIMES, CODE SIZE REDUCTION:11 WORDS
                 SUBOPT_0x37:
001f51 e0e5      	LDI  R30,LOW(5)
001f52 93ea      	ST   -Y,R30
001f53 e1e6      	LDI  R30,LOW(22)
001f54 93ea      	ST   -Y,R30
001f55 9508      	RET
                 
                 ;OPTIMIZER ADDED SUBROUTINE, CALLED 2 TIMES, CODE SIZE REDUCTION:2 WORDS
                 SUBOPT_0x38:
001f56 940e 2243 	CALL __EEPROMRDB
001f58 2fae      	MOV  R26,R30
001f59 940e 1ae1 	CALL _glcd_putcharxy
001f5b cecf      	RJMP SUBOPT_0xF
                 
                 ;OPTIMIZER ADDED SUBROUTINE, CALLED 2 TIMES, CODE SIZE REDUCTION:11 WORDS
                 SUBOPT_0x39:
001f5c e1e9      	LDI  R30,LOW(25)
001f5d 93ea      	ST   -Y,R30
001f5e e1e6      	LDI  R30,LOW(22)
001f5f 93ea      	ST   -Y,R30
001f60 01f8      	MOVW R30,R16
001f61 eca4      	LDI  R26,LOW(_name_relay)
001f62 e0bb      	LDI  R27,HIGH(_name_relay)
001f63 0fee      	LSL  R30
001f64 1fff      	ROL  R31
001f65 0fae      	ADD  R26,R30
001f66 1fbf      	ADC  R27,R31
001f67 940e 2233 	CALL __GETW1P
001f69 01df      	MOVW R26,R30
001f6a 940c 1af4 	JMP  _glcd_outtextxyf
                 
                 ;OPTIMIZER ADDED SUBROUTINE, CALLED 2 TIMES, CODE SIZE REDUCTION:2 WORDS
                 SUBOPT_0x3A:
                +
001f6c e2aa     +LDI R26 , 42
001f6d 9fa0     +MUL R26 , R16
001f6e 01f0     +MOVW R30 , R0
001f6f 9fa1     +MUL R26 , R17
001f70 0df0     +ADD R31 , R0
                 	__MULBNWRU 16,17,42
001f71 50e0      	SUBI R30,LOW(-_node)
001f72 40f0      	SBCI R31,HIGH(-_node)
001f73 9508      	RET
                 
                 ;OPTIMIZER ADDED SUBROUTINE, CALLED 2 TIMES, CODE SIZE REDUCTION:4 WORDS
                 SUBOPT_0x3B:
001f74 01bf      	MOVW R22,R30
001f75 01df      	MOVW R26,R30
001f76 940e 2243 	CALL __EEPROMRDB
001f78 940e 21cc 	CALL __LNEGB1
001f7a 01db      	MOVW R26,R22
001f7b 940e 2257 	CALL __EEPROMWRB
001f7d 9508      	RET
                 
                 ;OPTIMIZER ADDED SUBROUTINE, CALLED 5 TIMES, CODE SIZE REDUCTION:5 WORDS
                 SUBOPT_0x3C:
001f7e e2ec      	LDI  R30,LOW(_relay_icon_10x14*2)
001f7f e0f7      	LDI  R31,HIGH(_relay_icon_10x14*2)
001f80 ce99      	RJMP SUBOPT_0xD
                 
                 ;OPTIMIZER ADDED SUBROUTINE, CALLED 19 TIMES, CODE SIZE REDUCTION:33 WORDS
                 SUBOPT_0x3D:
001f81 940e 1afe 	CALL _glcd_outtext
001f83 ce64      	RJMP SUBOPT_0x8
                 
                 ;OPTIMIZER ADDED SUBROUTINE, CALLED 2 TIMES, CODE SIZE REDUCTION:1 WORDS
                 SUBOPT_0x3E:
001f84 e0a0      	LDI  R26,0
001f85 9994      	SBIC 0x12,4
001f86 e0a1      	LDI  R26,1
001f87 e0e0      	LDI  R30,LOW(0)
001f88 940e 21c7 	CALL __EQB12
001f8a 9508      	RET
                 
                 ;OPTIMIZER ADDED SUBROUTINE, CALLED 2 TIMES, CODE SIZE REDUCTION:1 WORDS
                 SUBOPT_0x3F:
001f8b e0a0      	LDI  R26,0
001f8c 9997      	SBIC 0x12,7
001f8d e0a1      	LDI  R26,1
001f8e e0e0      	LDI  R30,LOW(0)
001f8f 940e 21c7 	CALL __EQB12
001f91 9508      	RET
                 
                 ;OPTIMIZER ADDED SUBROUTINE, CALLED 2 TIMES, CODE SIZE REDUCTION:1 WORDS
                 SUBOPT_0x40:
001f92 e0a0      	LDI  R26,0
001f93 99af      	SBIC 0x15,7
001f94 e0a1      	LDI  R26,1
001f95 e0e0      	LDI  R30,LOW(0)
001f96 940e 21c7 	CALL __EQB12
001f98 9508      	RET
                 
                 ;OPTIMIZER ADDED SUBROUTINE, CALLED 2 TIMES, CODE SIZE REDUCTION:1 WORDS
                 SUBOPT_0x41:
001f99 e0a0      	LDI  R26,0
001f9a 99df      	SBIC 0x1B,7
001f9b e0a1      	LDI  R26,1
001f9c e0e0      	LDI  R30,LOW(0)
001f9d 940e 21c7 	CALL __EQB12
001f9f 9508      	RET
                 
                 ;OPTIMIZER ADDED SUBROUTINE, CALLED 2 TIMES, CODE SIZE REDUCTION:1 WORDS
                 SUBOPT_0x42:
001fa0 e0a0      	LDI  R26,0
001fa1 99da      	SBIC 0x1B,2
001fa2 e0a1      	LDI  R26,1
001fa3 e0e0      	LDI  R30,LOW(0)
001fa4 940e 21c7 	CALL __EQB12
001fa6 9508      	RET
                 
                 ;OPTIMIZER ADDED SUBROUTINE, CALLED 5 TIMES, CODE SIZE REDUCTION:5 WORDS
                 SUBOPT_0x43:
                +
001fa7 e000     +LDI R16 , LOW ( 0 )
001fa8 e010     +LDI R17 , HIGH ( 0 )
                 	__GETWRN 16,17,0
001fa9 940c 0a2a 	JMP  _clrscr
                 
                 ;OPTIMIZER ADDED SUBROUTINE, CALLED 3 TIMES, CODE SIZE REDUCTION:7 WORDS
                 SUBOPT_0x44:
001fab 81ac      	LDD  R26,Y+4
001fac 81bd      	LDD  R27,Y+4+1
001fad e2ea      	LDI  R30,LOW(42)
001fae 940e 21d9 	CALL __MULB1W2U
                +
001fb0 5fef     +SUBI R30 , LOW ( - _node - ( 1 ) )
001fb1 4fff     +SBCI R31 , HIGH ( - _node - ( 1 ) )
                 	__ADDW1MN _node,1
001fb2 9508      	RET
                 
                 ;OPTIMIZER ADDED SUBROUTINE, CALLED 6 TIMES, CODE SIZE REDUCTION:22 WORDS
                 SUBOPT_0x45:
001fb3 01df      	MOVW R26,R30
001fb4 940e 2243 	CALL __EEPROMRDB
001fb6 5de0      	SUBI R30,-LOW(48)
001fb7 2fae      	MOV  R26,R30
001fb8 940c 1ae1 	JMP  _glcd_putcharxy
                 
                 ;OPTIMIZER ADDED SUBROUTINE, CALLED 4 TIMES, CODE SIZE REDUCTION:39 WORDS
                 SUBOPT_0x46:
001fba e1e9      	LDI  R30,LOW(25)
001fbb 93ea      	ST   -Y,R30
001fbc e1e6      	LDI  R30,LOW(22)
001fbd 93ea      	ST   -Y,R30
001fbe 01f8      	MOVW R30,R16
001fbf e9a4      	LDI  R26,LOW(_name_hour)
001fc0 e0bb      	LDI  R27,HIGH(_name_hour)
001fc1 0fee      	LSL  R30
001fc2 1fff      	ROL  R31
001fc3 0fae      	ADD  R26,R30
001fc4 1fbf      	ADC  R27,R31
001fc5 940e 2233 	CALL __GETW1P
001fc7 01df      	MOVW R26,R30
001fc8 940c 1af4 	JMP  _glcd_outtextxyf
                 
                 ;OPTIMIZER ADDED SUBROUTINE, CALLED 2 TIMES, CODE SIZE REDUCTION:10 WORDS
                 SUBOPT_0x47:
001fca 0fe0      	ADD  R30,R16
001fcb 1ff1      	ADC  R31,R17
                +
001fcc 2f7e     +MOV R23 , R30
001fcd 2f8f     +MOV R24 , R31
                 	__PUTW1R 23,24
001fce 01df      	MOVW R26,R30
001fcf 940e 2243 	CALL __EEPROMRDB
001fd1 940e 21cc 	CALL __LNEGB1
                +
001fd3 2fa7     +MOV R26 , R23
001fd4 2fb8     +MOV R27 , R24
                 	__GETW2R 23,24
001fd5 940e 2257 	CALL __EEPROMWRB
001fd7 cfa6      	RJMP SUBOPT_0x3C
                 
                 ;OPTIMIZER ADDED SUBROUTINE, CALLED 4 TIMES, CODE SIZE REDUCTION:3 WORDS
                 SUBOPT_0x48:
001fd8 0fe0      	ADD  R30,R16
001fd9 1ff1      	ADC  R31,R17
001fda cfd8      	RJMP SUBOPT_0x45
                 
                 ;OPTIMIZER ADDED SUBROUTINE, CALLED 3 TIMES, CODE SIZE REDUCTION:3 WORDS
                 SUBOPT_0x49:
001fdb 81ac      	LDD  R26,Y+4
001fdc 81bd      	LDD  R27,Y+4+1
001fdd e2ea      	LDI  R30,LOW(42)
001fde 940e 21d9 	CALL __MULB1W2U
001fe0 9508      	RET
                 
                 ;OPTIMIZER ADDED SUBROUTINE, CALLED 4 TIMES, CODE SIZE REDUCTION:39 WORDS
                 SUBOPT_0x4A:
001fe1 e1e9      	LDI  R30,LOW(25)
001fe2 93ea      	ST   -Y,R30
001fe3 e1e6      	LDI  R30,LOW(22)
001fe4 93ea      	ST   -Y,R30
001fe5 01f8      	MOVW R30,R16
001fe6 e1aa      	LDI  R26,LOW(_name_week_day)
001fe7 e0ba      	LDI  R27,HIGH(_name_week_day)
001fe8 0fee      	LSL  R30
001fe9 1fff      	ROL  R31
001fea 0fae      	ADD  R26,R30
001feb 1fbf      	ADC  R27,R31
001fec 940e 2233 	CALL __GETW1P
001fee 01df      	MOVW R26,R30
001fef 940c 1af4 	JMP  _glcd_outtextxyf
                 
                 ;OPTIMIZER ADDED SUBROUTINE, CALLED 5 TIMES, CODE SIZE REDUCTION:5 WORDS
                 SUBOPT_0x4B:
001ff1 5de0      	SUBI R30,-LOW(48)
001ff2 01d0      	MOVW R26,R0
001ff3 940e 2257 	CALL __EEPROMWRB
001ff5 9508      	RET
                 
                 ;OPTIMIZER ADDED SUBROUTINE, CALLED 7 TIMES, CODE SIZE REDUCTION:9 WORDS
                 SUBOPT_0x4C:
001ff6 940e 0b98 	CALL _gui_set_title
001ff8 ce32      	RJMP SUBOPT_0xF
                 
                 ;OPTIMIZER ADDED SUBROUTINE, CALLED 2 TIMES, CODE SIZE REDUCTION:11 WORDS
                 SUBOPT_0x4D:
001ff9 e1e9      	LDI  R30,LOW(25)
001ffa 93ea      	ST   -Y,R30
001ffb e1e6      	LDI  R30,LOW(22)
001ffc 93ea      	ST   -Y,R30
001ffd 01f8      	MOVW R30,R16
001ffe e2aa      	LDI  R26,LOW(_name_day)
001fff e0ba      	LDI  R27,HIGH(_name_day)
002000 0fee      	LSL  R30
002001 1fff      	ROL  R31
002002 0fae      	ADD  R26,R30
002003 1fbf      	ADC  R27,R31
002004 940e 2233 	CALL __GETW1P
002006 01df      	MOVW R26,R30
002007 940c 1af4 	JMP  _glcd_outtextxyf
                 
                 ;OPTIMIZER ADDED SUBROUTINE, CALLED 2 TIMES, CODE SIZE REDUCTION:11 WORDS
                 SUBOPT_0x4E:
002009 e1e9      	LDI  R30,LOW(25)
00200a 93ea      	ST   -Y,R30
00200b e1e6      	LDI  R30,LOW(22)
00200c 93ea      	ST   -Y,R30
00200d 01f8      	MOVW R30,R16
00200e e6aa      	LDI  R26,LOW(_name_month)
00200f e0ba      	LDI  R27,HIGH(_name_month)
002010 0fee      	LSL  R30
002011 1fff      	ROL  R31
002012 0fae      	ADD  R26,R30
002013 1fbf      	ADC  R27,R31
002014 940e 2233 	CALL __GETW1P
002016 01df      	MOVW R26,R30
002017 940c 1af4 	JMP  _glcd_outtextxyf
                 
                 ;OPTIMIZER ADDED SUBROUTINE, CALLED 2 TIMES, CODE SIZE REDUCTION:11 WORDS
                 SUBOPT_0x4F:
002019 e0ef      	LDI  R30,LOW(15)
00201a 93ea      	ST   -Y,R30
00201b e1e6      	LDI  R30,LOW(22)
00201c 93ea      	ST   -Y,R30
00201d 01f8      	MOVW R30,R16
00201e e8a4      	LDI  R26,LOW(_name_year)
00201f e0ba      	LDI  R27,HIGH(_name_year)
002020 0fee      	LSL  R30
002021 1fff      	ROL  R31
002022 0fae      	ADD  R26,R30
002023 1fbf      	ADC  R27,R31
002024 940e 2233 	CALL __GETW1P
002026 01df      	MOVW R26,R30
002027 940c 1af4 	JMP  _glcd_outtextxyf
                 
                 ;OPTIMIZER ADDED SUBROUTINE, CALLED 2 TIMES, CODE SIZE REDUCTION:11 WORDS
                 SUBOPT_0x50:
002029 e1e9      	LDI  R30,LOW(25)
00202a 93ea      	ST   -Y,R30
00202b e1e6      	LDI  R30,LOW(22)
00202c 93ea      	ST   -Y,R30
00202d 01f8      	MOVW R30,R16
00202e e1ac      	LDI  R26,LOW(_name_minute)
00202f e0bb      	LDI  R27,HIGH(_name_minute)
002030 0fee      	LSL  R30
002031 1fff      	ROL  R31
002032 0fae      	ADD  R26,R30
002033 1fbf      	ADC  R27,R31
002034 940e 2233 	CALL __GETW1P
002036 01df      	MOVW R26,R30
002037 940c 1af4 	JMP  _glcd_outtextxyf
                 
                 ;OPTIMIZER ADDED SUBROUTINE, CALLED 2 TIMES, CODE SIZE REDUCTION:11 WORDS
                 SUBOPT_0x51:
002039 e1e9      	LDI  R30,LOW(25)
00203a 93ea      	ST   -Y,R30
00203b e1e6      	LDI  R30,LOW(22)
00203c 93ea      	ST   -Y,R30
00203d 01f8      	MOVW R30,R16
00203e eaa4      	LDI  R26,LOW(_name_second)
00203f e0ba      	LDI  R27,HIGH(_name_second)
002040 0fee      	LSL  R30
002041 1fff      	ROL  R31
002042 0fae      	ADD  R26,R30
002043 1fbf      	ADC  R27,R31
002044 940e 2233 	CALL __GETW1P
002046 01df      	MOVW R26,R30
002047 940c 1af4 	JMP  _glcd_outtextxyf
                 
                 ;OPTIMIZER ADDED SUBROUTINE, CALLED 3 TIMES, CODE SIZE REDUCTION:1 WORDS
                 SUBOPT_0x52:
                +
002049 e021     +LDI R18 , LOW ( 1 )
00204a e030     +LDI R19 , HIGH ( 1 )
                 	__GETWRN 18,19,1
00204b 940c 0a2a 	JMP  _clrscr
                 
                 ;OPTIMIZER ADDED SUBROUTINE, CALLED 4 TIMES, CODE SIZE REDUCTION:12 WORDS
                 SUBOPT_0x53:
00204d 926a      	ST   -Y,R6
00204e 92da      	ST   -Y,R13
00204f 92ca      	ST   -Y,R12
002050 91a0 0bd6 	LDS  R26,_year
002052 940c 1672 	JMP  _rtc_set_date
                 
                 ;OPTIMIZER ADDED SUBROUTINE, CALLED 3 TIMES, CODE SIZE REDUCTION:13 WORDS
                 SUBOPT_0x54:
002054 91e0 0bd7 	LDS  R30,_hour
002056 93ea      	ST   -Y,R30
002057 91e0 0bd8 	LDS  R30,_minute
002059 93ea      	ST   -Y,R30
00205a 91a0 0bd9 	LDS  R26,_second
00205c 940c 164a 	JMP  _rtc_set_time
                 
                 ;OPTIMIZER ADDED SUBROUTINE, CALLED 2 TIMES, CODE SIZE REDUCTION:4 WORDS
                 SUBOPT_0x55:
00205e e0e0      	LDI  R30,LOW(0)
00205f 93e0 0bd2 	STS  _milisec,R30
002061 93e0 0bd3 	STS  _milisec+1,R30
002063 93e0 0bd4 	STS  _milisec+2,R30
002065 93e0 0bd5 	STS  _milisec+3,R30
002067 9508      	RET
                 
                 ;OPTIMIZER ADDED SUBROUTINE, CALLED 2 TIMES, CODE SIZE REDUCTION:5 WORDS
                 SUBOPT_0x56:
                +
002068 e2aa     +LDI R26 , 42
002069 9fa2     +MUL R26 , R18
00206a 01f0     +MOVW R30 , R0
00206b 9fa3     +MUL R26 , R19
00206c 0df0     +ADD R31 , R0
                 	__MULBNWRU 18,19,42
                +
00206d 5de8     +SUBI R30 , LOW ( - _node - ( 40 ) )
00206e 4fff     +SBCI R31 , HIGH ( - _node - ( 40 ) )
                 	__ADDW1MN _node,40
00206f 01df      	MOVW R26,R30
002070 940e 223f 	CALL __EEPROMRDW
002072 9508      	RET
                 
                 ;OPTIMIZER ADDED SUBROUTINE, CALLED 5 TIMES, CODE SIZE REDUCTION:9 WORDS
                 SUBOPT_0x57:
002073 940e 2153 	CALL _i2c_start
002075 eda0      	LDI  R26,LOW(208)
002076 940c 2187 	JMP  _i2c_write
                 
                 ;OPTIMIZER ADDED SUBROUTINE, CALLED 5 TIMES, CODE SIZE REDUCTION:5 WORDS
                 SUBOPT_0x58:
002078 940e 2187 	CALL _i2c_write
00207a 940c 2162 	JMP  _i2c_stop
                 
                 ;OPTIMIZER ADDED SUBROUTINE, CALLED 2 TIMES, CODE SIZE REDUCTION:3 WORDS
                 SUBOPT_0x59:
00207c 940e 2153 	CALL _i2c_start
00207e eda1      	LDI  R26,LOW(209)
00207f 940e 2187 	CALL _i2c_write
002081 e0a1      	LDI  R26,LOW(1)
002082 940c 216c 	JMP  _i2c_read
                 
                 ;OPTIMIZER ADDED SUBROUTINE, CALLED 2 TIMES, CODE SIZE REDUCTION:1 WORDS
                 SUBOPT_0x5A:
002084 2fae      	MOV  R26,R30
002085 940e 1d0f 	CALL _bcd2bin
002087 81a8      	LD   R26,Y
002088 81b9      	LDD  R27,Y+1
002089 93ec      	ST   X,R30
00208a 9508      	RET
                 
                 ;OPTIMIZER ADDED SUBROUTINE, CALLED 3 TIMES, CODE SIZE REDUCTION:5 WORDS
                 SUBOPT_0x5B:
00208b e0a1      	LDI  R26,LOW(1)
00208c 940e 216c 	CALL _i2c_read
00208e 2fae      	MOV  R26,R30
00208f 940c 1d0f 	JMP  _bcd2bin
                 
                 ;OPTIMIZER ADDED SUBROUTINE, CALLED 2 TIMES, CODE SIZE REDUCTION:1 WORDS
                 SUBOPT_0x5C:
002091 81aa      	LDD  R26,Y+2
002092 81bb      	LDD  R27,Y+2+1
002093 93ec      	ST   X,R30
002094 e0a0      	LDI  R26,LOW(0)
002095 940c 216c 	JMP  _i2c_read
                 
                 ;OPTIMIZER ADDED SUBROUTINE, CALLED 2 TIMES, CODE SIZE REDUCTION:1 WORDS
                 SUBOPT_0x5D:
002097 940e 2187 	CALL _i2c_write
002099 81a8      	LD   R26,Y
00209a 940e 1d1c 	CALL _bin2bcd
00209c 2fae      	MOV  R26,R30
00209d 9508      	RET
                 
                 ;OPTIMIZER ADDED SUBROUTINE, CALLED 2 TIMES, CODE SIZE REDUCTION:1 WORDS
                 SUBOPT_0x5E:
00209e 940e 2187 	CALL _i2c_write
0020a0 81a9      	LDD  R26,Y+1
0020a1 940e 1d1c 	CALL _bin2bcd
0020a3 2fae      	MOV  R26,R30
0020a4 9508      	RET
                 
                 ;OPTIMIZER ADDED SUBROUTINE, CALLED 2 TIMES, CODE SIZE REDUCTION:1 WORDS
                 SUBOPT_0x5F:
0020a5 940e 2187 	CALL _i2c_write
0020a7 81aa      	LDD  R26,Y+2
0020a8 940e 1d1c 	CALL _bin2bcd
0020aa 2fae      	MOV  R26,R30
0020ab 9508      	RET
                 
                 ;OPTIMIZER ADDED SUBROUTINE, CALLED 4 TIMES, CODE SIZE REDUCTION:3 WORDS
                 SUBOPT_0x60:
0020ac e8a6      	LDI  R26,LOW(_gfx_addr_G101)
0020ad e0be      	LDI  R27,HIGH(_gfx_addr_G101)
0020ae ce35      	RJMP SUBOPT_0x27
                 
                 ;OPTIMIZER ADDED SUBROUTINE, CALLED 3 TIMES, CODE SIZE REDUCTION:1 WORDS
                 SUBOPT_0x61:
0020af 0fea      	ADD  R30,R26
0020b0 1ffb      	ADC  R31,R27
0020b1 83ee      	STD  Y+6,R30
0020b2 83ff      	STD  Y+6+1,R31
0020b3 9508      	RET
                 
                 ;OPTIMIZER ADDED SUBROUTINE, CALLED 2 TIMES, CODE SIZE REDUCTION:8 WORDS
                 SUBOPT_0x62:
0020b4 85ec      	LDD  R30,Y+12
0020b5 93ea      	ST   -Y,R30
0020b6 81ef      	LDD  R30,Y+7
0020b7 85f8      	LDD  R31,Y+7+1
0020b8 9631      	ADIW R30,1
0020b9 83ef      	STD  Y+7,R30
0020ba 87f8      	STD  Y+7+1,R31
0020bb 9731      	SBIW R30,1
0020bc 93fa      	ST   -Y,R31
0020bd 93ea      	ST   -Y,R30
0020be e0a0      	LDI  R26,LOW(0)
0020bf 940c 1d78 	JMP  _glcd_writemem
                 
                 ;OPTIMIZER ADDED SUBROUTINE, CALLED 3 TIMES, CODE SIZE REDUCTION:1 WORDS
                 SUBOPT_0x63:
0020c1 930a      	ST   -Y,R16
0020c2 89a8      	LDD  R26,Y+16
0020c3 940c 16a5 	JMP  _pcd8544_setaddr_G101
                 
                 ;OPTIMIZER ADDED SUBROUTINE, CALLED 4 TIMES, CODE SIZE REDUCTION:15 WORDS
                 SUBOPT_0x64:
0020c5 85ec      	LDD  R30,Y+12
0020c6 93ea      	ST   -Y,R30
0020c7 81ef      	LDD  R30,Y+7
0020c8 85f8      	LDD  R31,Y+7+1
0020c9 9631      	ADIW R30,1
0020ca 83ef      	STD  Y+7,R30
0020cb 87f8      	STD  Y+7+1,R31
0020cc 9731      	SBIW R30,1
0020cd 9508      	RET
                 
                 ;OPTIMIZER ADDED SUBROUTINE, CALLED 3 TIMES, CODE SIZE REDUCTION:5 WORDS
                 SUBOPT_0x65:
0020ce 2766      	CLR  R22
0020cf 2777      	CLR  R23
0020d0 01df      	MOVW R26,R30
0020d1 01cb      	MOVW R24,R22
0020d2 940c 1d59 	JMP  _glcd_readmem
                 
                 ;OPTIMIZER ADDED SUBROUTINE, CALLED 3 TIMES, CODE SIZE REDUCTION:1 WORDS
                 SUBOPT_0x66:
0020d4 935a      	ST   -Y,R21
0020d5 85aa      	LDD  R26,Y+10
0020d6 940c 1d31 	JMP  _glcd_mappixcolor1bit
                 
                 ;OPTIMIZER ADDED SUBROUTINE, CALLED 3 TIMES, CODE SIZE REDUCTION:3 WORDS
                 SUBOPT_0x67:
0020d8 930a      	ST   -Y,R16
0020d9 9503      	INC  R16
0020da 89e8      	LDD  R30,Y+16
0020db 93ea      	ST   -Y,R30
0020dc 935a      	ST   -Y,R21
0020dd 9508      	RET
                 
                 ;OPTIMIZER ADDED SUBROUTINE, CALLED 2 TIMES, CODE SIZE REDUCTION:5 WORDS
                 SUBOPT_0x68:
0020de 2f5e      	MOV  R21,R30
0020df 85ec      	LDD  R30,Y+12
0020e0 93ea      	ST   -Y,R30
0020e1 81af      	LDD  R26,Y+7
0020e2 85b8      	LDD  R27,Y+7+1
0020e3 2788      	CLR  R24
0020e4 2799      	CLR  R25
0020e5 940e 1d59 	CALL _glcd_readmem
0020e7 2e1e      	MOV  R1,R30
0020e8 9508      	RET
                 
                 ;OPTIMIZER ADDED SUBROUTINE, CALLED 2 TIMES, CODE SIZE REDUCTION:9 WORDS
                 SUBOPT_0x69:
0020e9 930a      	ST   -Y,R16
0020ea 9503      	INC  R16
0020eb 89e8      	LDD  R30,Y+16
0020ec 93ea      	ST   -Y,R30
0020ed 85ee      	LDD  R30,Y+14
0020ee 93ea      	ST   -Y,R30
0020ef 85e9      	LDD  R30,Y+9
0020f0 85fa      	LDD  R31,Y+9+1
0020f1 9631      	ADIW R30,1
0020f2 87e9      	STD  Y+9,R30
0020f3 87fa      	STD  Y+9+1,R31
0020f4 9731      	SBIW R30,1
0020f5 cfd8      	RJMP SUBOPT_0x65
                 
                 ;OPTIMIZER ADDED SUBROUTINE, CALLED 2 TIMES, CODE SIZE REDUCTION:1 WORDS
                 SUBOPT_0x6A:
0020f6 93ba      	ST   -Y,R27
0020f7 93aa      	ST   -Y,R26
0020f8 81a8      	LD   R26,Y
0020f9 81b9      	LDD  R27,Y+1
0020fa 940e 226c 	CALL __CPW02
0020fc 9508      	RET
                 
                 ;OPTIMIZER ADDED SUBROUTINE, CALLED 2 TIMES, CODE SIZE REDUCTION:1 WORDS
                 SUBOPT_0x6B:
0020fd 940e 2275 	CALL __SAVELOCR6
                +
0020ff 91e0 0a01+LDS R30 , _glcd_state + ( 4 )
002101 91f0 0a02+LDS R31 , _glcd_state + ( 4 ) + 1
                 	__GETW1MN _glcd_state,4
002103 9508      	RET
                 
                 ;OPTIMIZER ADDED SUBROUTINE, CALLED 3 TIMES, CODE SIZE REDUCTION:1 WORDS
                 SUBOPT_0x6C:
002104 01f8      	MOVW R30,R16
                +
002105 5f0f     +SUBI R16 , LOW ( - 1 )
002106 4f1f     +SBCI R17 , HIGH ( - 1 )
                 	__ADDWRN 16,17,1
002107 9004      	LPM  R0,Z
002108 9508      	RET
                 
                 ;OPTIMIZER ADDED SUBROUTINE, CALLED 4 TIMES, CODE SIZE REDUCTION:9 WORDS
                 SUBOPT_0x6D:
                +
002109 91e0 0a01+LDS R30 , _glcd_state + ( 4 )
00210b 91f0 0a02+LDS R31 , _glcd_state + ( 4 ) + 1
                 	__GETW1MN _glcd_state,4
00210d 9631      	ADIW R30,1
00210e 91e4      	LPM  R30,Z
00210f 9508      	RET
                 
                 ;OPTIMIZER ADDED SUBROUTINE, CALLED 2 TIMES, CODE SIZE REDUCTION:5 WORDS
                 SUBOPT_0x6E:
002110 93ea      	ST   -Y,R30
002111 e0e0      	LDI  R30,LOW(0)
002112 93ea      	ST   -Y,R30
002113 e0e0      	LDI  R30,LOW(0)
002114 e0f0      	LDI  R31,HIGH(0)
002115 93fa      	ST   -Y,R31
002116 93ea      	ST   -Y,R30
002117 e0a9      	LDI  R26,LOW(9)
002118 940c 17e7 	JMP  _glcd_block
                 
                 ;OPTIMIZER ADDED SUBROUTINE, CALLED 2 TIMES, CODE SIZE REDUCTION:3 WORDS
                 SUBOPT_0x6F:
00211a 93ba      	ST   -Y,R27
00211b 93aa      	ST   -Y,R26
00211c 931a      	ST   -Y,R17
00211d 81ec      	LDD  R30,Y+4
00211e 93ea      	ST   -Y,R30
00211f 81ac      	LDD  R26,Y+4
002120 940c 1b31 	JMP  _glcd_moveto
                 
                 ;OPTIMIZER ADDED SUBROUTINE, CALLED 2 TIMES, CODE SIZE REDUCTION:2 WORDS
                 SUBOPT_0x70:
002122 81a9      	LDD  R26,Y+1
002123 81ba      	LDD  R27,Y+1+1
002124 91ed      	LD   R30,X+
002125 83a9      	STD  Y+1,R26
002126 83ba      	STD  Y+1+1,R27
002127 2f1e      	MOV  R17,R30
002128 30e0      	CPI  R30,0
002129 9508      	RET
                 
                 ;OPTIMIZER ADDED SUBROUTINE, CALLED 2 TIMES, CODE SIZE REDUCTION:4 WORDS
                 SUBOPT_0x71:
00212a 81e9      	LDD  R30,Y+1
00212b 81fa      	LDD  R31,Y+1+1
00212c 9631      	ADIW R30,1
00212d 83e9      	STD  Y+1,R30
00212e 83fa      	STD  Y+1+1,R31
00212f 9731      	SBIW R30,1
002130 91e4      	LPM  R30,Z
002131 2f1e      	MOV  R17,R30
002132 30e0      	CPI  R30,0
002133 9508      	RET
                 
                 ;OPTIMIZER ADDED SUBROUTINE, CALLED 3 TIMES, CODE SIZE REDUCTION:7 WORDS
                 SUBOPT_0x72:
002134 81ae      	LDD  R26,Y+6
002135 5faf      	SUBI R26,-LOW(1)
002136 83ae      	STD  Y+6,R26
002137 50a1      	SUBI R26,LOW(1)
                +
002138 91e0 0a05+LDS R30 , _glcd_state + ( 8 )
                 	__GETB1MN _glcd_state,8
00213a 17ae      	CP   R26,R30
00213b 9508      	RET
                 
                 ;OPTIMIZER ADDED SUBROUTINE, CALLED 3 TIMES, CODE SIZE REDUCTION:1 WORDS
                 SUBOPT_0x73:
00213c 933a      	ST   -Y,R19
00213d 85aa      	LDD  R26,Y+10
00213e 940c 1b16 	JMP  _glcd_putpixelm_G102
                 
                 ;OPTIMIZER ADDED SUBROUTINE, CALLED 2 TIMES, CODE SIZE REDUCTION:1 WORDS
                 SUBOPT_0x74:
002140 85a9      	LDD  R26,Y+9
002141 85ba      	LDD  R27,Y+9+1
002142 0fea      	ADD  R30,R26
002143 1ffb      	ADC  R31,R27
002144 87e9      	STD  Y+9,R30
002145 87fa      	STD  Y+9+1,R31
002146 9508      	RET
                 
                 ;OPTIMIZER ADDED SUBROUTINE, CALLED 2 TIMES, CODE SIZE REDUCTION:1 WORDS
                 SUBOPT_0x75:
002147 85e9      	LDD  R30,Y+9
002148 85fa      	LDD  R31,Y+9+1
002149 1bea      	SUB  R30,R26
00214a 0bfb      	SBC  R31,R27
00214b 87e9      	STD  Y+9,R30
00214c 87fa      	STD  Y+9+1,R31
00214d 9508      	RET
                 
                 
                 	.CSEG
                 	.equ __sda_bit=1
                 	.equ __scl_bit=0
                 	.equ __i2c_port=0x12 ;PORTD
                 	.equ __i2c_dir=__i2c_port-1
                 	.equ __i2c_pin=__i2c_port-2
                 
                 _i2c_init:
00214e 9890      	cbi  __i2c_port,__scl_bit
00214f 9891      	cbi  __i2c_port,__sda_bit
002150 9a88      	sbi  __i2c_dir,__scl_bit
002151 9889      	cbi  __i2c_dir,__sda_bit
002152 c015      	rjmp __i2c_delay2
                 _i2c_start:
002153 9889      	cbi  __i2c_dir,__sda_bit
002154 9888      	cbi  __i2c_dir,__scl_bit
002155 27ee      	clr  r30
002156 0000      	nop
002157 9b81      	sbis __i2c_pin,__sda_bit
002158 9508      	ret
002159 9b80      	sbis __i2c_pin,__scl_bit
00215a 9508      	ret
00215b d004      	rcall __i2c_delay1
00215c 9a89      	sbi  __i2c_dir,__sda_bit
00215d d002      	rcall __i2c_delay1
00215e 9a88      	sbi  __i2c_dir,__scl_bit
00215f e0e1      	ldi  r30,1
                 __i2c_delay1:
002160 e06d      	ldi  r22,13
002161 c007      	rjmp __i2c_delay2l
                 _i2c_stop:
002162 9a89      	sbi  __i2c_dir,__sda_bit
002163 9a88      	sbi  __i2c_dir,__scl_bit
002164 d003      	rcall __i2c_delay2
002165 9888      	cbi  __i2c_dir,__scl_bit
002166 dff9      	rcall __i2c_delay1
002167 9889      	cbi  __i2c_dir,__sda_bit
                 __i2c_delay2:
002168 e16b      	ldi  r22,27
                 __i2c_delay2l:
002169 956a      	dec  r22
00216a f7f1      	brne __i2c_delay2l
00216b 9508      	ret
                 _i2c_read:
00216c e078      	ldi  r23,8
                 __i2c_read0:
00216d 9888      	cbi  __i2c_dir,__scl_bit
00216e dff1      	rcall __i2c_delay1
                 __i2c_read3:
00216f 9b80      	sbis __i2c_pin,__scl_bit
002170 cffe      	rjmp __i2c_read3
002171 dfee      	rcall __i2c_delay1
002172 9488      	clc
002173 9981      	sbic __i2c_pin,__sda_bit
002174 9408      	sec
002175 9a88      	sbi  __i2c_dir,__scl_bit
002176 dff1      	rcall __i2c_delay2
002177 1fee      	rol  r30
002178 957a      	dec  r23
002179 f799      	brne __i2c_read0
00217a 2f7a      	mov  r23,r26
00217b 2377      	tst  r23
00217c f411      	brne __i2c_read1
00217d 9889      	cbi  __i2c_dir,__sda_bit
00217e c001      	rjmp __i2c_read2
                 __i2c_read1:
00217f 9a89      	sbi  __i2c_dir,__sda_bit
                 __i2c_read2:
002180 dfdf      	rcall __i2c_delay1
002181 9888      	cbi  __i2c_dir,__scl_bit
002182 dfe5      	rcall __i2c_delay2
002183 9a88      	sbi  __i2c_dir,__scl_bit
002184 dfdb      	rcall __i2c_delay1
002185 9889      	cbi  __i2c_dir,__sda_bit
002186 cfd9      	rjmp __i2c_delay1
                 
                 _i2c_write:
002187 e078      	ldi  r23,8
                 __i2c_write0:
002188 0faa      	lsl  r26
002189 f410      	brcc __i2c_write1
00218a 9889      	cbi  __i2c_dir,__sda_bit
00218b c001      	rjmp __i2c_write2
                 __i2c_write1:
00218c 9a89      	sbi  __i2c_dir,__sda_bit
                 __i2c_write2:
00218d dfda      	rcall __i2c_delay2
00218e 9888      	cbi  __i2c_dir,__scl_bit
00218f dfd0      	rcall __i2c_delay1
                 __i2c_write3:
002190 9b80      	sbis __i2c_pin,__scl_bit
002191 cffe      	rjmp __i2c_write3
002192 dfcd      	rcall __i2c_delay1
002193 9a88      	sbi  __i2c_dir,__scl_bit
002194 957a      	dec  r23
002195 f791      	brne __i2c_write0
002196 9889      	cbi  __i2c_dir,__sda_bit
002197 dfc8      	rcall __i2c_delay1
002198 9888      	cbi  __i2c_dir,__scl_bit
002199 dfce      	rcall __i2c_delay2
00219a e0e1      	ldi  r30,1
00219b 9981      	sbic __i2c_pin,__sda_bit
00219c 27ee      	clr  r30
00219d 9a88      	sbi  __i2c_dir,__scl_bit
00219e cfc1      	rjmp __i2c_delay1
                 
                 _delay_ms:
00219f 9610      	adiw r26,0
0021a0 f039      	breq __delay_ms1
                 __delay_ms0:
                +
0021a1 ed80     +LDI R24 , LOW ( 0x7D0 )
0021a2 e097     +LDI R25 , HIGH ( 0x7D0 )
                +__DELAY_USW_LOOP :
0021a3 9701     +SBIW R24 , 1
0021a4 f7f1     +BRNE __DELAY_USW_LOOP
                 	__DELAY_USW 0x7D0
0021a5 95a8      	wdr
0021a6 9711      	sbiw r26,1
0021a7 f7c9      	brne __delay_ms0
                 __delay_ms1:
0021a8 9508      	ret
                 
                 __SUBD21:
0021a9 1bae      	SUB  R26,R30
0021aa 0bbf      	SBC  R27,R31
0021ab 0b86      	SBC  R24,R22
0021ac 0b97      	SBC  R25,R23
0021ad 9508      	RET
                 
                 __ANEGW1:
0021ae 95f1      	NEG  R31
0021af 95e1      	NEG  R30
0021b0 40f0      	SBCI R31,0
0021b1 9508      	RET
                 
                 __LSLB12:
0021b2 23ee      	TST  R30
0021b3 2e0e      	MOV  R0,R30
0021b4 2fea      	MOV  R30,R26
0021b5 f019      	BREQ __LSLB12R
                 __LSLB12L:
0021b6 0fee      	LSL  R30
0021b7 940a      	DEC  R0
0021b8 f7e9      	BRNE __LSLB12L
                 __LSLB12R:
0021b9 9508      	RET
                 
                 __LSRB12:
0021ba 23ee      	TST  R30
0021bb 2e0e      	MOV  R0,R30
0021bc 2fea      	MOV  R30,R26
0021bd f019      	BREQ __LSRB12R
                 __LSRB12L:
0021be 95e6      	LSR  R30
0021bf 940a      	DEC  R0
0021c0 f7e9      	BRNE __LSRB12L
                 __LSRB12R:
0021c1 9508      	RET
                 
                 __CWD1:
0021c2 2f6f      	MOV  R22,R31
0021c3 0f66      	ADD  R22,R22
0021c4 0b66      	SBC  R22,R22
0021c5 2f76      	MOV  R23,R22
0021c6 9508      	RET
                 
                 __EQB12:
0021c7 17ea      	CP   R30,R26
0021c8 e0e1      	LDI  R30,1
0021c9 f009      	BREQ __EQB12T
0021ca 27ee      	CLR  R30
                 __EQB12T:
0021cb 9508      	RET
                 
                 __LNEGB1:
0021cc 23ee      	TST  R30
0021cd e0e1      	LDI  R30,1
0021ce f009      	BREQ __LNEGB1F
0021cf 27ee      	CLR  R30
                 __LNEGB1F:
0021d0 9508      	RET
                 
                 __MULW12U:
0021d1 9ffa      	MUL  R31,R26
0021d2 2df0      	MOV  R31,R0
0021d3 9feb      	MUL  R30,R27
0021d4 0df0      	ADD  R31,R0
0021d5 9fea      	MUL  R30,R26
0021d6 2de0      	MOV  R30,R0
0021d7 0df1      	ADD  R31,R1
0021d8 9508      	RET
                 
                 __MULB1W2U:
0021d9 2f6e      	MOV  R22,R30
0021da 9f6a      	MUL  R22,R26
0021db 01f0      	MOVW R30,R0
0021dc 9f6b      	MUL  R22,R27
0021dd 0df0      	ADD  R31,R0
0021de 9508      	RET
                 
                 __MULW12:
0021df d045      	RCALL __CHKSIGNW
0021e0 dff0      	RCALL __MULW12U
0021e1 f40e      	BRTC __MULW121
0021e2 dfcb      	RCALL __ANEGW1
                 __MULW121:
0021e3 9508      	RET
                 
                 __DIVW21U:
0021e4 2400      	CLR  R0
0021e5 2411      	CLR  R1
0021e6 e190      	LDI  R25,16
                 __DIVW21U1:
0021e7 0faa      	LSL  R26
0021e8 1fbb      	ROL  R27
0021e9 1c00      	ROL  R0
0021ea 1c11      	ROL  R1
0021eb 1a0e      	SUB  R0,R30
0021ec 0a1f      	SBC  R1,R31
0021ed f418      	BRCC __DIVW21U2
0021ee 0e0e      	ADD  R0,R30
0021ef 1e1f      	ADC  R1,R31
0021f0 c001      	RJMP __DIVW21U3
                 __DIVW21U2:
0021f1 60a1      	SBR  R26,1
                 __DIVW21U3:
0021f2 959a      	DEC  R25
0021f3 f799      	BRNE __DIVW21U1
0021f4 01fd      	MOVW R30,R26
0021f5 01d0      	MOVW R26,R0
0021f6 9508      	RET
                 
                 __DIVW21:
0021f7 d02d      	RCALL __CHKSIGNW
0021f8 dfeb      	RCALL __DIVW21U
0021f9 f40e      	BRTC __DIVW211
0021fa dfb3      	RCALL __ANEGW1
                 __DIVW211:
0021fb 9508      	RET
                 
                 __DIVD21U:
0021fc 933f      	PUSH R19
0021fd 934f      	PUSH R20
0021fe 935f      	PUSH R21
0021ff 2400      	CLR  R0
002200 2411      	CLR  R1
002201 2744      	CLR  R20
002202 2755      	CLR  R21
002203 e230      	LDI  R19,32
                 __DIVD21U1:
002204 0faa      	LSL  R26
002205 1fbb      	ROL  R27
002206 1f88      	ROL  R24
002207 1f99      	ROL  R25
002208 1c00      	ROL  R0
002209 1c11      	ROL  R1
00220a 1f44      	ROL  R20
00220b 1f55      	ROL  R21
00220c 1a0e      	SUB  R0,R30
00220d 0a1f      	SBC  R1,R31
00220e 0b46      	SBC  R20,R22
00220f 0b57      	SBC  R21,R23
002210 f428      	BRCC __DIVD21U2
002211 0e0e      	ADD  R0,R30
002212 1e1f      	ADC  R1,R31
002213 1f46      	ADC  R20,R22
002214 1f57      	ADC  R21,R23
002215 c001      	RJMP __DIVD21U3
                 __DIVD21U2:
002216 60a1      	SBR  R26,1
                 __DIVD21U3:
002217 953a      	DEC  R19
002218 f759      	BRNE __DIVD21U1
002219 01fd      	MOVW R30,R26
00221a 01bc      	MOVW R22,R24
00221b 01d0      	MOVW R26,R0
00221c 01ca      	MOVW R24,R20
00221d 915f      	POP  R21
00221e 914f      	POP  R20
00221f 913f      	POP  R19
002220 9508      	RET
                 
                 __MODD21U:
002221 dfda      	RCALL __DIVD21U
002222 01fd      	MOVW R30,R26
002223 01bc      	MOVW R22,R24
002224 9508      	RET
                 
                 __CHKSIGNW:
002225 94e8      	CLT
002226 fff7      	SBRS R31,7
002227 c002      	RJMP __CHKSW1
002228 df85      	RCALL __ANEGW1
002229 9468      	SET
                 __CHKSW1:
00222a ffb7      	SBRS R27,7
00222b c006      	RJMP __CHKSW2
00222c 95a0      	COM  R26
00222d 95b0      	COM  R27
00222e 9611      	ADIW R26,1
00222f f800      	BLD  R0,0
002230 9403      	INC  R0
002231 fa00      	BST  R0,0
                 __CHKSW2:
002232 9508      	RET
                 
                 __GETW1P:
002233 91ed      	LD   R30,X+
002234 91fc      	LD   R31,X
002235 9711      	SBIW R26,1
002236 9508      	RET
                 
                 __PUTPARL:
002237 27bb      	CLR  R27
                 __PUTPAR:
002238 0fea      	ADD  R30,R26
002239 1ffb      	ADC  R31,R27
                 __PUTPAR0:
00223a 9002      	LD   R0,-Z
00223b 920a      	ST   -Y,R0
00223c 9711      	SBIW R26,1
00223d f7e1      	BRNE __PUTPAR0
00223e 9508      	RET
                 
                 __EEPROMRDW:
00223f 9611      	ADIW R26,1
002240 d002      	RCALL __EEPROMRDB
002241 2ffe      	MOV  R31,R30
002242 9711      	SBIW R26,1
                 
                 __EEPROMRDB:
002243 99e1      	SBIC EECR,EEWE
002244 cffe      	RJMP __EEPROMRDB
002245 93ff      	PUSH R31
002246 b7ff      	IN   R31,SREG
002247 94f8      	CLI
002248 bbae      	OUT  EEARL,R26
002249 bbbf      	OUT  EEARH,R27
00224a 9ae0      	SBI  EECR,EERE
00224b b3ed      	IN   R30,EEDR
00224c bfff      	OUT  SREG,R31
00224d 91ff      	POP  R31
00224e 9508      	RET
                 
                 __EEPROMWRW:
00224f d007      	RCALL __EEPROMWRB
002250 9611      	ADIW R26,1
002251 93ef      	PUSH R30
002252 2fef      	MOV  R30,R31
002253 d003      	RCALL __EEPROMWRB
002254 91ef      	POP  R30
002255 9711      	SBIW R26,1
002256 9508      	RET
                 
                 __EEPROMWRB:
002257 9be1      	SBIS EECR,EEWE
002258 c002      	RJMP __EEPROMWRB1
002259 95a8      	WDR
00225a cffc      	RJMP __EEPROMWRB
                 __EEPROMWRB1:
00225b b79f      	IN   R25,SREG
00225c 94f8      	CLI
00225d bbae      	OUT  EEARL,R26
00225e bbbf      	OUT  EEARH,R27
00225f 9ae0      	SBI  EECR,EERE
002260 b38d      	IN   R24,EEDR
002261 17e8      	CP   R30,R24
002262 f019      	BREQ __EEPROMWRB0
002263 bbed      	OUT  EEDR,R30
002264 9ae2      	SBI  EECR,EEMWE
002265 9ae1      	SBI  EECR,EEWE
                 __EEPROMWRB0:
002266 bf9f      	OUT  SREG,R25
002267 9508      	RET
                 
                 __CPD10:
002268 9730      	SBIW R30,0
002269 4060      	SBCI R22,0
00226a 4070      	SBCI R23,0
00226b 9508      	RET
                 
                 __CPW02:
00226c 2400      	CLR  R0
00226d 160a      	CP   R0,R26
00226e 060b      	CPC  R0,R27
00226f 9508      	RET
                 
                 __CPD21:
002270 17ae      	CP   R26,R30
002271 07bf      	CPC  R27,R31
002272 0786      	CPC  R24,R22
002273 0797      	CPC  R25,R23
002274 9508      	RET
                 
                 __SAVELOCR6:
002275 935a      	ST   -Y,R21
                 __SAVELOCR5:
002276 934a      	ST   -Y,R20
                 __SAVELOCR4:
002277 933a      	ST   -Y,R19
                 __SAVELOCR3:
002278 932a      	ST   -Y,R18
                 __SAVELOCR2:
002279 931a      	ST   -Y,R17
00227a 930a      	ST   -Y,R16
00227b 9508      	RET
                 
                 __LOADLOCR6:
00227c 815d      	LDD  R21,Y+5
                 __LOADLOCR5:
00227d 814c      	LDD  R20,Y+4
                 __LOADLOCR4:
00227e 813b      	LDD  R19,Y+3
                 __LOADLOCR3:
00227f 812a      	LDD  R18,Y+2
                 __LOADLOCR2:
002280 8119      	LDD  R17,Y+1
002281 8108      	LD   R16,Y
002282 9508      	RET
                 
                 ;END OF CODE MARKER
                 __END_OF_CODE:


RESOURCE USE INFORMATION
------------------------

Notice:
The register and instruction counts are symbol table hit counts,
and hence implicitly used resources are not counted, eg, the
'lpm' instruction without operands implicitly uses r0 and z,
none of which are counted.

x,y,z are separate entities in the symbol table and are
counted separately from r26..r31 here.

.dseg memory usage only counts static data declared with .byte

ATmega128 register use summary:
r0 :  72 r1 :  15 r2 :   1 r3 :   0 r4 :   5 r5 :   3 r6 :   4 r7 :   2 
r8 :   6 r9 :   0 r10:  17 r11:   0 r12:   4 r13:   4 r14:   0 r15:   2 
r16: 185 r17: 218 r18:  79 r19:  87 r20:  42 r21:  51 r22:  60 r23:  35 
r24:  56 r25:  18 r26: 886 r27: 330 r28:  87 r29:   1 r30:1609 r31: 431 
x  :  73 y  :1000 z  :  40 
Registers used: 31 out of 35 (88.6%)

ATmega128 instruction use summary:
.lds  :   0 .lds.l:   0 .sts  :   0 .sts.l:   0 adc   :  46 add   :  68 
adiw  : 108 and   :  10 andi  :  18 asr   :   0 bclr  :   0 bld   :   2 
brbc  :   1 brbs  :   0 brcc  :   3 brcs  :   0 break :   0 breq  :  67 
brge  :   9 brhc  :   0 brhs  :   0 brid  :   0 brie  :   0 brlo  :  12 
brlt  :  13 brmi  :   1 brne  : 166 brpl  :   2 brsh  :  26 brtc  :   3 
brts  :   0 brvc  :   0 brvs  :   0 bset  :   0 bst   :   1 call  : 631 
cbi   :  62 cbr   :   0 clc   :   1 clh   :   0 cli   :   4 cln   :   0 
clr   :  45 cls   :   0 clt   :   2 clv   :   0 clz   :   0 com   :  12 
cp    :  49 cpc   :  79 cpi   : 169 cpse  :   0 dec   :  14 des   :   0 
elpm  :   0 eor   :   1 fmul  :   0 fmuls :   0 fmulsu:   0 icall :   2 
ijmp  :   0 in    :   6 inc   :   5 jmp   :  94 ld    : 132 ldd   : 438 
ldi   : 935 lds   :  87 lpm   :  25 lsl   :  32 lsr   :  15 mov   : 163 
movw  : 177 mul   :  16 muls  :   0 mulsu :   0 neg   :   2 nop   :   1 
or    :  10 ori   :  12 out   :  31 pop   :  15 push  :  15 rcall : 152 
ret   : 149 reti  :   3 rjmp  : 429 rol   :  26 ror   :   0 sbc   :  14 
sbci  :  70 sbi   :  58 sbic  :  64 sbis  :  68 sbiw  :  57 sbr   :   2 
sbrc  :   0 sbrs  :   2 sec   :   1 seh   :   0 sei   :   2 sen   :   0 
ser   :   0 ses   :   0 set   :   3 sev   :   0 sez   :   0 sleep :   0 
spm   :   0 st    : 423 std   : 104 sts   :  73 sub   :  21 subi  : 118 
swap  :   1 tst   :  16 wdr   :   2 
Instructions used: 75 out of 117 (64.1%)

ATmega128 memory use summary [bytes]:
Segment   Begin    End      Code   Data   Used    Size   Use%
---------------------------------------------------------------
[.cseg] 0x000000 0x004506  13144   4526  17670  131072  13.5%
[.dseg] 0x000100 0x001084      0   2948   2948    4096  72.0%
[.eseg] 0x000000 0x0000fc      0    252    252    4096   6.2%

Assembly complete, 0 errors, 15 warnings
